
KabelTest_Board_3.elf:     file format elf32-avr

Sections:
Idx Name          Size      VMA       LMA       File off  Algn
  0 .data         00000000  00800100  00800100  00002d98  2**0
                  CONTENTS, ALLOC, LOAD, DATA
  1 .text         00002d24  00000000  00000000  00000074  2**1
                  CONTENTS, ALLOC, LOAD, READONLY, CODE
  2 .bss          00000011  00800100  00800100  00002d98  2**0
                  ALLOC
  3 .comment      00000030  00000000  00000000  00002d98  2**0
                  CONTENTS, READONLY
  4 .note.gnu.avr.deviceinfo 0000003c  00000000  00000000  00002dc8  2**2
                  CONTENTS, READONLY
  5 .debug_info   00000780  00000000  00000000  00002e04  2**0
                  CONTENTS, READONLY, DEBUGGING
  6 .debug_abbrev 00000718  00000000  00000000  00003584  2**0
                  CONTENTS, READONLY, DEBUGGING
  7 .debug_line   00000169  00000000  00000000  00003c9c  2**0
                  CONTENTS, READONLY, DEBUGGING
  8 .debug_str    0000027e  00000000  00000000  00003e05  2**0
                  CONTENTS, READONLY, DEBUGGING

Disassembly of section .text:

00000000 <__vectors>:
       0:	0c 94 4e 00 	jmp	0x9c	; 0x9c <__ctors_end>
       4:	0c 94 60 00 	jmp	0xc0	; 0xc0 <__bad_interrupt>
       8:	0c 94 54 05 	jmp	0xaa8	; 0xaa8 <__vector_2>
       c:	0c 94 9f 05 	jmp	0xb3e	; 0xb3e <__vector_3>
      10:	0c 94 60 00 	jmp	0xc0	; 0xc0 <__bad_interrupt>
      14:	0c 94 60 00 	jmp	0xc0	; 0xc0 <__bad_interrupt>
      18:	0c 94 60 00 	jmp	0xc0	; 0xc0 <__bad_interrupt>
      1c:	0c 94 60 00 	jmp	0xc0	; 0xc0 <__bad_interrupt>
      20:	0c 94 60 00 	jmp	0xc0	; 0xc0 <__bad_interrupt>
      24:	0c 94 60 00 	jmp	0xc0	; 0xc0 <__bad_interrupt>
      28:	0c 94 60 00 	jmp	0xc0	; 0xc0 <__bad_interrupt>
      2c:	0c 94 60 00 	jmp	0xc0	; 0xc0 <__bad_interrupt>
      30:	0c 94 60 00 	jmp	0xc0	; 0xc0 <__bad_interrupt>
      34:	0c 94 60 00 	jmp	0xc0	; 0xc0 <__bad_interrupt>
      38:	0c 94 fd 05 	jmp	0xbfa	; 0xbfa <__vector_14>
      3c:	0c 94 60 00 	jmp	0xc0	; 0xc0 <__bad_interrupt>
      40:	0c 94 60 00 	jmp	0xc0	; 0xc0 <__bad_interrupt>
      44:	0c 94 60 00 	jmp	0xc0	; 0xc0 <__bad_interrupt>
      48:	0c 94 cc 05 	jmp	0xb98	; 0xb98 <__vector_18>
      4c:	0c 94 60 00 	jmp	0xc0	; 0xc0 <__bad_interrupt>
      50:	0c 94 60 00 	jmp	0xc0	; 0xc0 <__bad_interrupt>
      54:	0c 94 60 00 	jmp	0xc0	; 0xc0 <__bad_interrupt>
      58:	0c 94 60 00 	jmp	0xc0	; 0xc0 <__bad_interrupt>
      5c:	0c 94 60 00 	jmp	0xc0	; 0xc0 <__bad_interrupt>
      60:	0c 94 60 00 	jmp	0xc0	; 0xc0 <__bad_interrupt>
      64:	0c 94 60 00 	jmp	0xc0	; 0xc0 <__bad_interrupt>
      68:	0c 94 60 00 	jmp	0xc0	; 0xc0 <__bad_interrupt>
      6c:	0c 94 60 00 	jmp	0xc0	; 0xc0 <__bad_interrupt>
      70:	0c 94 60 00 	jmp	0xc0	; 0xc0 <__bad_interrupt>
      74:	0c 94 60 00 	jmp	0xc0	; 0xc0 <__bad_interrupt>
      78:	0c 94 60 00 	jmp	0xc0	; 0xc0 <__bad_interrupt>
      7c:	0c 94 60 00 	jmp	0xc0	; 0xc0 <__bad_interrupt>
      80:	0c 94 60 00 	jmp	0xc0	; 0xc0 <__bad_interrupt>
      84:	0c 94 60 00 	jmp	0xc0	; 0xc0 <__bad_interrupt>
      88:	0c 94 60 00 	jmp	0xc0	; 0xc0 <__bad_interrupt>
      8c:	05 07       	cpc	r16, r21
      8e:	0a 07       	cpc	r16, r26
      90:	0d 07       	cpc	r16, r29
      92:	10 07       	cpc	r17, r16
      94:	13 07       	cpc	r17, r19
      96:	16 07       	cpc	r17, r22
      98:	19 07       	cpc	r17, r25
      9a:	1c 07       	cpc	r17, r28

0000009c <__ctors_end>:
      9c:	11 24       	eor	r1, r1
      9e:	1f be       	out	0x3f, r1	; 63
      a0:	cf ef       	ldi	r28, 0xFF	; 255
      a2:	d0 e1       	ldi	r29, 0x10	; 16
      a4:	de bf       	out	0x3e, r29	; 62
      a6:	cd bf       	out	0x3d, r28	; 61

000000a8 <__do_clear_bss>:
      a8:	21 e0       	ldi	r18, 0x01	; 1
      aa:	a0 e0       	ldi	r26, 0x00	; 0
      ac:	b1 e0       	ldi	r27, 0x01	; 1
      ae:	01 c0       	rjmp	.+2      	; 0xb2 <.do_clear_bss_start>

000000b0 <.do_clear_bss_loop>:
      b0:	1d 92       	st	X+, r1

000000b2 <.do_clear_bss_start>:
      b2:	a1 31       	cpi	r26, 0x11	; 17
      b4:	b2 07       	cpc	r27, r18
      b6:	e1 f7       	brne	.-8      	; 0xb0 <.do_clear_bss_loop>
      b8:	0e 94 38 06 	call	0xc70	; 0xc70 <main>
      bc:	0c 94 90 16 	jmp	0x2d20	; 0x2d20 <_exit>

000000c0 <__bad_interrupt>:
      c0:	0c 94 00 00 	jmp	0	; 0x0 <__vectors>

000000c4 <EEPROM_write>:
      c4:	e1 99       	sbic	0x1c, 1	; 28
      c6:	fe cf       	rjmp	.-4      	; 0xc4 <EEPROM_write>
      c8:	9f bb       	out	0x1f, r25	; 31
      ca:	8e bb       	out	0x1e, r24	; 30
      cc:	6d bb       	out	0x1d, r22	; 29
      ce:	e2 9a       	sbi	0x1c, 2	; 28
      d0:	e1 9a       	sbi	0x1c, 1	; 28
      d2:	08 95       	ret

000000d4 <EEPROM_read>:
      d4:	e1 99       	sbic	0x1c, 1	; 28
      d6:	fe cf       	rjmp	.-4      	; 0xd4 <EEPROM_read>
      d8:	9f bb       	out	0x1f, r25	; 31
      da:	8e bb       	out	0x1e, r24	; 30
      dc:	e0 9a       	sbi	0x1c, 0	; 28
      de:	8d b3       	in	r24, 0x1d	; 29
      e0:	08 95       	ret

000000e2 <corret_bytes>:
      e2:	20 b1       	in	r18, 0x00	; 0
      e4:	20 93 07 01 	sts	0x0107, r18	; 0x800107 <F>
      e8:	91 b1       	in	r25, 0x01	; 1
      ea:	90 93 06 01 	sts	0x0106, r25	; 0x800106 <E>
      ee:	86 b3       	in	r24, 0x16	; 22
      f0:	80 93 05 01 	sts	0x0105, r24	; 0x800105 <B>
      f4:	80 b3       	in	r24, 0x10	; 16
      f6:	80 93 04 01 	sts	0x0104, r24	; 0x800104 <D>
      fa:	33 b3       	in	r19, 0x13	; 19
      fc:	30 93 03 01 	sts	0x0103, r19	; 0x800103 <C>
     100:	39 b3       	in	r19, 0x19	; 25
     102:	30 93 02 01 	sts	0x0102, r19	; 0x800102 <A>
     106:	20 6f       	ori	r18, 0xF0	; 240
     108:	20 93 07 01 	sts	0x0107, r18	; 0x800107 <F>
     10c:	93 60       	ori	r25, 0x03	; 3
     10e:	90 93 06 01 	sts	0x0106, r25	; 0x800106 <E>
     112:	8e 61       	ori	r24, 0x1E	; 30
     114:	80 93 04 01 	sts	0x0104, r24	; 0x800104 <D>
     118:	08 95       	ret

0000011a <to_EEPROM>:
     11a:	cf 93       	push	r28
     11c:	df 93       	push	r29
     11e:	c0 91 00 01 	lds	r28, 0x0100	; 0x800100 <_edata>
     122:	d0 91 01 01 	lds	r29, 0x0101	; 0x800101 <_edata+0x1>
     126:	60 91 07 01 	lds	r22, 0x0107	; 0x800107 <F>
     12a:	ce 01       	movw	r24, r28
     12c:	0e 94 62 00 	call	0xc4	; 0xc4 <EEPROM_write>
     130:	60 91 06 01 	lds	r22, 0x0106	; 0x800106 <E>
     134:	ce 01       	movw	r24, r28
     136:	01 96       	adiw	r24, 0x01	; 1
     138:	0e 94 62 00 	call	0xc4	; 0xc4 <EEPROM_write>
     13c:	60 91 05 01 	lds	r22, 0x0105	; 0x800105 <B>
     140:	ce 01       	movw	r24, r28
     142:	02 96       	adiw	r24, 0x02	; 2
     144:	0e 94 62 00 	call	0xc4	; 0xc4 <EEPROM_write>
     148:	60 91 04 01 	lds	r22, 0x0104	; 0x800104 <D>
     14c:	ce 01       	movw	r24, r28
     14e:	03 96       	adiw	r24, 0x03	; 3
     150:	0e 94 62 00 	call	0xc4	; 0xc4 <EEPROM_write>
     154:	60 91 03 01 	lds	r22, 0x0103	; 0x800103 <C>
     158:	ce 01       	movw	r24, r28
     15a:	04 96       	adiw	r24, 0x04	; 4
     15c:	0e 94 62 00 	call	0xc4	; 0xc4 <EEPROM_write>
     160:	60 91 02 01 	lds	r22, 0x0102	; 0x800102 <A>
     164:	ce 01       	movw	r24, r28
     166:	05 96       	adiw	r24, 0x05	; 5
     168:	0e 94 62 00 	call	0xc4	; 0xc4 <EEPROM_write>
     16c:	26 96       	adiw	r28, 0x06	; 6
     16e:	d0 93 01 01 	sts	0x0101, r29	; 0x800101 <_edata+0x1>
     172:	c0 93 00 01 	sts	0x0100, r28	; 0x800100 <_edata>
     176:	df 91       	pop	r29
     178:	cf 91       	pop	r28
     17a:	08 95       	ret

0000017c <from_EEPROM>:
     17c:	80 91 00 01 	lds	r24, 0x0100	; 0x800100 <_edata>
     180:	90 91 01 01 	lds	r25, 0x0101	; 0x800101 <_edata+0x1>
     184:	0e 94 6a 00 	call	0xd4	; 0xd4 <EEPROM_read>
     188:	90 91 07 01 	lds	r25, 0x0107	; 0x800107 <F>
     18c:	89 13       	cpse	r24, r25
     18e:	73 c0       	rjmp	.+230    	; 0x276 <from_EEPROM+0xfa>
     190:	80 91 65 00 	lds	r24, 0x0065	; 0x800065 <__TEXT_REGION_LENGTH__+0x7e0065>
     194:	80 61       	ori	r24, 0x10	; 16
     196:	80 93 65 00 	sts	0x0065, r24	; 0x800065 <__TEXT_REGION_LENGTH__+0x7e0065>
     19a:	80 91 00 01 	lds	r24, 0x0100	; 0x800100 <_edata>
     19e:	90 91 01 01 	lds	r25, 0x0101	; 0x800101 <_edata+0x1>
     1a2:	01 96       	adiw	r24, 0x01	; 1
     1a4:	90 93 01 01 	sts	0x0101, r25	; 0x800101 <_edata+0x1>
     1a8:	80 93 00 01 	sts	0x0100, r24	; 0x800100 <_edata>
     1ac:	0e 94 6a 00 	call	0xd4	; 0xd4 <EEPROM_read>
     1b0:	90 91 06 01 	lds	r25, 0x0106	; 0x800106 <E>
     1b4:	89 13       	cpse	r24, r25
     1b6:	5f c0       	rjmp	.+190    	; 0x276 <from_EEPROM+0xfa>
     1b8:	80 91 65 00 	lds	r24, 0x0065	; 0x800065 <__TEXT_REGION_LENGTH__+0x7e0065>
     1bc:	80 61       	ori	r24, 0x10	; 16
     1be:	80 93 65 00 	sts	0x0065, r24	; 0x800065 <__TEXT_REGION_LENGTH__+0x7e0065>
     1c2:	80 91 00 01 	lds	r24, 0x0100	; 0x800100 <_edata>
     1c6:	90 91 01 01 	lds	r25, 0x0101	; 0x800101 <_edata+0x1>
     1ca:	01 96       	adiw	r24, 0x01	; 1
     1cc:	90 93 01 01 	sts	0x0101, r25	; 0x800101 <_edata+0x1>
     1d0:	80 93 00 01 	sts	0x0100, r24	; 0x800100 <_edata>
     1d4:	0e 94 6a 00 	call	0xd4	; 0xd4 <EEPROM_read>
     1d8:	90 91 05 01 	lds	r25, 0x0105	; 0x800105 <B>
     1dc:	89 13       	cpse	r24, r25
     1de:	4b c0       	rjmp	.+150    	; 0x276 <from_EEPROM+0xfa>
     1e0:	80 91 65 00 	lds	r24, 0x0065	; 0x800065 <__TEXT_REGION_LENGTH__+0x7e0065>
     1e4:	80 61       	ori	r24, 0x10	; 16
     1e6:	80 93 65 00 	sts	0x0065, r24	; 0x800065 <__TEXT_REGION_LENGTH__+0x7e0065>
     1ea:	80 91 00 01 	lds	r24, 0x0100	; 0x800100 <_edata>
     1ee:	90 91 01 01 	lds	r25, 0x0101	; 0x800101 <_edata+0x1>
     1f2:	01 96       	adiw	r24, 0x01	; 1
     1f4:	90 93 01 01 	sts	0x0101, r25	; 0x800101 <_edata+0x1>
     1f8:	80 93 00 01 	sts	0x0100, r24	; 0x800100 <_edata>
     1fc:	0e 94 6a 00 	call	0xd4	; 0xd4 <EEPROM_read>
     200:	90 91 04 01 	lds	r25, 0x0104	; 0x800104 <D>
     204:	89 13       	cpse	r24, r25
     206:	37 c0       	rjmp	.+110    	; 0x276 <from_EEPROM+0xfa>
     208:	80 91 65 00 	lds	r24, 0x0065	; 0x800065 <__TEXT_REGION_LENGTH__+0x7e0065>
     20c:	80 61       	ori	r24, 0x10	; 16
     20e:	80 93 65 00 	sts	0x0065, r24	; 0x800065 <__TEXT_REGION_LENGTH__+0x7e0065>
     212:	80 91 00 01 	lds	r24, 0x0100	; 0x800100 <_edata>
     216:	90 91 01 01 	lds	r25, 0x0101	; 0x800101 <_edata+0x1>
     21a:	01 96       	adiw	r24, 0x01	; 1
     21c:	90 93 01 01 	sts	0x0101, r25	; 0x800101 <_edata+0x1>
     220:	80 93 00 01 	sts	0x0100, r24	; 0x800100 <_edata>
     224:	0e 94 6a 00 	call	0xd4	; 0xd4 <EEPROM_read>
     228:	90 91 03 01 	lds	r25, 0x0103	; 0x800103 <C>
     22c:	89 13       	cpse	r24, r25
     22e:	23 c0       	rjmp	.+70     	; 0x276 <from_EEPROM+0xfa>
     230:	80 91 65 00 	lds	r24, 0x0065	; 0x800065 <__TEXT_REGION_LENGTH__+0x7e0065>
     234:	80 61       	ori	r24, 0x10	; 16
     236:	80 93 65 00 	sts	0x0065, r24	; 0x800065 <__TEXT_REGION_LENGTH__+0x7e0065>
     23a:	80 91 00 01 	lds	r24, 0x0100	; 0x800100 <_edata>
     23e:	90 91 01 01 	lds	r25, 0x0101	; 0x800101 <_edata+0x1>
     242:	01 96       	adiw	r24, 0x01	; 1
     244:	90 93 01 01 	sts	0x0101, r25	; 0x800101 <_edata+0x1>
     248:	80 93 00 01 	sts	0x0100, r24	; 0x800100 <_edata>
     24c:	0e 94 6a 00 	call	0xd4	; 0xd4 <EEPROM_read>
     250:	90 91 02 01 	lds	r25, 0x0102	; 0x800102 <A>
     254:	89 13       	cpse	r24, r25
     256:	0f c0       	rjmp	.+30     	; 0x276 <from_EEPROM+0xfa>
     258:	80 91 65 00 	lds	r24, 0x0065	; 0x800065 <__TEXT_REGION_LENGTH__+0x7e0065>
     25c:	80 61       	ori	r24, 0x10	; 16
     25e:	80 93 65 00 	sts	0x0065, r24	; 0x800065 <__TEXT_REGION_LENGTH__+0x7e0065>
     262:	80 91 00 01 	lds	r24, 0x0100	; 0x800100 <_edata>
     266:	90 91 01 01 	lds	r25, 0x0101	; 0x800101 <_edata+0x1>
     26a:	01 96       	adiw	r24, 0x01	; 1
     26c:	90 93 01 01 	sts	0x0101, r25	; 0x800101 <_edata+0x1>
     270:	80 93 00 01 	sts	0x0100, r24	; 0x800100 <_edata>
     274:	08 95       	ret
     276:	80 91 65 00 	lds	r24, 0x0065	; 0x800065 <__TEXT_REGION_LENGTH__+0x7e0065>
     27a:	88 60       	ori	r24, 0x08	; 8
     27c:	80 93 65 00 	sts	0x0065, r24	; 0x800065 <__TEXT_REGION_LENGTH__+0x7e0065>
     280:	80 91 65 00 	lds	r24, 0x0065	; 0x800065 <__TEXT_REGION_LENGTH__+0x7e0065>
     284:	8f 7e       	andi	r24, 0xEF	; 239
     286:	80 93 65 00 	sts	0x0065, r24	; 0x800065 <__TEXT_REGION_LENGTH__+0x7e0065>
     28a:	08 95       	ret

0000028c <Scan_and_write_read_EEPROM>:
     28c:	1d bc       	out	0x2d, r1	; 45
     28e:	1c bc       	out	0x2c, r1	; 44
     290:	80 91 0c 01 	lds	r24, 0x010C	; 0x80010c <cell_addres>
     294:	90 91 0d 01 	lds	r25, 0x010D	; 0x80010d <cell_addres+0x1>
     298:	90 93 01 01 	sts	0x0101, r25	; 0x800101 <_edata+0x1>
     29c:	80 93 00 01 	sts	0x0100, r24	; 0x800100 <_edata>
     2a0:	80 91 61 00 	lds	r24, 0x0061	; 0x800061 <__TEXT_REGION_LENGTH__+0x7e0061>
     2a4:	88 60       	ori	r24, 0x08	; 8
     2a6:	80 93 61 00 	sts	0x0061, r24	; 0x800061 <__TEXT_REGION_LENGTH__+0x7e0061>
     2aa:	80 91 62 00 	lds	r24, 0x0062	; 0x800062 <__TEXT_REGION_LENGTH__+0x7e0062>
     2ae:	88 60       	ori	r24, 0x08	; 8
     2b0:	80 93 62 00 	sts	0x0062, r24	; 0x800062 <__TEXT_REGION_LENGTH__+0x7e0062>
     2b4:	0e 94 8f 06 	call	0xd1e	; 0xd1e <Toogle_blue_LED>
     2b8:	8f e3       	ldi	r24, 0x3F	; 63
     2ba:	9c e9       	ldi	r25, 0x9C	; 156
     2bc:	01 97       	sbiw	r24, 0x01	; 1
     2be:	f1 f7       	brne	.-4      	; 0x2bc <Scan_and_write_read_EEPROM+0x30>
     2c0:	00 c0       	rjmp	.+0      	; 0x2c2 <Scan_and_write_read_EEPROM+0x36>
     2c2:	00 00       	nop
     2c4:	0e 94 71 00 	call	0xe2	; 0xe2 <corret_bytes>
     2c8:	80 91 0e 01 	lds	r24, 0x010E	; 0x80010e <Mode>
     2cc:	82 30       	cpi	r24, 0x02	; 2
     2ce:	19 f4       	brne	.+6      	; 0x2d6 <Scan_and_write_read_EEPROM+0x4a>
     2d0:	0e 94 be 00 	call	0x17c	; 0x17c <from_EEPROM>
     2d4:	04 c0       	rjmp	.+8      	; 0x2de <Scan_and_write_read_EEPROM+0x52>
     2d6:	83 30       	cpi	r24, 0x03	; 3
     2d8:	11 f4       	brne	.+4      	; 0x2de <Scan_and_write_read_EEPROM+0x52>
     2da:	0e 94 8d 00 	call	0x11a	; 0x11a <to_EEPROM>
     2de:	80 91 61 00 	lds	r24, 0x0061	; 0x800061 <__TEXT_REGION_LENGTH__+0x7e0061>
     2e2:	87 7f       	andi	r24, 0xF7	; 247
     2e4:	80 93 61 00 	sts	0x0061, r24	; 0x800061 <__TEXT_REGION_LENGTH__+0x7e0061>
     2e8:	80 91 62 00 	lds	r24, 0x0062	; 0x800062 <__TEXT_REGION_LENGTH__+0x7e0062>
     2ec:	87 7f       	andi	r24, 0xF7	; 247
     2ee:	80 93 62 00 	sts	0x0062, r24	; 0x800062 <__TEXT_REGION_LENGTH__+0x7e0062>
     2f2:	80 91 61 00 	lds	r24, 0x0061	; 0x800061 <__TEXT_REGION_LENGTH__+0x7e0061>
     2f6:	84 60       	ori	r24, 0x04	; 4
     2f8:	80 93 61 00 	sts	0x0061, r24	; 0x800061 <__TEXT_REGION_LENGTH__+0x7e0061>
     2fc:	80 91 62 00 	lds	r24, 0x0062	; 0x800062 <__TEXT_REGION_LENGTH__+0x7e0062>
     300:	84 60       	ori	r24, 0x04	; 4
     302:	80 93 62 00 	sts	0x0062, r24	; 0x800062 <__TEXT_REGION_LENGTH__+0x7e0062>
     306:	8f e3       	ldi	r24, 0x3F	; 63
     308:	9c e9       	ldi	r25, 0x9C	; 156
     30a:	01 97       	sbiw	r24, 0x01	; 1
     30c:	f1 f7       	brne	.-4      	; 0x30a <Scan_and_write_read_EEPROM+0x7e>
     30e:	00 c0       	rjmp	.+0      	; 0x310 <Scan_and_write_read_EEPROM+0x84>
     310:	00 00       	nop
     312:	0e 94 71 00 	call	0xe2	; 0xe2 <corret_bytes>
     316:	80 91 0e 01 	lds	r24, 0x010E	; 0x80010e <Mode>
     31a:	82 30       	cpi	r24, 0x02	; 2
     31c:	19 f4       	brne	.+6      	; 0x324 <Scan_and_write_read_EEPROM+0x98>
     31e:	0e 94 be 00 	call	0x17c	; 0x17c <from_EEPROM>
     322:	04 c0       	rjmp	.+8      	; 0x32c <Scan_and_write_read_EEPROM+0xa0>
     324:	83 30       	cpi	r24, 0x03	; 3
     326:	11 f4       	brne	.+4      	; 0x32c <Scan_and_write_read_EEPROM+0xa0>
     328:	0e 94 8d 00 	call	0x11a	; 0x11a <to_EEPROM>
     32c:	80 91 61 00 	lds	r24, 0x0061	; 0x800061 <__TEXT_REGION_LENGTH__+0x7e0061>
     330:	8b 7f       	andi	r24, 0xFB	; 251
     332:	80 93 61 00 	sts	0x0061, r24	; 0x800061 <__TEXT_REGION_LENGTH__+0x7e0061>
     336:	80 91 62 00 	lds	r24, 0x0062	; 0x800062 <__TEXT_REGION_LENGTH__+0x7e0062>
     33a:	8b 7f       	andi	r24, 0xFB	; 251
     33c:	80 93 62 00 	sts	0x0062, r24	; 0x800062 <__TEXT_REGION_LENGTH__+0x7e0062>
     340:	80 91 61 00 	lds	r24, 0x0061	; 0x800061 <__TEXT_REGION_LENGTH__+0x7e0061>
     344:	82 60       	ori	r24, 0x02	; 2
     346:	80 93 61 00 	sts	0x0061, r24	; 0x800061 <__TEXT_REGION_LENGTH__+0x7e0061>
     34a:	80 91 62 00 	lds	r24, 0x0062	; 0x800062 <__TEXT_REGION_LENGTH__+0x7e0062>
     34e:	82 60       	ori	r24, 0x02	; 2
     350:	80 93 62 00 	sts	0x0062, r24	; 0x800062 <__TEXT_REGION_LENGTH__+0x7e0062>
     354:	8f e3       	ldi	r24, 0x3F	; 63
     356:	9c e9       	ldi	r25, 0x9C	; 156
     358:	01 97       	sbiw	r24, 0x01	; 1
     35a:	f1 f7       	brne	.-4      	; 0x358 <Scan_and_write_read_EEPROM+0xcc>
     35c:	00 c0       	rjmp	.+0      	; 0x35e <Scan_and_write_read_EEPROM+0xd2>
     35e:	00 00       	nop
     360:	0e 94 71 00 	call	0xe2	; 0xe2 <corret_bytes>
     364:	80 91 0e 01 	lds	r24, 0x010E	; 0x80010e <Mode>
     368:	82 30       	cpi	r24, 0x02	; 2
     36a:	19 f4       	brne	.+6      	; 0x372 <Scan_and_write_read_EEPROM+0xe6>
     36c:	0e 94 be 00 	call	0x17c	; 0x17c <from_EEPROM>
     370:	04 c0       	rjmp	.+8      	; 0x37a <Scan_and_write_read_EEPROM+0xee>
     372:	83 30       	cpi	r24, 0x03	; 3
     374:	11 f4       	brne	.+4      	; 0x37a <Scan_and_write_read_EEPROM+0xee>
     376:	0e 94 8d 00 	call	0x11a	; 0x11a <to_EEPROM>
     37a:	80 91 61 00 	lds	r24, 0x0061	; 0x800061 <__TEXT_REGION_LENGTH__+0x7e0061>
     37e:	8d 7f       	andi	r24, 0xFD	; 253
     380:	80 93 61 00 	sts	0x0061, r24	; 0x800061 <__TEXT_REGION_LENGTH__+0x7e0061>
     384:	80 91 62 00 	lds	r24, 0x0062	; 0x800062 <__TEXT_REGION_LENGTH__+0x7e0062>
     388:	8d 7f       	andi	r24, 0xFD	; 253
     38a:	80 93 62 00 	sts	0x0062, r24	; 0x800062 <__TEXT_REGION_LENGTH__+0x7e0062>
     38e:	80 91 61 00 	lds	r24, 0x0061	; 0x800061 <__TEXT_REGION_LENGTH__+0x7e0061>
     392:	81 60       	ori	r24, 0x01	; 1
     394:	80 93 61 00 	sts	0x0061, r24	; 0x800061 <__TEXT_REGION_LENGTH__+0x7e0061>
     398:	80 91 62 00 	lds	r24, 0x0062	; 0x800062 <__TEXT_REGION_LENGTH__+0x7e0062>
     39c:	81 60       	ori	r24, 0x01	; 1
     39e:	80 93 62 00 	sts	0x0062, r24	; 0x800062 <__TEXT_REGION_LENGTH__+0x7e0062>
     3a2:	8f e3       	ldi	r24, 0x3F	; 63
     3a4:	9c e9       	ldi	r25, 0x9C	; 156
     3a6:	01 97       	sbiw	r24, 0x01	; 1
     3a8:	f1 f7       	brne	.-4      	; 0x3a6 <Scan_and_write_read_EEPROM+0x11a>
     3aa:	00 c0       	rjmp	.+0      	; 0x3ac <Scan_and_write_read_EEPROM+0x120>
     3ac:	00 00       	nop
     3ae:	0e 94 71 00 	call	0xe2	; 0xe2 <corret_bytes>
     3b2:	80 91 0e 01 	lds	r24, 0x010E	; 0x80010e <Mode>
     3b6:	82 30       	cpi	r24, 0x02	; 2
     3b8:	19 f4       	brne	.+6      	; 0x3c0 <Scan_and_write_read_EEPROM+0x134>
     3ba:	0e 94 be 00 	call	0x17c	; 0x17c <from_EEPROM>
     3be:	04 c0       	rjmp	.+8      	; 0x3c8 <Scan_and_write_read_EEPROM+0x13c>
     3c0:	83 30       	cpi	r24, 0x03	; 3
     3c2:	11 f4       	brne	.+4      	; 0x3c8 <Scan_and_write_read_EEPROM+0x13c>
     3c4:	0e 94 8d 00 	call	0x11a	; 0x11a <to_EEPROM>
     3c8:	80 91 61 00 	lds	r24, 0x0061	; 0x800061 <__TEXT_REGION_LENGTH__+0x7e0061>
     3cc:	8e 7f       	andi	r24, 0xFE	; 254
     3ce:	80 93 61 00 	sts	0x0061, r24	; 0x800061 <__TEXT_REGION_LENGTH__+0x7e0061>
     3d2:	80 91 62 00 	lds	r24, 0x0062	; 0x800062 <__TEXT_REGION_LENGTH__+0x7e0062>
     3d6:	8e 7f       	andi	r24, 0xFE	; 254
     3d8:	80 93 62 00 	sts	0x0062, r24	; 0x800062 <__TEXT_REGION_LENGTH__+0x7e0062>
     3dc:	12 9a       	sbi	0x02, 2	; 2
     3de:	1a 9a       	sbi	0x03, 2	; 3
     3e0:	0e 94 8f 06 	call	0xd1e	; 0xd1e <Toogle_blue_LED>
     3e4:	8f e3       	ldi	r24, 0x3F	; 63
     3e6:	9c e9       	ldi	r25, 0x9C	; 156
     3e8:	01 97       	sbiw	r24, 0x01	; 1
     3ea:	f1 f7       	brne	.-4      	; 0x3e8 <Scan_and_write_read_EEPROM+0x15c>
     3ec:	00 c0       	rjmp	.+0      	; 0x3ee <Scan_and_write_read_EEPROM+0x162>
     3ee:	00 00       	nop
     3f0:	0e 94 71 00 	call	0xe2	; 0xe2 <corret_bytes>
     3f4:	80 91 0e 01 	lds	r24, 0x010E	; 0x80010e <Mode>
     3f8:	82 30       	cpi	r24, 0x02	; 2
     3fa:	19 f4       	brne	.+6      	; 0x402 <__LOCK_REGION_LENGTH__+0x2>
     3fc:	0e 94 be 00 	call	0x17c	; 0x17c <from_EEPROM>
     400:	04 c0       	rjmp	.+8      	; 0x40a <__LOCK_REGION_LENGTH__+0xa>
     402:	83 30       	cpi	r24, 0x03	; 3
     404:	11 f4       	brne	.+4      	; 0x40a <__LOCK_REGION_LENGTH__+0xa>
     406:	0e 94 8d 00 	call	0x11a	; 0x11a <to_EEPROM>
     40a:	12 98       	cbi	0x02, 2	; 2
     40c:	1a 98       	cbi	0x03, 2	; 3
     40e:	13 9a       	sbi	0x02, 3	; 2
     410:	1b 9a       	sbi	0x03, 3	; 3
     412:	8f e3       	ldi	r24, 0x3F	; 63
     414:	9c e9       	ldi	r25, 0x9C	; 156
     416:	01 97       	sbiw	r24, 0x01	; 1
     418:	f1 f7       	brne	.-4      	; 0x416 <__LOCK_REGION_LENGTH__+0x16>
     41a:	00 c0       	rjmp	.+0      	; 0x41c <__LOCK_REGION_LENGTH__+0x1c>
     41c:	00 00       	nop
     41e:	0e 94 71 00 	call	0xe2	; 0xe2 <corret_bytes>
     422:	80 91 0e 01 	lds	r24, 0x010E	; 0x80010e <Mode>
     426:	82 30       	cpi	r24, 0x02	; 2
     428:	19 f4       	brne	.+6      	; 0x430 <__LOCK_REGION_LENGTH__+0x30>
     42a:	0e 94 be 00 	call	0x17c	; 0x17c <from_EEPROM>
     42e:	04 c0       	rjmp	.+8      	; 0x438 <__LOCK_REGION_LENGTH__+0x38>
     430:	83 30       	cpi	r24, 0x03	; 3
     432:	11 f4       	brne	.+4      	; 0x438 <__LOCK_REGION_LENGTH__+0x38>
     434:	0e 94 8d 00 	call	0x11a	; 0x11a <to_EEPROM>
     438:	13 98       	cbi	0x02, 3	; 2
     43a:	1b 98       	cbi	0x03, 3	; 3
     43c:	14 9a       	sbi	0x02, 4	; 2
     43e:	1c 9a       	sbi	0x03, 4	; 3
     440:	8f e3       	ldi	r24, 0x3F	; 63
     442:	9c e9       	ldi	r25, 0x9C	; 156
     444:	01 97       	sbiw	r24, 0x01	; 1
     446:	f1 f7       	brne	.-4      	; 0x444 <__LOCK_REGION_LENGTH__+0x44>
     448:	00 c0       	rjmp	.+0      	; 0x44a <__LOCK_REGION_LENGTH__+0x4a>
     44a:	00 00       	nop
     44c:	0e 94 71 00 	call	0xe2	; 0xe2 <corret_bytes>
     450:	80 91 0e 01 	lds	r24, 0x010E	; 0x80010e <Mode>
     454:	82 30       	cpi	r24, 0x02	; 2
     456:	19 f4       	brne	.+6      	; 0x45e <__LOCK_REGION_LENGTH__+0x5e>
     458:	0e 94 be 00 	call	0x17c	; 0x17c <from_EEPROM>
     45c:	04 c0       	rjmp	.+8      	; 0x466 <__LOCK_REGION_LENGTH__+0x66>
     45e:	83 30       	cpi	r24, 0x03	; 3
     460:	11 f4       	brne	.+4      	; 0x466 <__LOCK_REGION_LENGTH__+0x66>
     462:	0e 94 8d 00 	call	0x11a	; 0x11a <to_EEPROM>
     466:	14 98       	cbi	0x02, 4	; 2
     468:	1c 98       	cbi	0x03, 4	; 3
     46a:	15 9a       	sbi	0x02, 5	; 2
     46c:	1d 9a       	sbi	0x03, 5	; 3
     46e:	8f e3       	ldi	r24, 0x3F	; 63
     470:	9c e9       	ldi	r25, 0x9C	; 156
     472:	01 97       	sbiw	r24, 0x01	; 1
     474:	f1 f7       	brne	.-4      	; 0x472 <__LOCK_REGION_LENGTH__+0x72>
     476:	00 c0       	rjmp	.+0      	; 0x478 <__LOCK_REGION_LENGTH__+0x78>
     478:	00 00       	nop
     47a:	0e 94 71 00 	call	0xe2	; 0xe2 <corret_bytes>
     47e:	80 91 0e 01 	lds	r24, 0x010E	; 0x80010e <Mode>
     482:	82 30       	cpi	r24, 0x02	; 2
     484:	19 f4       	brne	.+6      	; 0x48c <__LOCK_REGION_LENGTH__+0x8c>
     486:	0e 94 be 00 	call	0x17c	; 0x17c <from_EEPROM>
     48a:	04 c0       	rjmp	.+8      	; 0x494 <__LOCK_REGION_LENGTH__+0x94>
     48c:	83 30       	cpi	r24, 0x03	; 3
     48e:	11 f4       	brne	.+4      	; 0x494 <__LOCK_REGION_LENGTH__+0x94>
     490:	0e 94 8d 00 	call	0x11a	; 0x11a <to_EEPROM>
     494:	15 98       	cbi	0x02, 5	; 2
     496:	1d 98       	cbi	0x03, 5	; 3
     498:	16 9a       	sbi	0x02, 6	; 2
     49a:	1e 9a       	sbi	0x03, 6	; 3
     49c:	8f e3       	ldi	r24, 0x3F	; 63
     49e:	9c e9       	ldi	r25, 0x9C	; 156
     4a0:	01 97       	sbiw	r24, 0x01	; 1
     4a2:	f1 f7       	brne	.-4      	; 0x4a0 <__LOCK_REGION_LENGTH__+0xa0>
     4a4:	00 c0       	rjmp	.+0      	; 0x4a6 <__LOCK_REGION_LENGTH__+0xa6>
     4a6:	00 00       	nop
     4a8:	0e 94 71 00 	call	0xe2	; 0xe2 <corret_bytes>
     4ac:	80 91 0e 01 	lds	r24, 0x010E	; 0x80010e <Mode>
     4b0:	82 30       	cpi	r24, 0x02	; 2
     4b2:	19 f4       	brne	.+6      	; 0x4ba <__LOCK_REGION_LENGTH__+0xba>
     4b4:	0e 94 be 00 	call	0x17c	; 0x17c <from_EEPROM>
     4b8:	04 c0       	rjmp	.+8      	; 0x4c2 <__LOCK_REGION_LENGTH__+0xc2>
     4ba:	83 30       	cpi	r24, 0x03	; 3
     4bc:	11 f4       	brne	.+4      	; 0x4c2 <__LOCK_REGION_LENGTH__+0xc2>
     4be:	0e 94 8d 00 	call	0x11a	; 0x11a <to_EEPROM>
     4c2:	16 98       	cbi	0x02, 6	; 2
     4c4:	1e 98       	cbi	0x03, 6	; 3
     4c6:	17 9a       	sbi	0x02, 7	; 2
     4c8:	1f 9a       	sbi	0x03, 7	; 3
     4ca:	8f e3       	ldi	r24, 0x3F	; 63
     4cc:	9c e9       	ldi	r25, 0x9C	; 156
     4ce:	01 97       	sbiw	r24, 0x01	; 1
     4d0:	f1 f7       	brne	.-4      	; 0x4ce <__LOCK_REGION_LENGTH__+0xce>
     4d2:	00 c0       	rjmp	.+0      	; 0x4d4 <__LOCK_REGION_LENGTH__+0xd4>
     4d4:	00 00       	nop
     4d6:	0e 94 71 00 	call	0xe2	; 0xe2 <corret_bytes>
     4da:	80 91 0e 01 	lds	r24, 0x010E	; 0x80010e <Mode>
     4de:	82 30       	cpi	r24, 0x02	; 2
     4e0:	19 f4       	brne	.+6      	; 0x4e8 <__LOCK_REGION_LENGTH__+0xe8>
     4e2:	0e 94 be 00 	call	0x17c	; 0x17c <from_EEPROM>
     4e6:	04 c0       	rjmp	.+8      	; 0x4f0 <__LOCK_REGION_LENGTH__+0xf0>
     4e8:	83 30       	cpi	r24, 0x03	; 3
     4ea:	11 f4       	brne	.+4      	; 0x4f0 <__LOCK_REGION_LENGTH__+0xf0>
     4ec:	0e 94 8d 00 	call	0x11a	; 0x11a <to_EEPROM>
     4f0:	17 98       	cbi	0x02, 7	; 2
     4f2:	1f 98       	cbi	0x03, 7	; 3
     4f4:	b8 9a       	sbi	0x17, 0	; 23
     4f6:	c0 9a       	sbi	0x18, 0	; 24
     4f8:	0e 94 8f 06 	call	0xd1e	; 0xd1e <Toogle_blue_LED>
     4fc:	8f e3       	ldi	r24, 0x3F	; 63
     4fe:	9c e9       	ldi	r25, 0x9C	; 156
     500:	01 97       	sbiw	r24, 0x01	; 1
     502:	f1 f7       	brne	.-4      	; 0x500 <__LOCK_REGION_LENGTH__+0x100>
     504:	00 c0       	rjmp	.+0      	; 0x506 <__LOCK_REGION_LENGTH__+0x106>
     506:	00 00       	nop
     508:	0e 94 71 00 	call	0xe2	; 0xe2 <corret_bytes>
     50c:	80 91 0e 01 	lds	r24, 0x010E	; 0x80010e <Mode>
     510:	82 30       	cpi	r24, 0x02	; 2
     512:	19 f4       	brne	.+6      	; 0x51a <__LOCK_REGION_LENGTH__+0x11a>
     514:	0e 94 be 00 	call	0x17c	; 0x17c <from_EEPROM>
     518:	04 c0       	rjmp	.+8      	; 0x522 <__LOCK_REGION_LENGTH__+0x122>
     51a:	83 30       	cpi	r24, 0x03	; 3
     51c:	11 f4       	brne	.+4      	; 0x522 <__LOCK_REGION_LENGTH__+0x122>
     51e:	0e 94 8d 00 	call	0x11a	; 0x11a <to_EEPROM>
     522:	b8 98       	cbi	0x17, 0	; 23
     524:	c0 98       	cbi	0x18, 0	; 24
     526:	b9 9a       	sbi	0x17, 1	; 23
     528:	c1 9a       	sbi	0x18, 1	; 24
     52a:	8f e3       	ldi	r24, 0x3F	; 63
     52c:	9c e9       	ldi	r25, 0x9C	; 156
     52e:	01 97       	sbiw	r24, 0x01	; 1
     530:	f1 f7       	brne	.-4      	; 0x52e <__LOCK_REGION_LENGTH__+0x12e>
     532:	00 c0       	rjmp	.+0      	; 0x534 <__LOCK_REGION_LENGTH__+0x134>
     534:	00 00       	nop
     536:	0e 94 71 00 	call	0xe2	; 0xe2 <corret_bytes>
     53a:	80 91 0e 01 	lds	r24, 0x010E	; 0x80010e <Mode>
     53e:	82 30       	cpi	r24, 0x02	; 2
     540:	19 f4       	brne	.+6      	; 0x548 <__LOCK_REGION_LENGTH__+0x148>
     542:	0e 94 be 00 	call	0x17c	; 0x17c <from_EEPROM>
     546:	04 c0       	rjmp	.+8      	; 0x550 <__LOCK_REGION_LENGTH__+0x150>
     548:	83 30       	cpi	r24, 0x03	; 3
     54a:	11 f4       	brne	.+4      	; 0x550 <__LOCK_REGION_LENGTH__+0x150>
     54c:	0e 94 8d 00 	call	0x11a	; 0x11a <to_EEPROM>
     550:	b9 98       	cbi	0x17, 1	; 23
     552:	c1 98       	cbi	0x18, 1	; 24
     554:	ba 9a       	sbi	0x17, 2	; 23
     556:	c2 9a       	sbi	0x18, 2	; 24
     558:	8f e3       	ldi	r24, 0x3F	; 63
     55a:	9c e9       	ldi	r25, 0x9C	; 156
     55c:	01 97       	sbiw	r24, 0x01	; 1
     55e:	f1 f7       	brne	.-4      	; 0x55c <__LOCK_REGION_LENGTH__+0x15c>
     560:	00 c0       	rjmp	.+0      	; 0x562 <__LOCK_REGION_LENGTH__+0x162>
     562:	00 00       	nop
     564:	0e 94 71 00 	call	0xe2	; 0xe2 <corret_bytes>
     568:	80 91 0e 01 	lds	r24, 0x010E	; 0x80010e <Mode>
     56c:	82 30       	cpi	r24, 0x02	; 2
     56e:	19 f4       	brne	.+6      	; 0x576 <__LOCK_REGION_LENGTH__+0x176>
     570:	0e 94 be 00 	call	0x17c	; 0x17c <from_EEPROM>
     574:	04 c0       	rjmp	.+8      	; 0x57e <__LOCK_REGION_LENGTH__+0x17e>
     576:	83 30       	cpi	r24, 0x03	; 3
     578:	11 f4       	brne	.+4      	; 0x57e <__LOCK_REGION_LENGTH__+0x17e>
     57a:	0e 94 8d 00 	call	0x11a	; 0x11a <to_EEPROM>
     57e:	ba 98       	cbi	0x17, 2	; 23
     580:	c2 98       	cbi	0x18, 2	; 24
     582:	bb 9a       	sbi	0x17, 3	; 23
     584:	c3 9a       	sbi	0x18, 3	; 24
     586:	8f e3       	ldi	r24, 0x3F	; 63
     588:	9c e9       	ldi	r25, 0x9C	; 156
     58a:	01 97       	sbiw	r24, 0x01	; 1
     58c:	f1 f7       	brne	.-4      	; 0x58a <__LOCK_REGION_LENGTH__+0x18a>
     58e:	00 c0       	rjmp	.+0      	; 0x590 <__LOCK_REGION_LENGTH__+0x190>
     590:	00 00       	nop
     592:	0e 94 71 00 	call	0xe2	; 0xe2 <corret_bytes>
     596:	80 91 0e 01 	lds	r24, 0x010E	; 0x80010e <Mode>
     59a:	82 30       	cpi	r24, 0x02	; 2
     59c:	19 f4       	brne	.+6      	; 0x5a4 <__LOCK_REGION_LENGTH__+0x1a4>
     59e:	0e 94 be 00 	call	0x17c	; 0x17c <from_EEPROM>
     5a2:	04 c0       	rjmp	.+8      	; 0x5ac <__LOCK_REGION_LENGTH__+0x1ac>
     5a4:	83 30       	cpi	r24, 0x03	; 3
     5a6:	11 f4       	brne	.+4      	; 0x5ac <__LOCK_REGION_LENGTH__+0x1ac>
     5a8:	0e 94 8d 00 	call	0x11a	; 0x11a <to_EEPROM>
     5ac:	bb 98       	cbi	0x17, 3	; 23
     5ae:	c3 98       	cbi	0x18, 3	; 24
     5b0:	bc 9a       	sbi	0x17, 4	; 23
     5b2:	c4 9a       	sbi	0x18, 4	; 24
     5b4:	8f e3       	ldi	r24, 0x3F	; 63
     5b6:	9c e9       	ldi	r25, 0x9C	; 156
     5b8:	01 97       	sbiw	r24, 0x01	; 1
     5ba:	f1 f7       	brne	.-4      	; 0x5b8 <__LOCK_REGION_LENGTH__+0x1b8>
     5bc:	00 c0       	rjmp	.+0      	; 0x5be <__LOCK_REGION_LENGTH__+0x1be>
     5be:	00 00       	nop
     5c0:	0e 94 71 00 	call	0xe2	; 0xe2 <corret_bytes>
     5c4:	80 91 0e 01 	lds	r24, 0x010E	; 0x80010e <Mode>
     5c8:	82 30       	cpi	r24, 0x02	; 2
     5ca:	19 f4       	brne	.+6      	; 0x5d2 <__LOCK_REGION_LENGTH__+0x1d2>
     5cc:	0e 94 be 00 	call	0x17c	; 0x17c <from_EEPROM>
     5d0:	04 c0       	rjmp	.+8      	; 0x5da <__LOCK_REGION_LENGTH__+0x1da>
     5d2:	83 30       	cpi	r24, 0x03	; 3
     5d4:	11 f4       	brne	.+4      	; 0x5da <__LOCK_REGION_LENGTH__+0x1da>
     5d6:	0e 94 8d 00 	call	0x11a	; 0x11a <to_EEPROM>
     5da:	bc 98       	cbi	0x17, 4	; 23
     5dc:	c4 98       	cbi	0x18, 4	; 24
     5de:	bd 9a       	sbi	0x17, 5	; 23
     5e0:	c5 9a       	sbi	0x18, 5	; 24
     5e2:	8f e3       	ldi	r24, 0x3F	; 63
     5e4:	9c e9       	ldi	r25, 0x9C	; 156
     5e6:	01 97       	sbiw	r24, 0x01	; 1
     5e8:	f1 f7       	brne	.-4      	; 0x5e6 <__LOCK_REGION_LENGTH__+0x1e6>
     5ea:	00 c0       	rjmp	.+0      	; 0x5ec <__LOCK_REGION_LENGTH__+0x1ec>
     5ec:	00 00       	nop
     5ee:	0e 94 71 00 	call	0xe2	; 0xe2 <corret_bytes>
     5f2:	80 91 0e 01 	lds	r24, 0x010E	; 0x80010e <Mode>
     5f6:	82 30       	cpi	r24, 0x02	; 2
     5f8:	19 f4       	brne	.+6      	; 0x600 <__LOCK_REGION_LENGTH__+0x200>
     5fa:	0e 94 be 00 	call	0x17c	; 0x17c <from_EEPROM>
     5fe:	04 c0       	rjmp	.+8      	; 0x608 <__LOCK_REGION_LENGTH__+0x208>
     600:	83 30       	cpi	r24, 0x03	; 3
     602:	11 f4       	brne	.+4      	; 0x608 <__LOCK_REGION_LENGTH__+0x208>
     604:	0e 94 8d 00 	call	0x11a	; 0x11a <to_EEPROM>
     608:	bd 98       	cbi	0x17, 5	; 23
     60a:	c5 98       	cbi	0x18, 5	; 24
     60c:	be 9a       	sbi	0x17, 6	; 23
     60e:	c6 9a       	sbi	0x18, 6	; 24
     610:	8f e3       	ldi	r24, 0x3F	; 63
     612:	9c e9       	ldi	r25, 0x9C	; 156
     614:	01 97       	sbiw	r24, 0x01	; 1
     616:	f1 f7       	brne	.-4      	; 0x614 <__LOCK_REGION_LENGTH__+0x214>
     618:	00 c0       	rjmp	.+0      	; 0x61a <__LOCK_REGION_LENGTH__+0x21a>
     61a:	00 00       	nop
     61c:	0e 94 71 00 	call	0xe2	; 0xe2 <corret_bytes>
     620:	80 91 0e 01 	lds	r24, 0x010E	; 0x80010e <Mode>
     624:	82 30       	cpi	r24, 0x02	; 2
     626:	19 f4       	brne	.+6      	; 0x62e <__LOCK_REGION_LENGTH__+0x22e>
     628:	0e 94 be 00 	call	0x17c	; 0x17c <from_EEPROM>
     62c:	04 c0       	rjmp	.+8      	; 0x636 <__LOCK_REGION_LENGTH__+0x236>
     62e:	83 30       	cpi	r24, 0x03	; 3
     630:	11 f4       	brne	.+4      	; 0x636 <__LOCK_REGION_LENGTH__+0x236>
     632:	0e 94 8d 00 	call	0x11a	; 0x11a <to_EEPROM>
     636:	be 98       	cbi	0x17, 6	; 23
     638:	c6 98       	cbi	0x18, 6	; 24
     63a:	bf 9a       	sbi	0x17, 7	; 23
     63c:	c7 9a       	sbi	0x18, 7	; 24
     63e:	8f e3       	ldi	r24, 0x3F	; 63
     640:	9c e9       	ldi	r25, 0x9C	; 156
     642:	01 97       	sbiw	r24, 0x01	; 1
     644:	f1 f7       	brne	.-4      	; 0x642 <__LOCK_REGION_LENGTH__+0x242>
     646:	00 c0       	rjmp	.+0      	; 0x648 <__LOCK_REGION_LENGTH__+0x248>
     648:	00 00       	nop
     64a:	0e 94 71 00 	call	0xe2	; 0xe2 <corret_bytes>
     64e:	80 91 0e 01 	lds	r24, 0x010E	; 0x80010e <Mode>
     652:	82 30       	cpi	r24, 0x02	; 2
     654:	19 f4       	brne	.+6      	; 0x65c <__LOCK_REGION_LENGTH__+0x25c>
     656:	0e 94 be 00 	call	0x17c	; 0x17c <from_EEPROM>
     65a:	04 c0       	rjmp	.+8      	; 0x664 <__LOCK_REGION_LENGTH__+0x264>
     65c:	83 30       	cpi	r24, 0x03	; 3
     65e:	11 f4       	brne	.+4      	; 0x664 <__LOCK_REGION_LENGTH__+0x264>
     660:	0e 94 8d 00 	call	0x11a	; 0x11a <to_EEPROM>
     664:	bf 98       	cbi	0x17, 7	; 23
     666:	c7 98       	cbi	0x18, 7	; 24
     668:	88 9a       	sbi	0x11, 0	; 17
     66a:	90 9a       	sbi	0x12, 0	; 18
     66c:	0e 94 8f 06 	call	0xd1e	; 0xd1e <Toogle_blue_LED>
     670:	8f e3       	ldi	r24, 0x3F	; 63
     672:	9c e9       	ldi	r25, 0x9C	; 156
     674:	01 97       	sbiw	r24, 0x01	; 1
     676:	f1 f7       	brne	.-4      	; 0x674 <__LOCK_REGION_LENGTH__+0x274>
     678:	00 c0       	rjmp	.+0      	; 0x67a <__LOCK_REGION_LENGTH__+0x27a>
     67a:	00 00       	nop
     67c:	0e 94 71 00 	call	0xe2	; 0xe2 <corret_bytes>
     680:	80 91 0e 01 	lds	r24, 0x010E	; 0x80010e <Mode>
     684:	82 30       	cpi	r24, 0x02	; 2
     686:	19 f4       	brne	.+6      	; 0x68e <__LOCK_REGION_LENGTH__+0x28e>
     688:	0e 94 be 00 	call	0x17c	; 0x17c <from_EEPROM>
     68c:	04 c0       	rjmp	.+8      	; 0x696 <__LOCK_REGION_LENGTH__+0x296>
     68e:	83 30       	cpi	r24, 0x03	; 3
     690:	11 f4       	brne	.+4      	; 0x696 <__LOCK_REGION_LENGTH__+0x296>
     692:	0e 94 8d 00 	call	0x11a	; 0x11a <to_EEPROM>
     696:	88 98       	cbi	0x11, 0	; 17
     698:	90 98       	cbi	0x12, 0	; 18
     69a:	8d 9a       	sbi	0x11, 5	; 17
     69c:	95 9a       	sbi	0x12, 5	; 18
     69e:	8f e3       	ldi	r24, 0x3F	; 63
     6a0:	9c e9       	ldi	r25, 0x9C	; 156
     6a2:	01 97       	sbiw	r24, 0x01	; 1
     6a4:	f1 f7       	brne	.-4      	; 0x6a2 <__LOCK_REGION_LENGTH__+0x2a2>
     6a6:	00 c0       	rjmp	.+0      	; 0x6a8 <__LOCK_REGION_LENGTH__+0x2a8>
     6a8:	00 00       	nop
     6aa:	0e 94 71 00 	call	0xe2	; 0xe2 <corret_bytes>
     6ae:	80 91 0e 01 	lds	r24, 0x010E	; 0x80010e <Mode>
     6b2:	82 30       	cpi	r24, 0x02	; 2
     6b4:	19 f4       	brne	.+6      	; 0x6bc <__LOCK_REGION_LENGTH__+0x2bc>
     6b6:	0e 94 be 00 	call	0x17c	; 0x17c <from_EEPROM>
     6ba:	04 c0       	rjmp	.+8      	; 0x6c4 <__LOCK_REGION_LENGTH__+0x2c4>
     6bc:	83 30       	cpi	r24, 0x03	; 3
     6be:	11 f4       	brne	.+4      	; 0x6c4 <__LOCK_REGION_LENGTH__+0x2c4>
     6c0:	0e 94 8d 00 	call	0x11a	; 0x11a <to_EEPROM>
     6c4:	8d 98       	cbi	0x11, 5	; 17
     6c6:	95 98       	cbi	0x12, 5	; 18
     6c8:	8e 9a       	sbi	0x11, 6	; 17
     6ca:	96 9a       	sbi	0x12, 6	; 18
     6cc:	8f e3       	ldi	r24, 0x3F	; 63
     6ce:	9c e9       	ldi	r25, 0x9C	; 156
     6d0:	01 97       	sbiw	r24, 0x01	; 1
     6d2:	f1 f7       	brne	.-4      	; 0x6d0 <__LOCK_REGION_LENGTH__+0x2d0>
     6d4:	00 c0       	rjmp	.+0      	; 0x6d6 <__LOCK_REGION_LENGTH__+0x2d6>
     6d6:	00 00       	nop
     6d8:	0e 94 71 00 	call	0xe2	; 0xe2 <corret_bytes>
     6dc:	80 91 0e 01 	lds	r24, 0x010E	; 0x80010e <Mode>
     6e0:	82 30       	cpi	r24, 0x02	; 2
     6e2:	19 f4       	brne	.+6      	; 0x6ea <__LOCK_REGION_LENGTH__+0x2ea>
     6e4:	0e 94 be 00 	call	0x17c	; 0x17c <from_EEPROM>
     6e8:	04 c0       	rjmp	.+8      	; 0x6f2 <__LOCK_REGION_LENGTH__+0x2f2>
     6ea:	83 30       	cpi	r24, 0x03	; 3
     6ec:	11 f4       	brne	.+4      	; 0x6f2 <__LOCK_REGION_LENGTH__+0x2f2>
     6ee:	0e 94 8d 00 	call	0x11a	; 0x11a <to_EEPROM>
     6f2:	8e 98       	cbi	0x11, 6	; 17
     6f4:	96 98       	cbi	0x12, 6	; 18
     6f6:	8f 9a       	sbi	0x11, 7	; 17
     6f8:	97 9a       	sbi	0x12, 7	; 18
     6fa:	8f e3       	ldi	r24, 0x3F	; 63
     6fc:	9c e9       	ldi	r25, 0x9C	; 156
     6fe:	01 97       	sbiw	r24, 0x01	; 1
     700:	f1 f7       	brne	.-4      	; 0x6fe <__LOCK_REGION_LENGTH__+0x2fe>
     702:	00 c0       	rjmp	.+0      	; 0x704 <__LOCK_REGION_LENGTH__+0x304>
     704:	00 00       	nop
     706:	0e 94 71 00 	call	0xe2	; 0xe2 <corret_bytes>
     70a:	80 91 0e 01 	lds	r24, 0x010E	; 0x80010e <Mode>
     70e:	82 30       	cpi	r24, 0x02	; 2
     710:	19 f4       	brne	.+6      	; 0x718 <__LOCK_REGION_LENGTH__+0x318>
     712:	0e 94 be 00 	call	0x17c	; 0x17c <from_EEPROM>
     716:	04 c0       	rjmp	.+8      	; 0x720 <__LOCK_REGION_LENGTH__+0x320>
     718:	83 30       	cpi	r24, 0x03	; 3
     71a:	11 f4       	brne	.+4      	; 0x720 <__LOCK_REGION_LENGTH__+0x320>
     71c:	0e 94 8d 00 	call	0x11a	; 0x11a <to_EEPROM>
     720:	8f 98       	cbi	0x11, 7	; 17
     722:	97 98       	cbi	0x12, 7	; 18
     724:	a0 9a       	sbi	0x14, 0	; 20
     726:	a8 9a       	sbi	0x15, 0	; 21
     728:	0e 94 8f 06 	call	0xd1e	; 0xd1e <Toogle_blue_LED>
     72c:	8f e3       	ldi	r24, 0x3F	; 63
     72e:	9c e9       	ldi	r25, 0x9C	; 156
     730:	01 97       	sbiw	r24, 0x01	; 1
     732:	f1 f7       	brne	.-4      	; 0x730 <__LOCK_REGION_LENGTH__+0x330>
     734:	00 c0       	rjmp	.+0      	; 0x736 <__LOCK_REGION_LENGTH__+0x336>
     736:	00 00       	nop
     738:	0e 94 71 00 	call	0xe2	; 0xe2 <corret_bytes>
     73c:	80 91 0e 01 	lds	r24, 0x010E	; 0x80010e <Mode>
     740:	82 30       	cpi	r24, 0x02	; 2
     742:	19 f4       	brne	.+6      	; 0x74a <__LOCK_REGION_LENGTH__+0x34a>
     744:	0e 94 be 00 	call	0x17c	; 0x17c <from_EEPROM>
     748:	04 c0       	rjmp	.+8      	; 0x752 <__LOCK_REGION_LENGTH__+0x352>
     74a:	83 30       	cpi	r24, 0x03	; 3
     74c:	11 f4       	brne	.+4      	; 0x752 <__LOCK_REGION_LENGTH__+0x352>
     74e:	0e 94 8d 00 	call	0x11a	; 0x11a <to_EEPROM>
     752:	a0 98       	cbi	0x14, 0	; 20
     754:	a8 98       	cbi	0x15, 0	; 21
     756:	a1 9a       	sbi	0x14, 1	; 20
     758:	a9 9a       	sbi	0x15, 1	; 21
     75a:	8f e3       	ldi	r24, 0x3F	; 63
     75c:	9c e9       	ldi	r25, 0x9C	; 156
     75e:	01 97       	sbiw	r24, 0x01	; 1
     760:	f1 f7       	brne	.-4      	; 0x75e <__LOCK_REGION_LENGTH__+0x35e>
     762:	00 c0       	rjmp	.+0      	; 0x764 <__LOCK_REGION_LENGTH__+0x364>
     764:	00 00       	nop
     766:	0e 94 71 00 	call	0xe2	; 0xe2 <corret_bytes>
     76a:	80 91 0e 01 	lds	r24, 0x010E	; 0x80010e <Mode>
     76e:	82 30       	cpi	r24, 0x02	; 2
     770:	19 f4       	brne	.+6      	; 0x778 <__LOCK_REGION_LENGTH__+0x378>
     772:	0e 94 be 00 	call	0x17c	; 0x17c <from_EEPROM>
     776:	04 c0       	rjmp	.+8      	; 0x780 <__LOCK_REGION_LENGTH__+0x380>
     778:	83 30       	cpi	r24, 0x03	; 3
     77a:	11 f4       	brne	.+4      	; 0x780 <__LOCK_REGION_LENGTH__+0x380>
     77c:	0e 94 8d 00 	call	0x11a	; 0x11a <to_EEPROM>
     780:	a1 98       	cbi	0x14, 1	; 20
     782:	a9 98       	cbi	0x15, 1	; 21
     784:	a2 9a       	sbi	0x14, 2	; 20
     786:	aa 9a       	sbi	0x15, 2	; 21
     788:	8f e3       	ldi	r24, 0x3F	; 63
     78a:	9c e9       	ldi	r25, 0x9C	; 156
     78c:	01 97       	sbiw	r24, 0x01	; 1
     78e:	f1 f7       	brne	.-4      	; 0x78c <__LOCK_REGION_LENGTH__+0x38c>
     790:	00 c0       	rjmp	.+0      	; 0x792 <__LOCK_REGION_LENGTH__+0x392>
     792:	00 00       	nop
     794:	0e 94 71 00 	call	0xe2	; 0xe2 <corret_bytes>
     798:	80 91 0e 01 	lds	r24, 0x010E	; 0x80010e <Mode>
     79c:	82 30       	cpi	r24, 0x02	; 2
     79e:	19 f4       	brne	.+6      	; 0x7a6 <__LOCK_REGION_LENGTH__+0x3a6>
     7a0:	0e 94 be 00 	call	0x17c	; 0x17c <from_EEPROM>
     7a4:	04 c0       	rjmp	.+8      	; 0x7ae <__LOCK_REGION_LENGTH__+0x3ae>
     7a6:	83 30       	cpi	r24, 0x03	; 3
     7a8:	11 f4       	brne	.+4      	; 0x7ae <__LOCK_REGION_LENGTH__+0x3ae>
     7aa:	0e 94 8d 00 	call	0x11a	; 0x11a <to_EEPROM>
     7ae:	a2 98       	cbi	0x14, 2	; 20
     7b0:	aa 98       	cbi	0x15, 2	; 21
     7b2:	a3 9a       	sbi	0x14, 3	; 20
     7b4:	ab 9a       	sbi	0x15, 3	; 21
     7b6:	8f e3       	ldi	r24, 0x3F	; 63
     7b8:	9c e9       	ldi	r25, 0x9C	; 156
     7ba:	01 97       	sbiw	r24, 0x01	; 1
     7bc:	f1 f7       	brne	.-4      	; 0x7ba <__LOCK_REGION_LENGTH__+0x3ba>
     7be:	00 c0       	rjmp	.+0      	; 0x7c0 <__LOCK_REGION_LENGTH__+0x3c0>
     7c0:	00 00       	nop
     7c2:	0e 94 71 00 	call	0xe2	; 0xe2 <corret_bytes>
     7c6:	80 91 0e 01 	lds	r24, 0x010E	; 0x80010e <Mode>
     7ca:	82 30       	cpi	r24, 0x02	; 2
     7cc:	19 f4       	brne	.+6      	; 0x7d4 <__LOCK_REGION_LENGTH__+0x3d4>
     7ce:	0e 94 be 00 	call	0x17c	; 0x17c <from_EEPROM>
     7d2:	04 c0       	rjmp	.+8      	; 0x7dc <__LOCK_REGION_LENGTH__+0x3dc>
     7d4:	83 30       	cpi	r24, 0x03	; 3
     7d6:	11 f4       	brne	.+4      	; 0x7dc <__LOCK_REGION_LENGTH__+0x3dc>
     7d8:	0e 94 8d 00 	call	0x11a	; 0x11a <to_EEPROM>
     7dc:	a3 98       	cbi	0x14, 3	; 20
     7de:	ab 98       	cbi	0x15, 3	; 21
     7e0:	a4 9a       	sbi	0x14, 4	; 20
     7e2:	ac 9a       	sbi	0x15, 4	; 21
     7e4:	8f e3       	ldi	r24, 0x3F	; 63
     7e6:	9c e9       	ldi	r25, 0x9C	; 156
     7e8:	01 97       	sbiw	r24, 0x01	; 1
     7ea:	f1 f7       	brne	.-4      	; 0x7e8 <__LOCK_REGION_LENGTH__+0x3e8>
     7ec:	00 c0       	rjmp	.+0      	; 0x7ee <__LOCK_REGION_LENGTH__+0x3ee>
     7ee:	00 00       	nop
     7f0:	0e 94 71 00 	call	0xe2	; 0xe2 <corret_bytes>
     7f4:	80 91 0e 01 	lds	r24, 0x010E	; 0x80010e <Mode>
     7f8:	82 30       	cpi	r24, 0x02	; 2
     7fa:	19 f4       	brne	.+6      	; 0x802 <__LOCK_REGION_LENGTH__+0x402>
     7fc:	0e 94 be 00 	call	0x17c	; 0x17c <from_EEPROM>
     800:	04 c0       	rjmp	.+8      	; 0x80a <__LOCK_REGION_LENGTH__+0x40a>
     802:	83 30       	cpi	r24, 0x03	; 3
     804:	11 f4       	brne	.+4      	; 0x80a <__LOCK_REGION_LENGTH__+0x40a>
     806:	0e 94 8d 00 	call	0x11a	; 0x11a <to_EEPROM>
     80a:	a4 98       	cbi	0x14, 4	; 20
     80c:	ac 98       	cbi	0x15, 4	; 21
     80e:	a5 9a       	sbi	0x14, 5	; 20
     810:	ad 9a       	sbi	0x15, 5	; 21
     812:	8f e3       	ldi	r24, 0x3F	; 63
     814:	9c e9       	ldi	r25, 0x9C	; 156
     816:	01 97       	sbiw	r24, 0x01	; 1
     818:	f1 f7       	brne	.-4      	; 0x816 <__LOCK_REGION_LENGTH__+0x416>
     81a:	00 c0       	rjmp	.+0      	; 0x81c <__LOCK_REGION_LENGTH__+0x41c>
     81c:	00 00       	nop
     81e:	0e 94 71 00 	call	0xe2	; 0xe2 <corret_bytes>
     822:	80 91 0e 01 	lds	r24, 0x010E	; 0x80010e <Mode>
     826:	82 30       	cpi	r24, 0x02	; 2
     828:	19 f4       	brne	.+6      	; 0x830 <__LOCK_REGION_LENGTH__+0x430>
     82a:	0e 94 be 00 	call	0x17c	; 0x17c <from_EEPROM>
     82e:	04 c0       	rjmp	.+8      	; 0x838 <__LOCK_REGION_LENGTH__+0x438>
     830:	83 30       	cpi	r24, 0x03	; 3
     832:	11 f4       	brne	.+4      	; 0x838 <__LOCK_REGION_LENGTH__+0x438>
     834:	0e 94 8d 00 	call	0x11a	; 0x11a <to_EEPROM>
     838:	a5 98       	cbi	0x14, 5	; 20
     83a:	ad 98       	cbi	0x15, 5	; 21
     83c:	a6 9a       	sbi	0x14, 6	; 20
     83e:	ae 9a       	sbi	0x15, 6	; 21
     840:	8f e3       	ldi	r24, 0x3F	; 63
     842:	9c e9       	ldi	r25, 0x9C	; 156
     844:	01 97       	sbiw	r24, 0x01	; 1
     846:	f1 f7       	brne	.-4      	; 0x844 <__LOCK_REGION_LENGTH__+0x444>
     848:	00 c0       	rjmp	.+0      	; 0x84a <__LOCK_REGION_LENGTH__+0x44a>
     84a:	00 00       	nop
     84c:	0e 94 71 00 	call	0xe2	; 0xe2 <corret_bytes>
     850:	80 91 0e 01 	lds	r24, 0x010E	; 0x80010e <Mode>
     854:	82 30       	cpi	r24, 0x02	; 2
     856:	19 f4       	brne	.+6      	; 0x85e <__LOCK_REGION_LENGTH__+0x45e>
     858:	0e 94 be 00 	call	0x17c	; 0x17c <from_EEPROM>
     85c:	04 c0       	rjmp	.+8      	; 0x866 <__LOCK_REGION_LENGTH__+0x466>
     85e:	83 30       	cpi	r24, 0x03	; 3
     860:	11 f4       	brne	.+4      	; 0x866 <__LOCK_REGION_LENGTH__+0x466>
     862:	0e 94 8d 00 	call	0x11a	; 0x11a <to_EEPROM>
     866:	a6 98       	cbi	0x14, 6	; 20
     868:	ae 98       	cbi	0x15, 6	; 21
     86a:	a7 9a       	sbi	0x14, 7	; 20
     86c:	af 9a       	sbi	0x15, 7	; 21
     86e:	8f e3       	ldi	r24, 0x3F	; 63
     870:	9c e9       	ldi	r25, 0x9C	; 156
     872:	01 97       	sbiw	r24, 0x01	; 1
     874:	f1 f7       	brne	.-4      	; 0x872 <__LOCK_REGION_LENGTH__+0x472>
     876:	00 c0       	rjmp	.+0      	; 0x878 <__LOCK_REGION_LENGTH__+0x478>
     878:	00 00       	nop
     87a:	0e 94 71 00 	call	0xe2	; 0xe2 <corret_bytes>
     87e:	80 91 0e 01 	lds	r24, 0x010E	; 0x80010e <Mode>
     882:	82 30       	cpi	r24, 0x02	; 2
     884:	19 f4       	brne	.+6      	; 0x88c <__LOCK_REGION_LENGTH__+0x48c>
     886:	0e 94 be 00 	call	0x17c	; 0x17c <from_EEPROM>
     88a:	04 c0       	rjmp	.+8      	; 0x894 <__LOCK_REGION_LENGTH__+0x494>
     88c:	83 30       	cpi	r24, 0x03	; 3
     88e:	11 f4       	brne	.+4      	; 0x894 <__LOCK_REGION_LENGTH__+0x494>
     890:	0e 94 8d 00 	call	0x11a	; 0x11a <to_EEPROM>
     894:	a7 98       	cbi	0x14, 7	; 20
     896:	af 98       	cbi	0x15, 7	; 21
     898:	d7 9a       	sbi	0x1a, 7	; 26
     89a:	df 9a       	sbi	0x1b, 7	; 27
     89c:	0e 94 8f 06 	call	0xd1e	; 0xd1e <Toogle_blue_LED>
     8a0:	8f e3       	ldi	r24, 0x3F	; 63
     8a2:	9c e9       	ldi	r25, 0x9C	; 156
     8a4:	01 97       	sbiw	r24, 0x01	; 1
     8a6:	f1 f7       	brne	.-4      	; 0x8a4 <__LOCK_REGION_LENGTH__+0x4a4>
     8a8:	00 c0       	rjmp	.+0      	; 0x8aa <__LOCK_REGION_LENGTH__+0x4aa>
     8aa:	00 00       	nop
     8ac:	0e 94 71 00 	call	0xe2	; 0xe2 <corret_bytes>
     8b0:	80 91 0e 01 	lds	r24, 0x010E	; 0x80010e <Mode>
     8b4:	82 30       	cpi	r24, 0x02	; 2
     8b6:	19 f4       	brne	.+6      	; 0x8be <__LOCK_REGION_LENGTH__+0x4be>
     8b8:	0e 94 be 00 	call	0x17c	; 0x17c <from_EEPROM>
     8bc:	04 c0       	rjmp	.+8      	; 0x8c6 <__LOCK_REGION_LENGTH__+0x4c6>
     8be:	83 30       	cpi	r24, 0x03	; 3
     8c0:	11 f4       	brne	.+4      	; 0x8c6 <__LOCK_REGION_LENGTH__+0x4c6>
     8c2:	0e 94 8d 00 	call	0x11a	; 0x11a <to_EEPROM>
     8c6:	d7 98       	cbi	0x1a, 7	; 26
     8c8:	df 98       	cbi	0x1b, 7	; 27
     8ca:	d6 9a       	sbi	0x1a, 6	; 26
     8cc:	de 9a       	sbi	0x1b, 6	; 27
     8ce:	8f e3       	ldi	r24, 0x3F	; 63
     8d0:	9c e9       	ldi	r25, 0x9C	; 156
     8d2:	01 97       	sbiw	r24, 0x01	; 1
     8d4:	f1 f7       	brne	.-4      	; 0x8d2 <__LOCK_REGION_LENGTH__+0x4d2>
     8d6:	00 c0       	rjmp	.+0      	; 0x8d8 <__LOCK_REGION_LENGTH__+0x4d8>
     8d8:	00 00       	nop
     8da:	0e 94 71 00 	call	0xe2	; 0xe2 <corret_bytes>
     8de:	80 91 0e 01 	lds	r24, 0x010E	; 0x80010e <Mode>
     8e2:	82 30       	cpi	r24, 0x02	; 2
     8e4:	19 f4       	brne	.+6      	; 0x8ec <__LOCK_REGION_LENGTH__+0x4ec>
     8e6:	0e 94 be 00 	call	0x17c	; 0x17c <from_EEPROM>
     8ea:	04 c0       	rjmp	.+8      	; 0x8f4 <__LOCK_REGION_LENGTH__+0x4f4>
     8ec:	83 30       	cpi	r24, 0x03	; 3
     8ee:	11 f4       	brne	.+4      	; 0x8f4 <__LOCK_REGION_LENGTH__+0x4f4>
     8f0:	0e 94 8d 00 	call	0x11a	; 0x11a <to_EEPROM>
     8f4:	d6 98       	cbi	0x1a, 6	; 26
     8f6:	de 98       	cbi	0x1b, 6	; 27
     8f8:	d5 9a       	sbi	0x1a, 5	; 26
     8fa:	dd 9a       	sbi	0x1b, 5	; 27
     8fc:	8f e3       	ldi	r24, 0x3F	; 63
     8fe:	9c e9       	ldi	r25, 0x9C	; 156
     900:	01 97       	sbiw	r24, 0x01	; 1
     902:	f1 f7       	brne	.-4      	; 0x900 <__LOCK_REGION_LENGTH__+0x500>
     904:	00 c0       	rjmp	.+0      	; 0x906 <__LOCK_REGION_LENGTH__+0x506>
     906:	00 00       	nop
     908:	0e 94 71 00 	call	0xe2	; 0xe2 <corret_bytes>
     90c:	80 91 0e 01 	lds	r24, 0x010E	; 0x80010e <Mode>
     910:	82 30       	cpi	r24, 0x02	; 2
     912:	19 f4       	brne	.+6      	; 0x91a <__LOCK_REGION_LENGTH__+0x51a>
     914:	0e 94 be 00 	call	0x17c	; 0x17c <from_EEPROM>
     918:	04 c0       	rjmp	.+8      	; 0x922 <__LOCK_REGION_LENGTH__+0x522>
     91a:	83 30       	cpi	r24, 0x03	; 3
     91c:	11 f4       	brne	.+4      	; 0x922 <__LOCK_REGION_LENGTH__+0x522>
     91e:	0e 94 8d 00 	call	0x11a	; 0x11a <to_EEPROM>
     922:	d5 98       	cbi	0x1a, 5	; 26
     924:	dd 98       	cbi	0x1b, 5	; 27
     926:	d4 9a       	sbi	0x1a, 4	; 26
     928:	dc 9a       	sbi	0x1b, 4	; 27
     92a:	8f e3       	ldi	r24, 0x3F	; 63
     92c:	9c e9       	ldi	r25, 0x9C	; 156
     92e:	01 97       	sbiw	r24, 0x01	; 1
     930:	f1 f7       	brne	.-4      	; 0x92e <__LOCK_REGION_LENGTH__+0x52e>
     932:	00 c0       	rjmp	.+0      	; 0x934 <__LOCK_REGION_LENGTH__+0x534>
     934:	00 00       	nop
     936:	0e 94 71 00 	call	0xe2	; 0xe2 <corret_bytes>
     93a:	80 91 0e 01 	lds	r24, 0x010E	; 0x80010e <Mode>
     93e:	82 30       	cpi	r24, 0x02	; 2
     940:	19 f4       	brne	.+6      	; 0x948 <__LOCK_REGION_LENGTH__+0x548>
     942:	0e 94 be 00 	call	0x17c	; 0x17c <from_EEPROM>
     946:	04 c0       	rjmp	.+8      	; 0x950 <__LOCK_REGION_LENGTH__+0x550>
     948:	83 30       	cpi	r24, 0x03	; 3
     94a:	11 f4       	brne	.+4      	; 0x950 <__LOCK_REGION_LENGTH__+0x550>
     94c:	0e 94 8d 00 	call	0x11a	; 0x11a <to_EEPROM>
     950:	d4 98       	cbi	0x1a, 4	; 26
     952:	dc 98       	cbi	0x1b, 4	; 27
     954:	d3 9a       	sbi	0x1a, 3	; 26
     956:	db 9a       	sbi	0x1b, 3	; 27
     958:	8f e3       	ldi	r24, 0x3F	; 63
     95a:	9c e9       	ldi	r25, 0x9C	; 156
     95c:	01 97       	sbiw	r24, 0x01	; 1
     95e:	f1 f7       	brne	.-4      	; 0x95c <__LOCK_REGION_LENGTH__+0x55c>
     960:	00 c0       	rjmp	.+0      	; 0x962 <__LOCK_REGION_LENGTH__+0x562>
     962:	00 00       	nop
     964:	0e 94 71 00 	call	0xe2	; 0xe2 <corret_bytes>
     968:	80 91 0e 01 	lds	r24, 0x010E	; 0x80010e <Mode>
     96c:	82 30       	cpi	r24, 0x02	; 2
     96e:	19 f4       	brne	.+6      	; 0x976 <__LOCK_REGION_LENGTH__+0x576>
     970:	0e 94 be 00 	call	0x17c	; 0x17c <from_EEPROM>
     974:	04 c0       	rjmp	.+8      	; 0x97e <__LOCK_REGION_LENGTH__+0x57e>
     976:	83 30       	cpi	r24, 0x03	; 3
     978:	11 f4       	brne	.+4      	; 0x97e <__LOCK_REGION_LENGTH__+0x57e>
     97a:	0e 94 8d 00 	call	0x11a	; 0x11a <to_EEPROM>
     97e:	d3 98       	cbi	0x1a, 3	; 26
     980:	db 98       	cbi	0x1b, 3	; 27
     982:	d2 9a       	sbi	0x1a, 2	; 26
     984:	da 9a       	sbi	0x1b, 2	; 27
     986:	8f e3       	ldi	r24, 0x3F	; 63
     988:	9c e9       	ldi	r25, 0x9C	; 156
     98a:	01 97       	sbiw	r24, 0x01	; 1
     98c:	f1 f7       	brne	.-4      	; 0x98a <__LOCK_REGION_LENGTH__+0x58a>
     98e:	00 c0       	rjmp	.+0      	; 0x990 <__LOCK_REGION_LENGTH__+0x590>
     990:	00 00       	nop
     992:	0e 94 71 00 	call	0xe2	; 0xe2 <corret_bytes>
     996:	80 91 0e 01 	lds	r24, 0x010E	; 0x80010e <Mode>
     99a:	82 30       	cpi	r24, 0x02	; 2
     99c:	19 f4       	brne	.+6      	; 0x9a4 <__LOCK_REGION_LENGTH__+0x5a4>
     99e:	0e 94 be 00 	call	0x17c	; 0x17c <from_EEPROM>
     9a2:	04 c0       	rjmp	.+8      	; 0x9ac <__LOCK_REGION_LENGTH__+0x5ac>
     9a4:	83 30       	cpi	r24, 0x03	; 3
     9a6:	11 f4       	brne	.+4      	; 0x9ac <__LOCK_REGION_LENGTH__+0x5ac>
     9a8:	0e 94 8d 00 	call	0x11a	; 0x11a <to_EEPROM>
     9ac:	d2 98       	cbi	0x1a, 2	; 26
     9ae:	da 98       	cbi	0x1b, 2	; 27
     9b0:	d1 9a       	sbi	0x1a, 1	; 26
     9b2:	d9 9a       	sbi	0x1b, 1	; 27
     9b4:	8f e3       	ldi	r24, 0x3F	; 63
     9b6:	9c e9       	ldi	r25, 0x9C	; 156
     9b8:	01 97       	sbiw	r24, 0x01	; 1
     9ba:	f1 f7       	brne	.-4      	; 0x9b8 <__LOCK_REGION_LENGTH__+0x5b8>
     9bc:	00 c0       	rjmp	.+0      	; 0x9be <__LOCK_REGION_LENGTH__+0x5be>
     9be:	00 00       	nop
     9c0:	0e 94 71 00 	call	0xe2	; 0xe2 <corret_bytes>
     9c4:	80 91 0e 01 	lds	r24, 0x010E	; 0x80010e <Mode>
     9c8:	82 30       	cpi	r24, 0x02	; 2
     9ca:	19 f4       	brne	.+6      	; 0x9d2 <__LOCK_REGION_LENGTH__+0x5d2>
     9cc:	0e 94 be 00 	call	0x17c	; 0x17c <from_EEPROM>
     9d0:	04 c0       	rjmp	.+8      	; 0x9da <__LOCK_REGION_LENGTH__+0x5da>
     9d2:	83 30       	cpi	r24, 0x03	; 3
     9d4:	11 f4       	brne	.+4      	; 0x9da <__LOCK_REGION_LENGTH__+0x5da>
     9d6:	0e 94 8d 00 	call	0x11a	; 0x11a <to_EEPROM>
     9da:	d1 98       	cbi	0x1a, 1	; 26
     9dc:	d9 98       	cbi	0x1b, 1	; 27
     9de:	d0 9a       	sbi	0x1a, 0	; 26
     9e0:	d8 9a       	sbi	0x1b, 0	; 27
     9e2:	8f e3       	ldi	r24, 0x3F	; 63
     9e4:	9c e9       	ldi	r25, 0x9C	; 156
     9e6:	01 97       	sbiw	r24, 0x01	; 1
     9e8:	f1 f7       	brne	.-4      	; 0x9e6 <__LOCK_REGION_LENGTH__+0x5e6>
     9ea:	00 c0       	rjmp	.+0      	; 0x9ec <__LOCK_REGION_LENGTH__+0x5ec>
     9ec:	00 00       	nop
     9ee:	0e 94 71 00 	call	0xe2	; 0xe2 <corret_bytes>
     9f2:	80 91 0e 01 	lds	r24, 0x010E	; 0x80010e <Mode>
     9f6:	82 30       	cpi	r24, 0x02	; 2
     9f8:	19 f4       	brne	.+6      	; 0xa00 <__LOCK_REGION_LENGTH__+0x600>
     9fa:	0e 94 be 00 	call	0x17c	; 0x17c <from_EEPROM>
     9fe:	04 c0       	rjmp	.+8      	; 0xa08 <__LOCK_REGION_LENGTH__+0x608>
     a00:	83 30       	cpi	r24, 0x03	; 3
     a02:	11 f4       	brne	.+4      	; 0xa08 <__LOCK_REGION_LENGTH__+0x608>
     a04:	0e 94 8d 00 	call	0x11a	; 0x11a <to_EEPROM>
     a08:	d0 98       	cbi	0x1a, 0	; 26
     a0a:	d8 98       	cbi	0x1b, 0	; 27
     a0c:	08 95       	ret

00000a0e <ToEepromFromPC>:
     a0e:	68 2f       	mov	r22, r24
     a10:	80 91 0f 01 	lds	r24, 0x010F	; 0x80010f <ToEepromFromPC_cell_addres>
     a14:	90 91 10 01 	lds	r25, 0x0110	; 0x800110 <ToEepromFromPC_cell_addres+0x1>
     a18:	0e 94 62 00 	call	0xc4	; 0xc4 <EEPROM_write>
     a1c:	80 91 0f 01 	lds	r24, 0x010F	; 0x80010f <ToEepromFromPC_cell_addres>
     a20:	90 91 10 01 	lds	r25, 0x0110	; 0x800110 <ToEepromFromPC_cell_addres+0x1>
     a24:	01 96       	adiw	r24, 0x01	; 1
     a26:	90 93 10 01 	sts	0x0110, r25	; 0x800110 <ToEepromFromPC_cell_addres+0x1>
     a2a:	80 93 0f 01 	sts	0x010F, r24	; 0x80010f <ToEepromFromPC_cell_addres>
     a2e:	20 91 0c 01 	lds	r18, 0x010C	; 0x80010c <cell_addres>
     a32:	30 91 0d 01 	lds	r19, 0x010D	; 0x80010d <cell_addres+0x1>
     a36:	82 1b       	sub	r24, r18
     a38:	93 0b       	sbc	r25, r19
     a3a:	84 3e       	cpi	r24, 0xE4	; 228
     a3c:	91 05       	cpc	r25, r1
     a3e:	51 f4       	brne	.+20     	; 0xa54 <ToEepromFromPC+0x46>
     a40:	82 e0       	ldi	r24, 0x02	; 2
     a42:	80 93 0e 01 	sts	0x010E, r24	; 0x80010e <Mode>
     a46:	80 91 65 00 	lds	r24, 0x0065	; 0x800065 <__TEXT_REGION_LENGTH__+0x7e0065>
     a4a:	8b 7f       	andi	r24, 0xFB	; 251
     a4c:	80 93 65 00 	sts	0x0065, r24	; 0x800065 <__TEXT_REGION_LENGTH__+0x7e0065>
     a50:	0c 94 4d 05 	jmp	0xa9a	; 0xa9a <Buttons_ints_ENABLE>
     a54:	1d bc       	out	0x2d, r1	; 45
     a56:	1c bc       	out	0x2c, r1	; 44
     a58:	0e 94 8f 06 	call	0xd1e	; 0xd1e <Toogle_blue_LED>
     a5c:	5d 9b       	sbis	0x0b, 5	; 11
     a5e:	fe cf       	rjmp	.-4      	; 0xa5c <ToEepromFromPC+0x4e>
     a60:	82 e7       	ldi	r24, 0x72	; 114
     a62:	8c b9       	out	0x0c, r24	; 12
     a64:	5d 9b       	sbis	0x0b, 5	; 11
     a66:	fe cf       	rjmp	.-4      	; 0xa64 <ToEepromFromPC+0x56>
     a68:	8e e6       	ldi	r24, 0x6E	; 110
     a6a:	8c b9       	out	0x0c, r24	; 12
     a6c:	5d 9b       	sbis	0x0b, 5	; 11
     a6e:	fe cf       	rjmp	.-4      	; 0xa6c <ToEepromFromPC+0x5e>
     a70:	8a e0       	ldi	r24, 0x0A	; 10
     a72:	8c b9       	out	0x0c, r24	; 12
     a74:	08 95       	ret

00000a76 <Buttons_int_init>:
     a76:	91 9a       	sbi	0x12, 1	; 18
     a78:	92 9a       	sbi	0x12, 2	; 18
     a7a:	ea e6       	ldi	r30, 0x6A	; 106
     a7c:	f0 e0       	ldi	r31, 0x00	; 0
     a7e:	80 81       	ld	r24, Z
     a80:	82 60       	ori	r24, 0x02	; 2
     a82:	80 83       	st	Z, r24
     a84:	89 b7       	in	r24, 0x39	; 57
     a86:	86 60       	ori	r24, 0x06	; 6
     a88:	89 bf       	out	0x39, r24	; 57
     a8a:	08 95       	ret

00000a8c <Buttons_ints_DISABLE>:
     a8c:	89 b7       	in	r24, 0x39	; 57
     a8e:	8d 7f       	andi	r24, 0xFD	; 253
     a90:	89 bf       	out	0x39, r24	; 57
     a92:	89 b7       	in	r24, 0x39	; 57
     a94:	8b 7f       	andi	r24, 0xFB	; 251
     a96:	89 bf       	out	0x39, r24	; 57
     a98:	08 95       	ret

00000a9a <Buttons_ints_ENABLE>:
     a9a:	88 b7       	in	r24, 0x38	; 56
     a9c:	86 60       	ori	r24, 0x06	; 6
     a9e:	88 bf       	out	0x38, r24	; 56
     aa0:	89 b7       	in	r24, 0x39	; 57
     aa2:	86 60       	ori	r24, 0x06	; 6
     aa4:	89 bf       	out	0x39, r24	; 57
     aa6:	08 95       	ret

00000aa8 <__vector_2>:
     aa8:	1f 92       	push	r1
     aaa:	0f 92       	push	r0
     aac:	0f b6       	in	r0, 0x3f	; 63
     aae:	0f 92       	push	r0
     ab0:	11 24       	eor	r1, r1
     ab2:	2f 93       	push	r18
     ab4:	3f 93       	push	r19
     ab6:	4f 93       	push	r20
     ab8:	5f 93       	push	r21
     aba:	6f 93       	push	r22
     abc:	7f 93       	push	r23
     abe:	8f 93       	push	r24
     ac0:	9f 93       	push	r25
     ac2:	af 93       	push	r26
     ac4:	bf 93       	push	r27
     ac6:	ef 93       	push	r30
     ac8:	ff 93       	push	r31
     aca:	80 91 65 00 	lds	r24, 0x0065	; 0x800065 <__TEXT_REGION_LENGTH__+0x7e0065>
     ace:	8f 7e       	andi	r24, 0xEF	; 239
     ad0:	80 93 65 00 	sts	0x0065, r24	; 0x800065 <__TEXT_REGION_LENGTH__+0x7e0065>
     ad4:	80 91 65 00 	lds	r24, 0x0065	; 0x800065 <__TEXT_REGION_LENGTH__+0x7e0065>
     ad8:	87 7f       	andi	r24, 0xF7	; 247
     ada:	80 93 65 00 	sts	0x0065, r24	; 0x800065 <__TEXT_REGION_LENGTH__+0x7e0065>
     ade:	80 91 0e 01 	lds	r24, 0x010E	; 0x80010e <Mode>
     ae2:	82 30       	cpi	r24, 0x02	; 2
     ae4:	c9 f0       	breq	.+50     	; 0xb18 <__vector_2+0x70>
     ae6:	83 30       	cpi	r24, 0x03	; 3
     ae8:	29 f0       	breq	.+10     	; 0xaf4 <__vector_2+0x4c>
     aea:	81 30       	cpi	r24, 0x01	; 1
     aec:	b9 f4       	brne	.+46     	; 0xb1c <__vector_2+0x74>
     aee:	0e 94 d3 08 	call	0x11a6	; 0x11a6 <Scan_USART_Transmit>
     af2:	14 c0       	rjmp	.+40     	; 0xb1c <__vector_2+0x74>
     af4:	8a e0       	ldi	r24, 0x0A	; 10
     af6:	81 9b       	sbis	0x10, 1	; 16
     af8:	03 c0       	rjmp	.+6      	; 0xb00 <__vector_2+0x58>
     afa:	81 99       	sbic	0x10, 1	; 16
     afc:	0f c0       	rjmp	.+30     	; 0xb1c <__vector_2+0x74>
     afe:	0c c0       	rjmp	.+24     	; 0xb18 <__vector_2+0x70>
     b00:	2f ef       	ldi	r18, 0xFF	; 255
     b02:	31 ee       	ldi	r19, 0xE1	; 225
     b04:	94 e0       	ldi	r25, 0x04	; 4
     b06:	21 50       	subi	r18, 0x01	; 1
     b08:	30 40       	sbci	r19, 0x00	; 0
     b0a:	90 40       	sbci	r25, 0x00	; 0
     b0c:	e1 f7       	brne	.-8      	; 0xb06 <__vector_2+0x5e>
     b0e:	00 c0       	rjmp	.+0      	; 0xb10 <__vector_2+0x68>
     b10:	00 00       	nop
     b12:	81 50       	subi	r24, 0x01	; 1
     b14:	81 f7       	brne	.-32     	; 0xaf6 <__vector_2+0x4e>
     b16:	f1 cf       	rjmp	.-30     	; 0xafa <__vector_2+0x52>
     b18:	0e 94 46 01 	call	0x28c	; 0x28c <Scan_and_write_read_EEPROM>
     b1c:	ff 91       	pop	r31
     b1e:	ef 91       	pop	r30
     b20:	bf 91       	pop	r27
     b22:	af 91       	pop	r26
     b24:	9f 91       	pop	r25
     b26:	8f 91       	pop	r24
     b28:	7f 91       	pop	r23
     b2a:	6f 91       	pop	r22
     b2c:	5f 91       	pop	r21
     b2e:	4f 91       	pop	r20
     b30:	3f 91       	pop	r19
     b32:	2f 91       	pop	r18
     b34:	0f 90       	pop	r0
     b36:	0f be       	out	0x3f, r0	; 63
     b38:	0f 90       	pop	r0
     b3a:	1f 90       	pop	r1
     b3c:	18 95       	reti

00000b3e <__vector_3>:
     b3e:	1f 92       	push	r1
     b40:	0f 92       	push	r0
     b42:	0f b6       	in	r0, 0x3f	; 63
     b44:	0f 92       	push	r0
     b46:	11 24       	eor	r1, r1
     b48:	2f 93       	push	r18
     b4a:	3f 93       	push	r19
     b4c:	4f 93       	push	r20
     b4e:	5f 93       	push	r21
     b50:	6f 93       	push	r22
     b52:	7f 93       	push	r23
     b54:	8f 93       	push	r24
     b56:	9f 93       	push	r25
     b58:	af 93       	push	r26
     b5a:	bf 93       	push	r27
     b5c:	ef 93       	push	r30
     b5e:	ff 93       	push	r31
     b60:	e5 e6       	ldi	r30, 0x65	; 101
     b62:	f0 e0       	ldi	r31, 0x00	; 0
     b64:	80 81       	ld	r24, Z
     b66:	8f 7e       	andi	r24, 0xEF	; 239
     b68:	80 83       	st	Z, r24
     b6a:	80 81       	ld	r24, Z
     b6c:	87 7f       	andi	r24, 0xF7	; 247
     b6e:	80 83       	st	Z, r24
     b70:	8a e0       	ldi	r24, 0x0A	; 10
     b72:	0e 94 bc 06 	call	0xd78	; 0xd78 <LED_INDICATOR_CELL_ADDRES>
     b76:	ff 91       	pop	r31
     b78:	ef 91       	pop	r30
     b7a:	bf 91       	pop	r27
     b7c:	af 91       	pop	r26
     b7e:	9f 91       	pop	r25
     b80:	8f 91       	pop	r24
     b82:	7f 91       	pop	r23
     b84:	6f 91       	pop	r22
     b86:	5f 91       	pop	r21
     b88:	4f 91       	pop	r20
     b8a:	3f 91       	pop	r19
     b8c:	2f 91       	pop	r18
     b8e:	0f 90       	pop	r0
     b90:	0f be       	out	0x3f, r0	; 63
     b92:	0f 90       	pop	r0
     b94:	1f 90       	pop	r1
     b96:	18 95       	reti

00000b98 <__vector_18>:
     b98:	1f 92       	push	r1
     b9a:	0f 92       	push	r0
     b9c:	0f b6       	in	r0, 0x3f	; 63
     b9e:	0f 92       	push	r0
     ba0:	11 24       	eor	r1, r1
     ba2:	2f 93       	push	r18
     ba4:	3f 93       	push	r19
     ba6:	4f 93       	push	r20
     ba8:	5f 93       	push	r21
     baa:	6f 93       	push	r22
     bac:	7f 93       	push	r23
     bae:	8f 93       	push	r24
     bb0:	9f 93       	push	r25
     bb2:	af 93       	push	r26
     bb4:	bf 93       	push	r27
     bb6:	ef 93       	push	r30
     bb8:	ff 93       	push	r31
     bba:	80 91 0e 01 	lds	r24, 0x010E	; 0x80010e <Mode>
     bbe:	84 30       	cpi	r24, 0x04	; 4
     bc0:	29 f4       	brne	.+10     	; 0xbcc <__vector_18+0x34>
     bc2:	0e 94 28 16 	call	0x2c50	; 0x2c50 <USART_Receive>
     bc6:	0e 94 07 05 	call	0xa0e	; 0xa0e <ToEepromFromPC>
     bca:	06 c0       	rjmp	.+12     	; 0xbd8 <__vector_18+0x40>
     bcc:	0e 94 28 16 	call	0x2c50	; 0x2c50 <USART_Receive>
     bd0:	0e 94 49 16 	call	0x2c92	; 0x2c92 <Processing_RecivedByte>
     bd4:	0e 94 2c 16 	call	0x2c58	; 0x2c58 <USART_Flush>
     bd8:	ff 91       	pop	r31
     bda:	ef 91       	pop	r30
     bdc:	bf 91       	pop	r27
     bde:	af 91       	pop	r26
     be0:	9f 91       	pop	r25
     be2:	8f 91       	pop	r24
     be4:	7f 91       	pop	r23
     be6:	6f 91       	pop	r22
     be8:	5f 91       	pop	r21
     bea:	4f 91       	pop	r20
     bec:	3f 91       	pop	r19
     bee:	2f 91       	pop	r18
     bf0:	0f 90       	pop	r0
     bf2:	0f be       	out	0x3f, r0	; 63
     bf4:	0f 90       	pop	r0
     bf6:	1f 90       	pop	r1
     bf8:	18 95       	reti

00000bfa <__vector_14>:
     bfa:	1f 92       	push	r1
     bfc:	0f 92       	push	r0
     bfe:	0f b6       	in	r0, 0x3f	; 63
     c00:	0f 92       	push	r0
     c02:	11 24       	eor	r1, r1
     c04:	2f 93       	push	r18
     c06:	3f 93       	push	r19
     c08:	4f 93       	push	r20
     c0a:	5f 93       	push	r21
     c0c:	6f 93       	push	r22
     c0e:	7f 93       	push	r23
     c10:	8f 93       	push	r24
     c12:	9f 93       	push	r25
     c14:	af 93       	push	r26
     c16:	bf 93       	push	r27
     c18:	ef 93       	push	r30
     c1a:	ff 93       	push	r31
     c1c:	80 91 08 01 	lds	r24, 0x0108	; 0x800108 <count.1840>
     c20:	8f 5f       	subi	r24, 0xFF	; 255
     c22:	80 93 08 01 	sts	0x0108, r24	; 0x800108 <count.1840>
     c26:	83 30       	cpi	r24, 0x03	; 3
     c28:	91 f4       	brne	.+36     	; 0xc4e <__vector_14+0x54>
     c2a:	81 e0       	ldi	r24, 0x01	; 1
     c2c:	80 93 0e 01 	sts	0x010E, r24	; 0x80010e <Mode>
     c30:	80 91 65 00 	lds	r24, 0x0065	; 0x800065 <__TEXT_REGION_LENGTH__+0x7e0065>
     c34:	8b 7f       	andi	r24, 0xFB	; 251
     c36:	80 93 65 00 	sts	0x0065, r24	; 0x800065 <__TEXT_REGION_LENGTH__+0x7e0065>
     c3a:	0e 94 86 16 	call	0x2d0c	; 0x2d0c <UART_RX_int_ENABLE>
     c3e:	0e 94 1a 16 	call	0x2c34	; 0x2c34 <Timer_1_int_DISABLE>
     c42:	0e 94 4d 05 	call	0xa9a	; 0xa9a <Buttons_ints_ENABLE>
     c46:	0e 94 a1 06 	call	0xd42	; 0xd42 <Led_Indicator_OFF>
     c4a:	10 92 08 01 	sts	0x0108, r1	; 0x800108 <count.1840>
     c4e:	ff 91       	pop	r31
     c50:	ef 91       	pop	r30
     c52:	bf 91       	pop	r27
     c54:	af 91       	pop	r26
     c56:	9f 91       	pop	r25
     c58:	8f 91       	pop	r24
     c5a:	7f 91       	pop	r23
     c5c:	6f 91       	pop	r22
     c5e:	5f 91       	pop	r21
     c60:	4f 91       	pop	r20
     c62:	3f 91       	pop	r19
     c64:	2f 91       	pop	r18
     c66:	0f 90       	pop	r0
     c68:	0f be       	out	0x3f, r0	; 63
     c6a:	0f 90       	pop	r0
     c6c:	1f 90       	pop	r1
     c6e:	18 95       	reti

00000c70 <main>:
     c70:	0e 94 4b 06 	call	0xc96	; 0xc96 <LEDs_init>
     c74:	0e 94 57 06 	call	0xcae	; 0xcae <LED_INDICATOR_init>
     c78:	0e 94 66 06 	call	0xccc	; 0xccc <LED_INDICATOR_reset>
     c7c:	0e 94 a1 06 	call	0xd42	; 0xd42 <Led_Indicator_OFF>
     c80:	0e 94 3b 05 	call	0xa76	; 0xa76 <Buttons_int_init>
     c84:	89 e1       	ldi	r24, 0x19	; 25
     c86:	90 e0       	ldi	r25, 0x00	; 0
     c88:	0e 94 1f 16 	call	0x2c3e	; 0x2c3e <USART_Init>
     c8c:	81 e0       	ldi	r24, 0x01	; 1
     c8e:	80 93 0e 01 	sts	0x010E, r24	; 0x80010e <Mode>
     c92:	78 94       	sei
     c94:	ff cf       	rjmp	.-2      	; 0xc94 <main+0x24>

00000c96 <LEDs_init>:
     c96:	e4 e6       	ldi	r30, 0x64	; 100
     c98:	f0 e0       	ldi	r31, 0x00	; 0
     c9a:	80 81       	ld	r24, Z
     c9c:	84 60       	ori	r24, 0x04	; 4
     c9e:	80 83       	st	Z, r24
     ca0:	80 81       	ld	r24, Z
     ca2:	88 60       	ori	r24, 0x08	; 8
     ca4:	80 83       	st	Z, r24
     ca6:	80 81       	ld	r24, Z
     ca8:	80 61       	ori	r24, 0x10	; 16
     caa:	80 83       	st	Z, r24
     cac:	08 95       	ret

00000cae <LED_INDICATOR_init>:
     cae:	8b 9a       	sbi	0x11, 3	; 17
     cb0:	e4 e6       	ldi	r30, 0x64	; 100
     cb2:	f0 e0       	ldi	r31, 0x00	; 0
     cb4:	80 81       	ld	r24, Z
     cb6:	82 60       	ori	r24, 0x02	; 2
     cb8:	80 83       	st	Z, r24
     cba:	80 81       	ld	r24, Z
     cbc:	81 60       	ori	r24, 0x01	; 1
     cbe:	80 83       	st	Z, r24
     cc0:	e5 e6       	ldi	r30, 0x65	; 101
     cc2:	f0 e0       	ldi	r31, 0x00	; 0
     cc4:	80 81       	ld	r24, Z
     cc6:	8e 7f       	andi	r24, 0xFE	; 254
     cc8:	80 83       	st	Z, r24
     cca:	08 95       	ret

00000ccc <LED_INDICATOR_reset>:
     ccc:	e5 e6       	ldi	r30, 0x65	; 101
     cce:	f0 e0       	ldi	r31, 0x00	; 0
     cd0:	80 81       	ld	r24, Z
     cd2:	81 60       	ori	r24, 0x01	; 1
     cd4:	80 83       	st	Z, r24
     cd6:	80 81       	ld	r24, Z
     cd8:	8e 7f       	andi	r24, 0xFE	; 254
     cda:	80 83       	st	Z, r24
     cdc:	08 95       	ret

00000cde <Blink_blueLED>:
     cde:	83 e0       	ldi	r24, 0x03	; 3
     ce0:	90 91 65 00 	lds	r25, 0x0065	; 0x800065 <__TEXT_REGION_LENGTH__+0x7e0065>
     ce4:	94 60       	ori	r25, 0x04	; 4
     ce6:	90 93 65 00 	sts	0x0065, r25	; 0x800065 <__TEXT_REGION_LENGTH__+0x7e0065>
     cea:	2f ef       	ldi	r18, 0xFF	; 255
     cec:	30 e7       	ldi	r19, 0x70	; 112
     cee:	92 e0       	ldi	r25, 0x02	; 2
     cf0:	21 50       	subi	r18, 0x01	; 1
     cf2:	30 40       	sbci	r19, 0x00	; 0
     cf4:	90 40       	sbci	r25, 0x00	; 0
     cf6:	e1 f7       	brne	.-8      	; 0xcf0 <Blink_blueLED+0x12>
     cf8:	00 c0       	rjmp	.+0      	; 0xcfa <Blink_blueLED+0x1c>
     cfa:	00 00       	nop
     cfc:	90 91 65 00 	lds	r25, 0x0065	; 0x800065 <__TEXT_REGION_LENGTH__+0x7e0065>
     d00:	9b 7f       	andi	r25, 0xFB	; 251
     d02:	90 93 65 00 	sts	0x0065, r25	; 0x800065 <__TEXT_REGION_LENGTH__+0x7e0065>
     d06:	2f ef       	ldi	r18, 0xFF	; 255
     d08:	30 e7       	ldi	r19, 0x70	; 112
     d0a:	92 e0       	ldi	r25, 0x02	; 2
     d0c:	21 50       	subi	r18, 0x01	; 1
     d0e:	30 40       	sbci	r19, 0x00	; 0
     d10:	90 40       	sbci	r25, 0x00	; 0
     d12:	e1 f7       	brne	.-8      	; 0xd0c <Blink_blueLED+0x2e>
     d14:	00 c0       	rjmp	.+0      	; 0xd16 <Blink_blueLED+0x38>
     d16:	00 00       	nop
     d18:	81 50       	subi	r24, 0x01	; 1
     d1a:	11 f7       	brne	.-60     	; 0xce0 <Blink_blueLED+0x2>
     d1c:	08 95       	ret

00000d1e <Toogle_blue_LED>:
     d1e:	80 91 63 00 	lds	r24, 0x0063	; 0x800063 <__TEXT_REGION_LENGTH__+0x7e0063>
     d22:	82 ff       	sbrs	r24, 2
     d24:	04 c0       	rjmp	.+8      	; 0xd2e <Toogle_blue_LED+0x10>
     d26:	80 91 65 00 	lds	r24, 0x0065	; 0x800065 <__TEXT_REGION_LENGTH__+0x7e0065>
     d2a:	8b 7f       	andi	r24, 0xFB	; 251
     d2c:	07 c0       	rjmp	.+14     	; 0xd3c <Toogle_blue_LED+0x1e>
     d2e:	80 91 63 00 	lds	r24, 0x0063	; 0x800063 <__TEXT_REGION_LENGTH__+0x7e0063>
     d32:	82 fd       	sbrc	r24, 2
     d34:	05 c0       	rjmp	.+10     	; 0xd40 <Toogle_blue_LED+0x22>
     d36:	80 91 65 00 	lds	r24, 0x0065	; 0x800065 <__TEXT_REGION_LENGTH__+0x7e0065>
     d3a:	84 60       	ori	r24, 0x04	; 4
     d3c:	80 93 65 00 	sts	0x0065, r24	; 0x800065 <__TEXT_REGION_LENGTH__+0x7e0065>
     d40:	08 95       	ret

00000d42 <Led_Indicator_OFF>:
     d42:	93 98       	cbi	0x12, 3	; 18
     d44:	e4 e6       	ldi	r30, 0x64	; 100
     d46:	f0 e0       	ldi	r31, 0x00	; 0
     d48:	80 81       	ld	r24, Z
     d4a:	8d 7f       	andi	r24, 0xFD	; 253
     d4c:	80 83       	st	Z, r24
     d4e:	80 81       	ld	r24, Z
     d50:	8e 7f       	andi	r24, 0xFE	; 254
     d52:	80 83       	st	Z, r24
     d54:	e5 e6       	ldi	r30, 0x65	; 101
     d56:	f0 e0       	ldi	r31, 0x00	; 0
     d58:	80 81       	ld	r24, Z
     d5a:	82 60       	ori	r24, 0x02	; 2
     d5c:	80 83       	st	Z, r24
     d5e:	80 81       	ld	r24, Z
     d60:	81 60       	ori	r24, 0x01	; 1
     d62:	80 83       	st	Z, r24
     d64:	08 95       	ret

00000d66 <Led_Indicator_ON>:
     d66:	0e 94 57 06 	call	0xcae	; 0xcae <LED_INDICATOR_init>
     d6a:	e5 e6       	ldi	r30, 0x65	; 101
     d6c:	f0 e0       	ldi	r31, 0x00	; 0
     d6e:	80 81       	ld	r24, Z
     d70:	8d 7f       	andi	r24, 0xFD	; 253
     d72:	80 83       	st	Z, r24
     d74:	93 9a       	sbi	0x12, 3	; 18
     d76:	08 95       	ret

00000d78 <LED_INDICATOR_CELL_ADDRES>:
     d78:	cf 93       	push	r28
     d7a:	c8 2f       	mov	r28, r24
     d7c:	83 99       	sbic	0x10, 3	; 16
     d7e:	0c c0       	rjmp	.+24     	; 0xd98 <LED_INDICATOR_CELL_ADDRES+0x20>
     d80:	80 91 0e 01 	lds	r24, 0x010E	; 0x80010e <Mode>
     d84:	81 30       	cpi	r24, 0x01	; 1
     d86:	19 f4       	brne	.+6      	; 0xd8e <LED_INDICATOR_CELL_ADDRES+0x16>
     d88:	82 e0       	ldi	r24, 0x02	; 2
     d8a:	80 93 0e 01 	sts	0x010E, r24	; 0x80010e <Mode>
     d8e:	0e 94 b3 06 	call	0xd66	; 0xd66 <Led_Indicator_ON>
     d92:	8f ef       	ldi	r24, 0xFF	; 255
     d94:	80 93 09 01 	sts	0x0109, r24	; 0x800109 <cell.1813>
     d98:	90 91 0e 01 	lds	r25, 0x010E	; 0x80010e <Mode>
     d9c:	ca 30       	cpi	r28, 0x0A	; 10
     d9e:	09 f5       	brne	.+66     	; 0xde2 <LED_INDICATOR_CELL_ADDRES+0x6a>
     da0:	80 91 09 01 	lds	r24, 0x0109	; 0x800109 <cell.1813>
     da4:	8f 5f       	subi	r24, 0xFF	; 255
     da6:	80 93 09 01 	sts	0x0109, r24	; 0x800109 <cell.1813>
     daa:	91 30       	cpi	r25, 0x01	; 1
     dac:	19 f4       	brne	.+6      	; 0xdb4 <LED_INDICATOR_CELL_ADDRES+0x3c>
     dae:	92 e0       	ldi	r25, 0x02	; 2
     db0:	90 93 0e 01 	sts	0x010E, r25	; 0x80010e <Mode>
     db4:	88 30       	cpi	r24, 0x08	; 8
     db6:	e1 f4       	brne	.+56     	; 0xdf0 <LED_INDICATOR_CELL_ADDRES+0x78>
     db8:	10 92 09 01 	sts	0x0109, r1	; 0x800109 <cell.1813>
     dbc:	80 91 0e 01 	lds	r24, 0x010E	; 0x80010e <Mode>
     dc0:	82 30       	cpi	r24, 0x02	; 2
     dc2:	11 f5       	brne	.+68     	; 0xe08 <LED_INDICATOR_CELL_ADDRES+0x90>
     dc4:	81 e0       	ldi	r24, 0x01	; 1
     dc6:	80 93 0e 01 	sts	0x010E, r24	; 0x80010e <Mode>
     dca:	0e 94 a1 06 	call	0xd42	; 0xd42 <Led_Indicator_OFF>
     dce:	2f ef       	ldi	r18, 0xFF	; 255
     dd0:	84 e3       	ldi	r24, 0x34	; 52
     dd2:	9c e0       	ldi	r25, 0x0C	; 12
     dd4:	21 50       	subi	r18, 0x01	; 1
     dd6:	80 40       	sbci	r24, 0x00	; 0
     dd8:	90 40       	sbci	r25, 0x00	; 0
     dda:	e1 f7       	brne	.-8      	; 0xdd4 <LED_INDICATOR_CELL_ADDRES+0x5c>
     ddc:	00 c0       	rjmp	.+0      	; 0xdde <LED_INDICATOR_CELL_ADDRES+0x66>
     dde:	00 00       	nop
     de0:	07 c0       	rjmp	.+14     	; 0xdf0 <LED_INDICATOR_CELL_ADDRES+0x78>
     de2:	91 30       	cpi	r25, 0x01	; 1
     de4:	19 f4       	brne	.+6      	; 0xdec <LED_INDICATOR_CELL_ADDRES+0x74>
     de6:	82 e0       	ldi	r24, 0x02	; 2
     de8:	80 93 0e 01 	sts	0x010E, r24	; 0x80010e <Mode>
     dec:	c0 93 09 01 	sts	0x0109, r28	; 0x800109 <cell.1813>
     df0:	c0 91 09 01 	lds	r28, 0x0109	; 0x800109 <cell.1813>
     df4:	8c 2f       	mov	r24, r28
     df6:	90 e0       	ldi	r25, 0x00	; 0
     df8:	88 30       	cpi	r24, 0x08	; 8
     dfa:	91 05       	cpc	r25, r1
     dfc:	18 f5       	brcc	.+70     	; 0xe44 <LED_INDICATOR_CELL_ADDRES+0xcc>
     dfe:	fc 01       	movw	r30, r24
     e00:	ea 5b       	subi	r30, 0xBA	; 186
     e02:	ff 4f       	sbci	r31, 0xFF	; 255
     e04:	0c 94 8a 16 	jmp	0x2d14	; 0x2d14 <__tablejump2__>
     e08:	c0 e0       	ldi	r28, 0x00	; 0
     e0a:	10 92 0d 01 	sts	0x010D, r1	; 0x80010d <cell_addres+0x1>
     e0e:	10 92 0c 01 	sts	0x010C, r1	; 0x80010c <cell_addres>
     e12:	18 c0       	rjmp	.+48     	; 0xe44 <LED_INDICATOR_CELL_ADDRES+0xcc>
     e14:	84 ee       	ldi	r24, 0xE4	; 228
     e16:	90 e0       	ldi	r25, 0x00	; 0
     e18:	11 c0       	rjmp	.+34     	; 0xe3c <LED_INDICATOR_CELL_ADDRES+0xc4>
     e1a:	88 ec       	ldi	r24, 0xC8	; 200
     e1c:	91 e0       	ldi	r25, 0x01	; 1
     e1e:	0e c0       	rjmp	.+28     	; 0xe3c <LED_INDICATOR_CELL_ADDRES+0xc4>
     e20:	8c ea       	ldi	r24, 0xAC	; 172
     e22:	92 e0       	ldi	r25, 0x02	; 2
     e24:	0b c0       	rjmp	.+22     	; 0xe3c <LED_INDICATOR_CELL_ADDRES+0xc4>
     e26:	80 e9       	ldi	r24, 0x90	; 144
     e28:	93 e0       	ldi	r25, 0x03	; 3
     e2a:	08 c0       	rjmp	.+16     	; 0xe3c <LED_INDICATOR_CELL_ADDRES+0xc4>
     e2c:	84 e7       	ldi	r24, 0x74	; 116
     e2e:	94 e0       	ldi	r25, 0x04	; 4
     e30:	05 c0       	rjmp	.+10     	; 0xe3c <LED_INDICATOR_CELL_ADDRES+0xc4>
     e32:	88 e5       	ldi	r24, 0x58	; 88
     e34:	95 e0       	ldi	r25, 0x05	; 5
     e36:	02 c0       	rjmp	.+4      	; 0xe3c <LED_INDICATOR_CELL_ADDRES+0xc4>
     e38:	8c e3       	ldi	r24, 0x3C	; 60
     e3a:	96 e0       	ldi	r25, 0x06	; 6
     e3c:	90 93 0d 01 	sts	0x010D, r25	; 0x80010d <cell_addres+0x1>
     e40:	80 93 0c 01 	sts	0x010C, r24	; 0x80010c <cell_addres>
     e44:	0e 94 66 06 	call	0xccc	; 0xccc <LED_INDICATOR_reset>
     e48:	cf 5f       	subi	r28, 0xFF	; 255
     e4a:	cc 23       	and	r28, r28
     e4c:	61 f0       	breq	.+24     	; 0xe66 <LED_INDICATOR_CELL_ADDRES+0xee>
     e4e:	80 91 65 00 	lds	r24, 0x0065	; 0x800065 <__TEXT_REGION_LENGTH__+0x7e0065>
     e52:	82 60       	ori	r24, 0x02	; 2
     e54:	80 93 65 00 	sts	0x0065, r24	; 0x800065 <__TEXT_REGION_LENGTH__+0x7e0065>
     e58:	80 91 65 00 	lds	r24, 0x0065	; 0x800065 <__TEXT_REGION_LENGTH__+0x7e0065>
     e5c:	8d 7f       	andi	r24, 0xFD	; 253
     e5e:	80 93 65 00 	sts	0x0065, r24	; 0x800065 <__TEXT_REGION_LENGTH__+0x7e0065>
     e62:	c1 50       	subi	r28, 0x01	; 1
     e64:	f2 cf       	rjmp	.-28     	; 0xe4a <LED_INDICATOR_CELL_ADDRES+0xd2>
     e66:	2f ef       	ldi	r18, 0xFF	; 255
     e68:	82 e5       	ldi	r24, 0x52	; 82
     e6a:	97 e0       	ldi	r25, 0x07	; 7
     e6c:	21 50       	subi	r18, 0x01	; 1
     e6e:	80 40       	sbci	r24, 0x00	; 0
     e70:	90 40       	sbci	r25, 0x00	; 0
     e72:	e1 f7       	brne	.-8      	; 0xe6c <LED_INDICATOR_CELL_ADDRES+0xf4>
     e74:	00 c0       	rjmp	.+0      	; 0xe76 <LED_INDICATOR_CELL_ADDRES+0xfe>
     e76:	00 00       	nop
     e78:	81 99       	sbic	0x10, 1	; 16
     e7a:	39 c0       	rjmp	.+114    	; 0xeee <LED_INDICATOR_CELL_ADDRES+0x176>
     e7c:	2f ef       	ldi	r18, 0xFF	; 255
     e7e:	89 e6       	ldi	r24, 0x69	; 105
     e80:	98 e1       	ldi	r25, 0x18	; 24
     e82:	21 50       	subi	r18, 0x01	; 1
     e84:	80 40       	sbci	r24, 0x00	; 0
     e86:	90 40       	sbci	r25, 0x00	; 0
     e88:	e1 f7       	brne	.-8      	; 0xe82 <LED_INDICATOR_CELL_ADDRES+0x10a>
     e8a:	00 c0       	rjmp	.+0      	; 0xe8c <LED_INDICATOR_CELL_ADDRES+0x114>
     e8c:	00 00       	nop
     e8e:	81 99       	sbic	0x10, 1	; 16
     e90:	21 c0       	rjmp	.+66     	; 0xed4 <LED_INDICATOR_CELL_ADDRES+0x15c>
     e92:	80 91 0e 01 	lds	r24, 0x010E	; 0x80010e <Mode>
     e96:	82 30       	cpi	r24, 0x02	; 2
     e98:	79 f4       	brne	.+30     	; 0xeb8 <LED_INDICATOR_CELL_ADDRES+0x140>
     e9a:	83 e0       	ldi	r24, 0x03	; 3
     e9c:	80 93 0e 01 	sts	0x010E, r24	; 0x80010e <Mode>
     ea0:	0e 94 6f 06 	call	0xcde	; 0xcde <Blink_blueLED>
     ea4:	80 91 65 00 	lds	r24, 0x0065	; 0x800065 <__TEXT_REGION_LENGTH__+0x7e0065>
     ea8:	84 60       	ori	r24, 0x04	; 4
     eaa:	80 93 65 00 	sts	0x0065, r24	; 0x800065 <__TEXT_REGION_LENGTH__+0x7e0065>
     eae:	0e 94 04 16 	call	0x2c08	; 0x2c08 <Timer_1_int_LONG>
     eb2:	0e 94 84 16 	call	0x2d08	; 0x2d08 <UART_RX_int_DISABLE>
     eb6:	0e c0       	rjmp	.+28     	; 0xed4 <LED_INDICATOR_CELL_ADDRES+0x15c>
     eb8:	83 30       	cpi	r24, 0x03	; 3
     eba:	61 f4       	brne	.+24     	; 0xed4 <LED_INDICATOR_CELL_ADDRES+0x15c>
     ebc:	82 e0       	ldi	r24, 0x02	; 2
     ebe:	80 93 0e 01 	sts	0x010E, r24	; 0x80010e <Mode>
     ec2:	0e 94 6f 06 	call	0xcde	; 0xcde <Blink_blueLED>
     ec6:	80 91 65 00 	lds	r24, 0x0065	; 0x800065 <__TEXT_REGION_LENGTH__+0x7e0065>
     eca:	8b 7f       	andi	r24, 0xFB	; 251
     ecc:	80 93 65 00 	sts	0x0065, r24	; 0x800065 <__TEXT_REGION_LENGTH__+0x7e0065>
     ed0:	0e 94 86 16 	call	0x2d0c	; 0x2d0c <UART_RX_int_ENABLE>
     ed4:	81 9b       	sbis	0x10, 1	; 16
     ed6:	fe cf       	rjmp	.-4      	; 0xed4 <LED_INDICATOR_CELL_ADDRES+0x15c>
     ed8:	82 9b       	sbis	0x10, 2	; 16
     eda:	fc cf       	rjmp	.-8      	; 0xed4 <LED_INDICATOR_CELL_ADDRES+0x15c>
     edc:	2f ef       	ldi	r18, 0xFF	; 255
     ede:	89 e6       	ldi	r24, 0x69	; 105
     ee0:	98 e1       	ldi	r25, 0x18	; 24
     ee2:	21 50       	subi	r18, 0x01	; 1
     ee4:	80 40       	sbci	r24, 0x00	; 0
     ee6:	90 40       	sbci	r25, 0x00	; 0
     ee8:	e1 f7       	brne	.-8      	; 0xee2 <LED_INDICATOR_CELL_ADDRES+0x16a>
     eea:	00 c0       	rjmp	.+0      	; 0xeec <LED_INDICATOR_CELL_ADDRES+0x174>
     eec:	00 00       	nop
     eee:	cf 91       	pop	r28
     ef0:	08 95       	ret

00000ef2 <pull_PINF>:
     ef2:	03 9b       	sbis	0x00, 3	; 0
     ef4:	05 c0       	rjmp	.+10     	; 0xf00 <pull_PINF+0xe>
     ef6:	5d 9b       	sbis	0x0b, 5	; 11
     ef8:	fe cf       	rjmp	.-4      	; 0xef6 <pull_PINF+0x4>
     efa:	81 e3       	ldi	r24, 0x31	; 49
     efc:	8c b9       	out	0x0c, r24	; 12
     efe:	02 c0       	rjmp	.+4      	; 0xf04 <pull_PINF+0x12>
     f00:	0e 94 3a 16 	call	0x2c74	; 0x2c74 <USART_Transmit_0>
     f04:	02 9b       	sbis	0x00, 2	; 0
     f06:	05 c0       	rjmp	.+10     	; 0xf12 <pull_PINF+0x20>
     f08:	5d 9b       	sbis	0x0b, 5	; 11
     f0a:	fe cf       	rjmp	.-4      	; 0xf08 <pull_PINF+0x16>
     f0c:	81 e3       	ldi	r24, 0x31	; 49
     f0e:	8c b9       	out	0x0c, r24	; 12
     f10:	02 c0       	rjmp	.+4      	; 0xf16 <pull_PINF+0x24>
     f12:	0e 94 3a 16 	call	0x2c74	; 0x2c74 <USART_Transmit_0>
     f16:	01 9b       	sbis	0x00, 1	; 0
     f18:	05 c0       	rjmp	.+10     	; 0xf24 <pull_PINF+0x32>
     f1a:	5d 9b       	sbis	0x0b, 5	; 11
     f1c:	fe cf       	rjmp	.-4      	; 0xf1a <pull_PINF+0x28>
     f1e:	81 e3       	ldi	r24, 0x31	; 49
     f20:	8c b9       	out	0x0c, r24	; 12
     f22:	02 c0       	rjmp	.+4      	; 0xf28 <pull_PINF+0x36>
     f24:	0e 94 3a 16 	call	0x2c74	; 0x2c74 <USART_Transmit_0>
     f28:	00 9b       	sbis	0x00, 0	; 0
     f2a:	05 c0       	rjmp	.+10     	; 0xf36 <pull_PINF+0x44>
     f2c:	5d 9b       	sbis	0x0b, 5	; 11
     f2e:	fe cf       	rjmp	.-4      	; 0xf2c <pull_PINF+0x3a>
     f30:	81 e3       	ldi	r24, 0x31	; 49
     f32:	8c b9       	out	0x0c, r24	; 12
     f34:	08 95       	ret
     f36:	0c 94 3a 16 	jmp	0x2c74	; 0x2c74 <USART_Transmit_0>

00000f3a <pull_PINE>:
     f3a:	0a 9b       	sbis	0x01, 2	; 1
     f3c:	05 c0       	rjmp	.+10     	; 0xf48 <pull_PINE+0xe>
     f3e:	5d 9b       	sbis	0x0b, 5	; 11
     f40:	fe cf       	rjmp	.-4      	; 0xf3e <pull_PINE+0x4>
     f42:	81 e3       	ldi	r24, 0x31	; 49
     f44:	8c b9       	out	0x0c, r24	; 12
     f46:	02 c0       	rjmp	.+4      	; 0xf4c <pull_PINE+0x12>
     f48:	0e 94 3a 16 	call	0x2c74	; 0x2c74 <USART_Transmit_0>
     f4c:	0b 9b       	sbis	0x01, 3	; 1
     f4e:	05 c0       	rjmp	.+10     	; 0xf5a <pull_PINE+0x20>
     f50:	5d 9b       	sbis	0x0b, 5	; 11
     f52:	fe cf       	rjmp	.-4      	; 0xf50 <pull_PINE+0x16>
     f54:	81 e3       	ldi	r24, 0x31	; 49
     f56:	8c b9       	out	0x0c, r24	; 12
     f58:	02 c0       	rjmp	.+4      	; 0xf5e <pull_PINE+0x24>
     f5a:	0e 94 3a 16 	call	0x2c74	; 0x2c74 <USART_Transmit_0>
     f5e:	0c 9b       	sbis	0x01, 4	; 1
     f60:	05 c0       	rjmp	.+10     	; 0xf6c <pull_PINE+0x32>
     f62:	5d 9b       	sbis	0x0b, 5	; 11
     f64:	fe cf       	rjmp	.-4      	; 0xf62 <pull_PINE+0x28>
     f66:	81 e3       	ldi	r24, 0x31	; 49
     f68:	8c b9       	out	0x0c, r24	; 12
     f6a:	02 c0       	rjmp	.+4      	; 0xf70 <pull_PINE+0x36>
     f6c:	0e 94 3a 16 	call	0x2c74	; 0x2c74 <USART_Transmit_0>
     f70:	0d 9b       	sbis	0x01, 5	; 1
     f72:	05 c0       	rjmp	.+10     	; 0xf7e <pull_PINE+0x44>
     f74:	5d 9b       	sbis	0x0b, 5	; 11
     f76:	fe cf       	rjmp	.-4      	; 0xf74 <pull_PINE+0x3a>
     f78:	81 e3       	ldi	r24, 0x31	; 49
     f7a:	8c b9       	out	0x0c, r24	; 12
     f7c:	02 c0       	rjmp	.+4      	; 0xf82 <pull_PINE+0x48>
     f7e:	0e 94 3a 16 	call	0x2c74	; 0x2c74 <USART_Transmit_0>
     f82:	0e 9b       	sbis	0x01, 6	; 1
     f84:	05 c0       	rjmp	.+10     	; 0xf90 <pull_PINE+0x56>
     f86:	5d 9b       	sbis	0x0b, 5	; 11
     f88:	fe cf       	rjmp	.-4      	; 0xf86 <pull_PINE+0x4c>
     f8a:	81 e3       	ldi	r24, 0x31	; 49
     f8c:	8c b9       	out	0x0c, r24	; 12
     f8e:	02 c0       	rjmp	.+4      	; 0xf94 <pull_PINE+0x5a>
     f90:	0e 94 3a 16 	call	0x2c74	; 0x2c74 <USART_Transmit_0>
     f94:	0f 9b       	sbis	0x01, 7	; 1
     f96:	05 c0       	rjmp	.+10     	; 0xfa2 <pull_PINE+0x68>
     f98:	5d 9b       	sbis	0x0b, 5	; 11
     f9a:	fe cf       	rjmp	.-4      	; 0xf98 <pull_PINE+0x5e>
     f9c:	81 e3       	ldi	r24, 0x31	; 49
     f9e:	8c b9       	out	0x0c, r24	; 12
     fa0:	08 95       	ret
     fa2:	0c 94 3a 16 	jmp	0x2c74	; 0x2c74 <USART_Transmit_0>

00000fa6 <pull_PINB>:
     fa6:	b0 9b       	sbis	0x16, 0	; 22
     fa8:	05 c0       	rjmp	.+10     	; 0xfb4 <pull_PINB+0xe>
     faa:	5d 9b       	sbis	0x0b, 5	; 11
     fac:	fe cf       	rjmp	.-4      	; 0xfaa <pull_PINB+0x4>
     fae:	81 e3       	ldi	r24, 0x31	; 49
     fb0:	8c b9       	out	0x0c, r24	; 12
     fb2:	02 c0       	rjmp	.+4      	; 0xfb8 <pull_PINB+0x12>
     fb4:	0e 94 3a 16 	call	0x2c74	; 0x2c74 <USART_Transmit_0>
     fb8:	b1 9b       	sbis	0x16, 1	; 22
     fba:	05 c0       	rjmp	.+10     	; 0xfc6 <pull_PINB+0x20>
     fbc:	5d 9b       	sbis	0x0b, 5	; 11
     fbe:	fe cf       	rjmp	.-4      	; 0xfbc <pull_PINB+0x16>
     fc0:	81 e3       	ldi	r24, 0x31	; 49
     fc2:	8c b9       	out	0x0c, r24	; 12
     fc4:	02 c0       	rjmp	.+4      	; 0xfca <pull_PINB+0x24>
     fc6:	0e 94 3a 16 	call	0x2c74	; 0x2c74 <USART_Transmit_0>
     fca:	b2 9b       	sbis	0x16, 2	; 22
     fcc:	05 c0       	rjmp	.+10     	; 0xfd8 <pull_PINB+0x32>
     fce:	5d 9b       	sbis	0x0b, 5	; 11
     fd0:	fe cf       	rjmp	.-4      	; 0xfce <pull_PINB+0x28>
     fd2:	81 e3       	ldi	r24, 0x31	; 49
     fd4:	8c b9       	out	0x0c, r24	; 12
     fd6:	02 c0       	rjmp	.+4      	; 0xfdc <pull_PINB+0x36>
     fd8:	0e 94 3a 16 	call	0x2c74	; 0x2c74 <USART_Transmit_0>
     fdc:	b3 9b       	sbis	0x16, 3	; 22
     fde:	05 c0       	rjmp	.+10     	; 0xfea <pull_PINB+0x44>
     fe0:	5d 9b       	sbis	0x0b, 5	; 11
     fe2:	fe cf       	rjmp	.-4      	; 0xfe0 <pull_PINB+0x3a>
     fe4:	81 e3       	ldi	r24, 0x31	; 49
     fe6:	8c b9       	out	0x0c, r24	; 12
     fe8:	02 c0       	rjmp	.+4      	; 0xfee <pull_PINB+0x48>
     fea:	0e 94 3a 16 	call	0x2c74	; 0x2c74 <USART_Transmit_0>
     fee:	b4 9b       	sbis	0x16, 4	; 22
     ff0:	05 c0       	rjmp	.+10     	; 0xffc <pull_PINB+0x56>
     ff2:	5d 9b       	sbis	0x0b, 5	; 11
     ff4:	fe cf       	rjmp	.-4      	; 0xff2 <pull_PINB+0x4c>
     ff6:	81 e3       	ldi	r24, 0x31	; 49
     ff8:	8c b9       	out	0x0c, r24	; 12
     ffa:	02 c0       	rjmp	.+4      	; 0x1000 <pull_PINB+0x5a>
     ffc:	0e 94 3a 16 	call	0x2c74	; 0x2c74 <USART_Transmit_0>
    1000:	b5 9b       	sbis	0x16, 5	; 22
    1002:	05 c0       	rjmp	.+10     	; 0x100e <pull_PINB+0x68>
    1004:	5d 9b       	sbis	0x0b, 5	; 11
    1006:	fe cf       	rjmp	.-4      	; 0x1004 <pull_PINB+0x5e>
    1008:	81 e3       	ldi	r24, 0x31	; 49
    100a:	8c b9       	out	0x0c, r24	; 12
    100c:	02 c0       	rjmp	.+4      	; 0x1012 <pull_PINB+0x6c>
    100e:	0e 94 3a 16 	call	0x2c74	; 0x2c74 <USART_Transmit_0>
    1012:	b6 9b       	sbis	0x16, 6	; 22
    1014:	05 c0       	rjmp	.+10     	; 0x1020 <pull_PINB+0x7a>
    1016:	5d 9b       	sbis	0x0b, 5	; 11
    1018:	fe cf       	rjmp	.-4      	; 0x1016 <pull_PINB+0x70>
    101a:	81 e3       	ldi	r24, 0x31	; 49
    101c:	8c b9       	out	0x0c, r24	; 12
    101e:	02 c0       	rjmp	.+4      	; 0x1024 <pull_PINB+0x7e>
    1020:	0e 94 3a 16 	call	0x2c74	; 0x2c74 <USART_Transmit_0>
    1024:	b7 9b       	sbis	0x16, 7	; 22
    1026:	05 c0       	rjmp	.+10     	; 0x1032 <pull_PINB+0x8c>
    1028:	5d 9b       	sbis	0x0b, 5	; 11
    102a:	fe cf       	rjmp	.-4      	; 0x1028 <pull_PINB+0x82>
    102c:	81 e3       	ldi	r24, 0x31	; 49
    102e:	8c b9       	out	0x0c, r24	; 12
    1030:	08 95       	ret
    1032:	0c 94 3a 16 	jmp	0x2c74	; 0x2c74 <USART_Transmit_0>

00001036 <pull_PIND>:
    1036:	80 9b       	sbis	0x10, 0	; 16
    1038:	05 c0       	rjmp	.+10     	; 0x1044 <pull_PIND+0xe>
    103a:	5d 9b       	sbis	0x0b, 5	; 11
    103c:	fe cf       	rjmp	.-4      	; 0x103a <pull_PIND+0x4>
    103e:	81 e3       	ldi	r24, 0x31	; 49
    1040:	8c b9       	out	0x0c, r24	; 12
    1042:	02 c0       	rjmp	.+4      	; 0x1048 <pull_PIND+0x12>
    1044:	0e 94 3a 16 	call	0x2c74	; 0x2c74 <USART_Transmit_0>
    1048:	5d 9b       	sbis	0x0b, 5	; 11
    104a:	fe cf       	rjmp	.-4      	; 0x1048 <pull_PIND+0x12>
    104c:	80 e2       	ldi	r24, 0x20	; 32
    104e:	8c b9       	out	0x0c, r24	; 12
    1050:	85 9b       	sbis	0x10, 5	; 16
    1052:	05 c0       	rjmp	.+10     	; 0x105e <pull_PIND+0x28>
    1054:	5d 9b       	sbis	0x0b, 5	; 11
    1056:	fe cf       	rjmp	.-4      	; 0x1054 <pull_PIND+0x1e>
    1058:	81 e3       	ldi	r24, 0x31	; 49
    105a:	8c b9       	out	0x0c, r24	; 12
    105c:	02 c0       	rjmp	.+4      	; 0x1062 <pull_PIND+0x2c>
    105e:	0e 94 3a 16 	call	0x2c74	; 0x2c74 <USART_Transmit_0>
    1062:	86 9b       	sbis	0x10, 6	; 16
    1064:	05 c0       	rjmp	.+10     	; 0x1070 <pull_PIND+0x3a>
    1066:	5d 9b       	sbis	0x0b, 5	; 11
    1068:	fe cf       	rjmp	.-4      	; 0x1066 <pull_PIND+0x30>
    106a:	81 e3       	ldi	r24, 0x31	; 49
    106c:	8c b9       	out	0x0c, r24	; 12
    106e:	02 c0       	rjmp	.+4      	; 0x1074 <pull_PIND+0x3e>
    1070:	0e 94 3a 16 	call	0x2c74	; 0x2c74 <USART_Transmit_0>
    1074:	87 9b       	sbis	0x10, 7	; 16
    1076:	05 c0       	rjmp	.+10     	; 0x1082 <pull_PIND+0x4c>
    1078:	5d 9b       	sbis	0x0b, 5	; 11
    107a:	fe cf       	rjmp	.-4      	; 0x1078 <pull_PIND+0x42>
    107c:	81 e3       	ldi	r24, 0x31	; 49
    107e:	8c b9       	out	0x0c, r24	; 12
    1080:	08 95       	ret
    1082:	0c 94 3a 16 	jmp	0x2c74	; 0x2c74 <USART_Transmit_0>

00001086 <pull_PINC>:
    1086:	98 9b       	sbis	0x13, 0	; 19
    1088:	05 c0       	rjmp	.+10     	; 0x1094 <pull_PINC+0xe>
    108a:	5d 9b       	sbis	0x0b, 5	; 11
    108c:	fe cf       	rjmp	.-4      	; 0x108a <pull_PINC+0x4>
    108e:	81 e3       	ldi	r24, 0x31	; 49
    1090:	8c b9       	out	0x0c, r24	; 12
    1092:	02 c0       	rjmp	.+4      	; 0x1098 <pull_PINC+0x12>
    1094:	0e 94 3a 16 	call	0x2c74	; 0x2c74 <USART_Transmit_0>
    1098:	99 9b       	sbis	0x13, 1	; 19
    109a:	05 c0       	rjmp	.+10     	; 0x10a6 <pull_PINC+0x20>
    109c:	5d 9b       	sbis	0x0b, 5	; 11
    109e:	fe cf       	rjmp	.-4      	; 0x109c <pull_PINC+0x16>
    10a0:	81 e3       	ldi	r24, 0x31	; 49
    10a2:	8c b9       	out	0x0c, r24	; 12
    10a4:	02 c0       	rjmp	.+4      	; 0x10aa <pull_PINC+0x24>
    10a6:	0e 94 3a 16 	call	0x2c74	; 0x2c74 <USART_Transmit_0>
    10aa:	9a 9b       	sbis	0x13, 2	; 19
    10ac:	05 c0       	rjmp	.+10     	; 0x10b8 <pull_PINC+0x32>
    10ae:	5d 9b       	sbis	0x0b, 5	; 11
    10b0:	fe cf       	rjmp	.-4      	; 0x10ae <pull_PINC+0x28>
    10b2:	81 e3       	ldi	r24, 0x31	; 49
    10b4:	8c b9       	out	0x0c, r24	; 12
    10b6:	02 c0       	rjmp	.+4      	; 0x10bc <pull_PINC+0x36>
    10b8:	0e 94 3a 16 	call	0x2c74	; 0x2c74 <USART_Transmit_0>
    10bc:	9b 9b       	sbis	0x13, 3	; 19
    10be:	05 c0       	rjmp	.+10     	; 0x10ca <pull_PINC+0x44>
    10c0:	5d 9b       	sbis	0x0b, 5	; 11
    10c2:	fe cf       	rjmp	.-4      	; 0x10c0 <pull_PINC+0x3a>
    10c4:	81 e3       	ldi	r24, 0x31	; 49
    10c6:	8c b9       	out	0x0c, r24	; 12
    10c8:	02 c0       	rjmp	.+4      	; 0x10ce <pull_PINC+0x48>
    10ca:	0e 94 3a 16 	call	0x2c74	; 0x2c74 <USART_Transmit_0>
    10ce:	9c 9b       	sbis	0x13, 4	; 19
    10d0:	05 c0       	rjmp	.+10     	; 0x10dc <pull_PINC+0x56>
    10d2:	5d 9b       	sbis	0x0b, 5	; 11
    10d4:	fe cf       	rjmp	.-4      	; 0x10d2 <pull_PINC+0x4c>
    10d6:	81 e3       	ldi	r24, 0x31	; 49
    10d8:	8c b9       	out	0x0c, r24	; 12
    10da:	02 c0       	rjmp	.+4      	; 0x10e0 <pull_PINC+0x5a>
    10dc:	0e 94 3a 16 	call	0x2c74	; 0x2c74 <USART_Transmit_0>
    10e0:	9d 9b       	sbis	0x13, 5	; 19
    10e2:	05 c0       	rjmp	.+10     	; 0x10ee <pull_PINC+0x68>
    10e4:	5d 9b       	sbis	0x0b, 5	; 11
    10e6:	fe cf       	rjmp	.-4      	; 0x10e4 <pull_PINC+0x5e>
    10e8:	81 e3       	ldi	r24, 0x31	; 49
    10ea:	8c b9       	out	0x0c, r24	; 12
    10ec:	02 c0       	rjmp	.+4      	; 0x10f2 <pull_PINC+0x6c>
    10ee:	0e 94 3a 16 	call	0x2c74	; 0x2c74 <USART_Transmit_0>
    10f2:	9e 9b       	sbis	0x13, 6	; 19
    10f4:	05 c0       	rjmp	.+10     	; 0x1100 <__stack+0x1>
    10f6:	5d 9b       	sbis	0x0b, 5	; 11
    10f8:	fe cf       	rjmp	.-4      	; 0x10f6 <pull_PINC+0x70>
    10fa:	81 e3       	ldi	r24, 0x31	; 49
    10fc:	8c b9       	out	0x0c, r24	; 12
    10fe:	02 c0       	rjmp	.+4      	; 0x1104 <__stack+0x5>
    1100:	0e 94 3a 16 	call	0x2c74	; 0x2c74 <USART_Transmit_0>
    1104:	9f 9b       	sbis	0x13, 7	; 19
    1106:	05 c0       	rjmp	.+10     	; 0x1112 <__stack+0x13>
    1108:	5d 9b       	sbis	0x0b, 5	; 11
    110a:	fe cf       	rjmp	.-4      	; 0x1108 <__stack+0x9>
    110c:	81 e3       	ldi	r24, 0x31	; 49
    110e:	8c b9       	out	0x0c, r24	; 12
    1110:	08 95       	ret
    1112:	0c 94 3a 16 	jmp	0x2c74	; 0x2c74 <USART_Transmit_0>

00001116 <pull_PINA>:
    1116:	cf 9b       	sbis	0x19, 7	; 25
    1118:	05 c0       	rjmp	.+10     	; 0x1124 <pull_PINA+0xe>
    111a:	5d 9b       	sbis	0x0b, 5	; 11
    111c:	fe cf       	rjmp	.-4      	; 0x111a <pull_PINA+0x4>
    111e:	81 e3       	ldi	r24, 0x31	; 49
    1120:	8c b9       	out	0x0c, r24	; 12
    1122:	02 c0       	rjmp	.+4      	; 0x1128 <pull_PINA+0x12>
    1124:	0e 94 3a 16 	call	0x2c74	; 0x2c74 <USART_Transmit_0>
    1128:	ce 9b       	sbis	0x19, 6	; 25
    112a:	05 c0       	rjmp	.+10     	; 0x1136 <pull_PINA+0x20>
    112c:	5d 9b       	sbis	0x0b, 5	; 11
    112e:	fe cf       	rjmp	.-4      	; 0x112c <pull_PINA+0x16>
    1130:	81 e3       	ldi	r24, 0x31	; 49
    1132:	8c b9       	out	0x0c, r24	; 12
    1134:	02 c0       	rjmp	.+4      	; 0x113a <pull_PINA+0x24>
    1136:	0e 94 3a 16 	call	0x2c74	; 0x2c74 <USART_Transmit_0>
    113a:	cd 9b       	sbis	0x19, 5	; 25
    113c:	05 c0       	rjmp	.+10     	; 0x1148 <pull_PINA+0x32>
    113e:	5d 9b       	sbis	0x0b, 5	; 11
    1140:	fe cf       	rjmp	.-4      	; 0x113e <pull_PINA+0x28>
    1142:	81 e3       	ldi	r24, 0x31	; 49
    1144:	8c b9       	out	0x0c, r24	; 12
    1146:	02 c0       	rjmp	.+4      	; 0x114c <pull_PINA+0x36>
    1148:	0e 94 3a 16 	call	0x2c74	; 0x2c74 <USART_Transmit_0>
    114c:	cc 9b       	sbis	0x19, 4	; 25
    114e:	05 c0       	rjmp	.+10     	; 0x115a <pull_PINA+0x44>
    1150:	5d 9b       	sbis	0x0b, 5	; 11
    1152:	fe cf       	rjmp	.-4      	; 0x1150 <pull_PINA+0x3a>
    1154:	81 e3       	ldi	r24, 0x31	; 49
    1156:	8c b9       	out	0x0c, r24	; 12
    1158:	02 c0       	rjmp	.+4      	; 0x115e <pull_PINA+0x48>
    115a:	0e 94 3a 16 	call	0x2c74	; 0x2c74 <USART_Transmit_0>
    115e:	cb 9b       	sbis	0x19, 3	; 25
    1160:	05 c0       	rjmp	.+10     	; 0x116c <pull_PINA+0x56>
    1162:	5d 9b       	sbis	0x0b, 5	; 11
    1164:	fe cf       	rjmp	.-4      	; 0x1162 <pull_PINA+0x4c>
    1166:	81 e3       	ldi	r24, 0x31	; 49
    1168:	8c b9       	out	0x0c, r24	; 12
    116a:	02 c0       	rjmp	.+4      	; 0x1170 <pull_PINA+0x5a>
    116c:	0e 94 3a 16 	call	0x2c74	; 0x2c74 <USART_Transmit_0>
    1170:	ca 9b       	sbis	0x19, 2	; 25
    1172:	05 c0       	rjmp	.+10     	; 0x117e <pull_PINA+0x68>
    1174:	5d 9b       	sbis	0x0b, 5	; 11
    1176:	fe cf       	rjmp	.-4      	; 0x1174 <pull_PINA+0x5e>
    1178:	81 e3       	ldi	r24, 0x31	; 49
    117a:	8c b9       	out	0x0c, r24	; 12
    117c:	02 c0       	rjmp	.+4      	; 0x1182 <pull_PINA+0x6c>
    117e:	0e 94 3a 16 	call	0x2c74	; 0x2c74 <USART_Transmit_0>
    1182:	c9 9b       	sbis	0x19, 1	; 25
    1184:	05 c0       	rjmp	.+10     	; 0x1190 <pull_PINA+0x7a>
    1186:	5d 9b       	sbis	0x0b, 5	; 11
    1188:	fe cf       	rjmp	.-4      	; 0x1186 <pull_PINA+0x70>
    118a:	81 e3       	ldi	r24, 0x31	; 49
    118c:	8c b9       	out	0x0c, r24	; 12
    118e:	02 c0       	rjmp	.+4      	; 0x1194 <pull_PINA+0x7e>
    1190:	0e 94 3a 16 	call	0x2c74	; 0x2c74 <USART_Transmit_0>
    1194:	c8 9b       	sbis	0x19, 0	; 25
    1196:	05 c0       	rjmp	.+10     	; 0x11a2 <pull_PINA+0x8c>
    1198:	5d 9b       	sbis	0x0b, 5	; 11
    119a:	fe cf       	rjmp	.-4      	; 0x1198 <pull_PINA+0x82>
    119c:	81 e3       	ldi	r24, 0x31	; 49
    119e:	8c b9       	out	0x0c, r24	; 12
    11a0:	08 95       	ret
    11a2:	0c 94 3a 16 	jmp	0x2c74	; 0x2c74 <USART_Transmit_0>

000011a6 <Scan_USART_Transmit>:
    11a6:	80 91 65 00 	lds	r24, 0x0065	; 0x800065 <__TEXT_REGION_LENGTH__+0x7e0065>
    11aa:	84 60       	ori	r24, 0x04	; 4
    11ac:	80 93 65 00 	sts	0x0065, r24	; 0x800065 <__TEXT_REGION_LENGTH__+0x7e0065>
    11b0:	80 91 61 00 	lds	r24, 0x0061	; 0x800061 <__TEXT_REGION_LENGTH__+0x7e0061>
    11b4:	88 60       	ori	r24, 0x08	; 8
    11b6:	80 93 61 00 	sts	0x0061, r24	; 0x800061 <__TEXT_REGION_LENGTH__+0x7e0061>
    11ba:	80 91 62 00 	lds	r24, 0x0062	; 0x800062 <__TEXT_REGION_LENGTH__+0x7e0062>
    11be:	88 60       	ori	r24, 0x08	; 8
    11c0:	80 93 62 00 	sts	0x0062, r24	; 0x800062 <__TEXT_REGION_LENGTH__+0x7e0062>
    11c4:	8f e3       	ldi	r24, 0x3F	; 63
    11c6:	9c e9       	ldi	r25, 0x9C	; 156
    11c8:	01 97       	sbiw	r24, 0x01	; 1
    11ca:	f1 f7       	brne	.-4      	; 0x11c8 <Scan_USART_Transmit+0x22>
    11cc:	00 c0       	rjmp	.+0      	; 0x11ce <Scan_USART_Transmit+0x28>
    11ce:	00 00       	nop
    11d0:	5d 9b       	sbis	0x0b, 5	; 11
    11d2:	fe cf       	rjmp	.-4      	; 0x11d0 <Scan_USART_Transmit+0x2a>
    11d4:	85 e5       	ldi	r24, 0x55	; 85
    11d6:	8c b9       	out	0x0c, r24	; 12
    11d8:	02 9b       	sbis	0x00, 2	; 0
    11da:	05 c0       	rjmp	.+10     	; 0x11e6 <Scan_USART_Transmit+0x40>
    11dc:	5d 9b       	sbis	0x0b, 5	; 11
    11de:	fe cf       	rjmp	.-4      	; 0x11dc <Scan_USART_Transmit+0x36>
    11e0:	81 e3       	ldi	r24, 0x31	; 49
    11e2:	8c b9       	out	0x0c, r24	; 12
    11e4:	02 c0       	rjmp	.+4      	; 0x11ea <Scan_USART_Transmit+0x44>
    11e6:	0e 94 3a 16 	call	0x2c74	; 0x2c74 <USART_Transmit_0>
    11ea:	01 9b       	sbis	0x00, 1	; 0
    11ec:	05 c0       	rjmp	.+10     	; 0x11f8 <Scan_USART_Transmit+0x52>
    11ee:	5d 9b       	sbis	0x0b, 5	; 11
    11f0:	fe cf       	rjmp	.-4      	; 0x11ee <Scan_USART_Transmit+0x48>
    11f2:	81 e3       	ldi	r24, 0x31	; 49
    11f4:	8c b9       	out	0x0c, r24	; 12
    11f6:	02 c0       	rjmp	.+4      	; 0x11fc <Scan_USART_Transmit+0x56>
    11f8:	0e 94 3a 16 	call	0x2c74	; 0x2c74 <USART_Transmit_0>
    11fc:	00 9b       	sbis	0x00, 0	; 0
    11fe:	05 c0       	rjmp	.+10     	; 0x120a <Scan_USART_Transmit+0x64>
    1200:	5d 9b       	sbis	0x0b, 5	; 11
    1202:	fe cf       	rjmp	.-4      	; 0x1200 <Scan_USART_Transmit+0x5a>
    1204:	81 e3       	ldi	r24, 0x31	; 49
    1206:	8c b9       	out	0x0c, r24	; 12
    1208:	02 c0       	rjmp	.+4      	; 0x120e <Scan_USART_Transmit+0x68>
    120a:	0e 94 3a 16 	call	0x2c74	; 0x2c74 <USART_Transmit_0>
    120e:	0e 94 9d 07 	call	0xf3a	; 0xf3a <pull_PINE>
    1212:	0e 94 d3 07 	call	0xfa6	; 0xfa6 <pull_PINB>
    1216:	0e 94 1b 08 	call	0x1036	; 0x1036 <pull_PIND>
    121a:	0e 94 43 08 	call	0x1086	; 0x1086 <pull_PINC>
    121e:	0e 94 8b 08 	call	0x1116	; 0x1116 <pull_PINA>
    1222:	80 91 61 00 	lds	r24, 0x0061	; 0x800061 <__TEXT_REGION_LENGTH__+0x7e0061>
    1226:	87 7f       	andi	r24, 0xF7	; 247
    1228:	80 93 61 00 	sts	0x0061, r24	; 0x800061 <__TEXT_REGION_LENGTH__+0x7e0061>
    122c:	80 91 62 00 	lds	r24, 0x0062	; 0x800062 <__TEXT_REGION_LENGTH__+0x7e0062>
    1230:	87 7f       	andi	r24, 0xF7	; 247
    1232:	80 93 62 00 	sts	0x0062, r24	; 0x800062 <__TEXT_REGION_LENGTH__+0x7e0062>
    1236:	80 91 61 00 	lds	r24, 0x0061	; 0x800061 <__TEXT_REGION_LENGTH__+0x7e0061>
    123a:	84 60       	ori	r24, 0x04	; 4
    123c:	80 93 61 00 	sts	0x0061, r24	; 0x800061 <__TEXT_REGION_LENGTH__+0x7e0061>
    1240:	80 91 62 00 	lds	r24, 0x0062	; 0x800062 <__TEXT_REGION_LENGTH__+0x7e0062>
    1244:	84 60       	ori	r24, 0x04	; 4
    1246:	80 93 62 00 	sts	0x0062, r24	; 0x800062 <__TEXT_REGION_LENGTH__+0x7e0062>
    124a:	8f e3       	ldi	r24, 0x3F	; 63
    124c:	9c e9       	ldi	r25, 0x9C	; 156
    124e:	01 97       	sbiw	r24, 0x01	; 1
    1250:	f1 f7       	brne	.-4      	; 0x124e <Scan_USART_Transmit+0xa8>
    1252:	00 c0       	rjmp	.+0      	; 0x1254 <Scan_USART_Transmit+0xae>
    1254:	00 00       	nop
    1256:	03 9b       	sbis	0x00, 3	; 0
    1258:	05 c0       	rjmp	.+10     	; 0x1264 <Scan_USART_Transmit+0xbe>
    125a:	5d 9b       	sbis	0x0b, 5	; 11
    125c:	fe cf       	rjmp	.-4      	; 0x125a <Scan_USART_Transmit+0xb4>
    125e:	81 e3       	ldi	r24, 0x31	; 49
    1260:	8c b9       	out	0x0c, r24	; 12
    1262:	02 c0       	rjmp	.+4      	; 0x1268 <Scan_USART_Transmit+0xc2>
    1264:	0e 94 3a 16 	call	0x2c74	; 0x2c74 <USART_Transmit_0>
    1268:	5d 9b       	sbis	0x0b, 5	; 11
    126a:	fe cf       	rjmp	.-4      	; 0x1268 <Scan_USART_Transmit+0xc2>
    126c:	85 e5       	ldi	r24, 0x55	; 85
    126e:	8c b9       	out	0x0c, r24	; 12
    1270:	01 9b       	sbis	0x00, 1	; 0
    1272:	05 c0       	rjmp	.+10     	; 0x127e <Scan_USART_Transmit+0xd8>
    1274:	5d 9b       	sbis	0x0b, 5	; 11
    1276:	fe cf       	rjmp	.-4      	; 0x1274 <Scan_USART_Transmit+0xce>
    1278:	81 e3       	ldi	r24, 0x31	; 49
    127a:	8c b9       	out	0x0c, r24	; 12
    127c:	02 c0       	rjmp	.+4      	; 0x1282 <Scan_USART_Transmit+0xdc>
    127e:	0e 94 3a 16 	call	0x2c74	; 0x2c74 <USART_Transmit_0>
    1282:	00 9b       	sbis	0x00, 0	; 0
    1284:	05 c0       	rjmp	.+10     	; 0x1290 <Scan_USART_Transmit+0xea>
    1286:	5d 9b       	sbis	0x0b, 5	; 11
    1288:	fe cf       	rjmp	.-4      	; 0x1286 <Scan_USART_Transmit+0xe0>
    128a:	81 e3       	ldi	r24, 0x31	; 49
    128c:	8c b9       	out	0x0c, r24	; 12
    128e:	02 c0       	rjmp	.+4      	; 0x1294 <Scan_USART_Transmit+0xee>
    1290:	0e 94 3a 16 	call	0x2c74	; 0x2c74 <USART_Transmit_0>
    1294:	0e 94 9d 07 	call	0xf3a	; 0xf3a <pull_PINE>
    1298:	0e 94 d3 07 	call	0xfa6	; 0xfa6 <pull_PINB>
    129c:	0e 94 1b 08 	call	0x1036	; 0x1036 <pull_PIND>
    12a0:	0e 94 43 08 	call	0x1086	; 0x1086 <pull_PINC>
    12a4:	0e 94 8b 08 	call	0x1116	; 0x1116 <pull_PINA>
    12a8:	80 91 61 00 	lds	r24, 0x0061	; 0x800061 <__TEXT_REGION_LENGTH__+0x7e0061>
    12ac:	8b 7f       	andi	r24, 0xFB	; 251
    12ae:	80 93 61 00 	sts	0x0061, r24	; 0x800061 <__TEXT_REGION_LENGTH__+0x7e0061>
    12b2:	80 91 62 00 	lds	r24, 0x0062	; 0x800062 <__TEXT_REGION_LENGTH__+0x7e0062>
    12b6:	8b 7f       	andi	r24, 0xFB	; 251
    12b8:	80 93 62 00 	sts	0x0062, r24	; 0x800062 <__TEXT_REGION_LENGTH__+0x7e0062>
    12bc:	80 91 61 00 	lds	r24, 0x0061	; 0x800061 <__TEXT_REGION_LENGTH__+0x7e0061>
    12c0:	82 60       	ori	r24, 0x02	; 2
    12c2:	80 93 61 00 	sts	0x0061, r24	; 0x800061 <__TEXT_REGION_LENGTH__+0x7e0061>
    12c6:	80 91 62 00 	lds	r24, 0x0062	; 0x800062 <__TEXT_REGION_LENGTH__+0x7e0062>
    12ca:	82 60       	ori	r24, 0x02	; 2
    12cc:	80 93 62 00 	sts	0x0062, r24	; 0x800062 <__TEXT_REGION_LENGTH__+0x7e0062>
    12d0:	8f e3       	ldi	r24, 0x3F	; 63
    12d2:	9c e9       	ldi	r25, 0x9C	; 156
    12d4:	01 97       	sbiw	r24, 0x01	; 1
    12d6:	f1 f7       	brne	.-4      	; 0x12d4 <Scan_USART_Transmit+0x12e>
    12d8:	00 c0       	rjmp	.+0      	; 0x12da <Scan_USART_Transmit+0x134>
    12da:	00 00       	nop
    12dc:	03 9b       	sbis	0x00, 3	; 0
    12de:	05 c0       	rjmp	.+10     	; 0x12ea <Scan_USART_Transmit+0x144>
    12e0:	5d 9b       	sbis	0x0b, 5	; 11
    12e2:	fe cf       	rjmp	.-4      	; 0x12e0 <Scan_USART_Transmit+0x13a>
    12e4:	81 e3       	ldi	r24, 0x31	; 49
    12e6:	8c b9       	out	0x0c, r24	; 12
    12e8:	02 c0       	rjmp	.+4      	; 0x12ee <Scan_USART_Transmit+0x148>
    12ea:	0e 94 3a 16 	call	0x2c74	; 0x2c74 <USART_Transmit_0>
    12ee:	02 9b       	sbis	0x00, 2	; 0
    12f0:	05 c0       	rjmp	.+10     	; 0x12fc <Scan_USART_Transmit+0x156>
    12f2:	5d 9b       	sbis	0x0b, 5	; 11
    12f4:	fe cf       	rjmp	.-4      	; 0x12f2 <Scan_USART_Transmit+0x14c>
    12f6:	81 e3       	ldi	r24, 0x31	; 49
    12f8:	8c b9       	out	0x0c, r24	; 12
    12fa:	02 c0       	rjmp	.+4      	; 0x1300 <Scan_USART_Transmit+0x15a>
    12fc:	0e 94 3a 16 	call	0x2c74	; 0x2c74 <USART_Transmit_0>
    1300:	5d 9b       	sbis	0x0b, 5	; 11
    1302:	fe cf       	rjmp	.-4      	; 0x1300 <Scan_USART_Transmit+0x15a>
    1304:	85 e5       	ldi	r24, 0x55	; 85
    1306:	8c b9       	out	0x0c, r24	; 12
    1308:	00 9b       	sbis	0x00, 0	; 0
    130a:	05 c0       	rjmp	.+10     	; 0x1316 <Scan_USART_Transmit+0x170>
    130c:	5d 9b       	sbis	0x0b, 5	; 11
    130e:	fe cf       	rjmp	.-4      	; 0x130c <Scan_USART_Transmit+0x166>
    1310:	81 e3       	ldi	r24, 0x31	; 49
    1312:	8c b9       	out	0x0c, r24	; 12
    1314:	02 c0       	rjmp	.+4      	; 0x131a <Scan_USART_Transmit+0x174>
    1316:	0e 94 3a 16 	call	0x2c74	; 0x2c74 <USART_Transmit_0>
    131a:	0e 94 9d 07 	call	0xf3a	; 0xf3a <pull_PINE>
    131e:	0e 94 d3 07 	call	0xfa6	; 0xfa6 <pull_PINB>
    1322:	0e 94 1b 08 	call	0x1036	; 0x1036 <pull_PIND>
    1326:	0e 94 43 08 	call	0x1086	; 0x1086 <pull_PINC>
    132a:	0e 94 8b 08 	call	0x1116	; 0x1116 <pull_PINA>
    132e:	80 91 61 00 	lds	r24, 0x0061	; 0x800061 <__TEXT_REGION_LENGTH__+0x7e0061>
    1332:	8d 7f       	andi	r24, 0xFD	; 253
    1334:	80 93 61 00 	sts	0x0061, r24	; 0x800061 <__TEXT_REGION_LENGTH__+0x7e0061>
    1338:	80 91 62 00 	lds	r24, 0x0062	; 0x800062 <__TEXT_REGION_LENGTH__+0x7e0062>
    133c:	8d 7f       	andi	r24, 0xFD	; 253
    133e:	80 93 62 00 	sts	0x0062, r24	; 0x800062 <__TEXT_REGION_LENGTH__+0x7e0062>
    1342:	80 91 61 00 	lds	r24, 0x0061	; 0x800061 <__TEXT_REGION_LENGTH__+0x7e0061>
    1346:	81 60       	ori	r24, 0x01	; 1
    1348:	80 93 61 00 	sts	0x0061, r24	; 0x800061 <__TEXT_REGION_LENGTH__+0x7e0061>
    134c:	80 91 62 00 	lds	r24, 0x0062	; 0x800062 <__TEXT_REGION_LENGTH__+0x7e0062>
    1350:	81 60       	ori	r24, 0x01	; 1
    1352:	80 93 62 00 	sts	0x0062, r24	; 0x800062 <__TEXT_REGION_LENGTH__+0x7e0062>
    1356:	8f e3       	ldi	r24, 0x3F	; 63
    1358:	9c e9       	ldi	r25, 0x9C	; 156
    135a:	01 97       	sbiw	r24, 0x01	; 1
    135c:	f1 f7       	brne	.-4      	; 0x135a <Scan_USART_Transmit+0x1b4>
    135e:	00 c0       	rjmp	.+0      	; 0x1360 <Scan_USART_Transmit+0x1ba>
    1360:	00 00       	nop
    1362:	03 9b       	sbis	0x00, 3	; 0
    1364:	05 c0       	rjmp	.+10     	; 0x1370 <Scan_USART_Transmit+0x1ca>
    1366:	5d 9b       	sbis	0x0b, 5	; 11
    1368:	fe cf       	rjmp	.-4      	; 0x1366 <Scan_USART_Transmit+0x1c0>
    136a:	81 e3       	ldi	r24, 0x31	; 49
    136c:	8c b9       	out	0x0c, r24	; 12
    136e:	02 c0       	rjmp	.+4      	; 0x1374 <Scan_USART_Transmit+0x1ce>
    1370:	0e 94 3a 16 	call	0x2c74	; 0x2c74 <USART_Transmit_0>
    1374:	02 9b       	sbis	0x00, 2	; 0
    1376:	05 c0       	rjmp	.+10     	; 0x1382 <Scan_USART_Transmit+0x1dc>
    1378:	5d 9b       	sbis	0x0b, 5	; 11
    137a:	fe cf       	rjmp	.-4      	; 0x1378 <Scan_USART_Transmit+0x1d2>
    137c:	81 e3       	ldi	r24, 0x31	; 49
    137e:	8c b9       	out	0x0c, r24	; 12
    1380:	02 c0       	rjmp	.+4      	; 0x1386 <Scan_USART_Transmit+0x1e0>
    1382:	0e 94 3a 16 	call	0x2c74	; 0x2c74 <USART_Transmit_0>
    1386:	01 9b       	sbis	0x00, 1	; 0
    1388:	05 c0       	rjmp	.+10     	; 0x1394 <Scan_USART_Transmit+0x1ee>
    138a:	5d 9b       	sbis	0x0b, 5	; 11
    138c:	fe cf       	rjmp	.-4      	; 0x138a <Scan_USART_Transmit+0x1e4>
    138e:	81 e3       	ldi	r24, 0x31	; 49
    1390:	8c b9       	out	0x0c, r24	; 12
    1392:	02 c0       	rjmp	.+4      	; 0x1398 <Scan_USART_Transmit+0x1f2>
    1394:	0e 94 3a 16 	call	0x2c74	; 0x2c74 <USART_Transmit_0>
    1398:	5d 9b       	sbis	0x0b, 5	; 11
    139a:	fe cf       	rjmp	.-4      	; 0x1398 <Scan_USART_Transmit+0x1f2>
    139c:	85 e5       	ldi	r24, 0x55	; 85
    139e:	8c b9       	out	0x0c, r24	; 12
    13a0:	0e 94 9d 07 	call	0xf3a	; 0xf3a <pull_PINE>
    13a4:	0e 94 d3 07 	call	0xfa6	; 0xfa6 <pull_PINB>
    13a8:	0e 94 1b 08 	call	0x1036	; 0x1036 <pull_PIND>
    13ac:	0e 94 43 08 	call	0x1086	; 0x1086 <pull_PINC>
    13b0:	0e 94 8b 08 	call	0x1116	; 0x1116 <pull_PINA>
    13b4:	80 91 61 00 	lds	r24, 0x0061	; 0x800061 <__TEXT_REGION_LENGTH__+0x7e0061>
    13b8:	8e 7f       	andi	r24, 0xFE	; 254
    13ba:	80 93 61 00 	sts	0x0061, r24	; 0x800061 <__TEXT_REGION_LENGTH__+0x7e0061>
    13be:	80 91 62 00 	lds	r24, 0x0062	; 0x800062 <__TEXT_REGION_LENGTH__+0x7e0062>
    13c2:	8e 7f       	andi	r24, 0xFE	; 254
    13c4:	80 93 62 00 	sts	0x0062, r24	; 0x800062 <__TEXT_REGION_LENGTH__+0x7e0062>
    13c8:	12 9a       	sbi	0x02, 2	; 2
    13ca:	1a 9a       	sbi	0x03, 2	; 3
    13cc:	8f e3       	ldi	r24, 0x3F	; 63
    13ce:	9c e9       	ldi	r25, 0x9C	; 156
    13d0:	01 97       	sbiw	r24, 0x01	; 1
    13d2:	f1 f7       	brne	.-4      	; 0x13d0 <Scan_USART_Transmit+0x22a>
    13d4:	00 c0       	rjmp	.+0      	; 0x13d6 <Scan_USART_Transmit+0x230>
    13d6:	00 00       	nop
    13d8:	0e 94 79 07 	call	0xef2	; 0xef2 <pull_PINF>
    13dc:	5d 9b       	sbis	0x0b, 5	; 11
    13de:	fe cf       	rjmp	.-4      	; 0x13dc <Scan_USART_Transmit+0x236>
    13e0:	85 e5       	ldi	r24, 0x55	; 85
    13e2:	8c b9       	out	0x0c, r24	; 12
    13e4:	0b 9b       	sbis	0x01, 3	; 1
    13e6:	05 c0       	rjmp	.+10     	; 0x13f2 <Scan_USART_Transmit+0x24c>
    13e8:	5d 9b       	sbis	0x0b, 5	; 11
    13ea:	fe cf       	rjmp	.-4      	; 0x13e8 <Scan_USART_Transmit+0x242>
    13ec:	81 e3       	ldi	r24, 0x31	; 49
    13ee:	8c b9       	out	0x0c, r24	; 12
    13f0:	02 c0       	rjmp	.+4      	; 0x13f6 <Scan_USART_Transmit+0x250>
    13f2:	0e 94 3a 16 	call	0x2c74	; 0x2c74 <USART_Transmit_0>
    13f6:	0c 9b       	sbis	0x01, 4	; 1
    13f8:	05 c0       	rjmp	.+10     	; 0x1404 <Scan_USART_Transmit+0x25e>
    13fa:	5d 9b       	sbis	0x0b, 5	; 11
    13fc:	fe cf       	rjmp	.-4      	; 0x13fa <Scan_USART_Transmit+0x254>
    13fe:	81 e3       	ldi	r24, 0x31	; 49
    1400:	8c b9       	out	0x0c, r24	; 12
    1402:	02 c0       	rjmp	.+4      	; 0x1408 <Scan_USART_Transmit+0x262>
    1404:	0e 94 3a 16 	call	0x2c74	; 0x2c74 <USART_Transmit_0>
    1408:	0d 9b       	sbis	0x01, 5	; 1
    140a:	05 c0       	rjmp	.+10     	; 0x1416 <Scan_USART_Transmit+0x270>
    140c:	5d 9b       	sbis	0x0b, 5	; 11
    140e:	fe cf       	rjmp	.-4      	; 0x140c <Scan_USART_Transmit+0x266>
    1410:	81 e3       	ldi	r24, 0x31	; 49
    1412:	8c b9       	out	0x0c, r24	; 12
    1414:	02 c0       	rjmp	.+4      	; 0x141a <Scan_USART_Transmit+0x274>
    1416:	0e 94 3a 16 	call	0x2c74	; 0x2c74 <USART_Transmit_0>
    141a:	0e 9b       	sbis	0x01, 6	; 1
    141c:	05 c0       	rjmp	.+10     	; 0x1428 <Scan_USART_Transmit+0x282>
    141e:	5d 9b       	sbis	0x0b, 5	; 11
    1420:	fe cf       	rjmp	.-4      	; 0x141e <Scan_USART_Transmit+0x278>
    1422:	81 e3       	ldi	r24, 0x31	; 49
    1424:	8c b9       	out	0x0c, r24	; 12
    1426:	02 c0       	rjmp	.+4      	; 0x142c <Scan_USART_Transmit+0x286>
    1428:	0e 94 3a 16 	call	0x2c74	; 0x2c74 <USART_Transmit_0>
    142c:	0f 9b       	sbis	0x01, 7	; 1
    142e:	05 c0       	rjmp	.+10     	; 0x143a <Scan_USART_Transmit+0x294>
    1430:	5d 9b       	sbis	0x0b, 5	; 11
    1432:	fe cf       	rjmp	.-4      	; 0x1430 <Scan_USART_Transmit+0x28a>
    1434:	81 e3       	ldi	r24, 0x31	; 49
    1436:	8c b9       	out	0x0c, r24	; 12
    1438:	02 c0       	rjmp	.+4      	; 0x143e <Scan_USART_Transmit+0x298>
    143a:	0e 94 3a 16 	call	0x2c74	; 0x2c74 <USART_Transmit_0>
    143e:	0e 94 d3 07 	call	0xfa6	; 0xfa6 <pull_PINB>
    1442:	0e 94 1b 08 	call	0x1036	; 0x1036 <pull_PIND>
    1446:	0e 94 43 08 	call	0x1086	; 0x1086 <pull_PINC>
    144a:	0e 94 8b 08 	call	0x1116	; 0x1116 <pull_PINA>
    144e:	12 98       	cbi	0x02, 2	; 2
    1450:	1a 98       	cbi	0x03, 2	; 3
    1452:	13 9a       	sbi	0x02, 3	; 2
    1454:	1b 9a       	sbi	0x03, 3	; 3
    1456:	8f e3       	ldi	r24, 0x3F	; 63
    1458:	9c e9       	ldi	r25, 0x9C	; 156
    145a:	01 97       	sbiw	r24, 0x01	; 1
    145c:	f1 f7       	brne	.-4      	; 0x145a <Scan_USART_Transmit+0x2b4>
    145e:	00 c0       	rjmp	.+0      	; 0x1460 <Scan_USART_Transmit+0x2ba>
    1460:	00 00       	nop
    1462:	0e 94 79 07 	call	0xef2	; 0xef2 <pull_PINF>
    1466:	0a 9b       	sbis	0x01, 2	; 1
    1468:	05 c0       	rjmp	.+10     	; 0x1474 <Scan_USART_Transmit+0x2ce>
    146a:	5d 9b       	sbis	0x0b, 5	; 11
    146c:	fe cf       	rjmp	.-4      	; 0x146a <Scan_USART_Transmit+0x2c4>
    146e:	81 e3       	ldi	r24, 0x31	; 49
    1470:	8c b9       	out	0x0c, r24	; 12
    1472:	02 c0       	rjmp	.+4      	; 0x1478 <Scan_USART_Transmit+0x2d2>
    1474:	0e 94 3a 16 	call	0x2c74	; 0x2c74 <USART_Transmit_0>
    1478:	5d 9b       	sbis	0x0b, 5	; 11
    147a:	fe cf       	rjmp	.-4      	; 0x1478 <Scan_USART_Transmit+0x2d2>
    147c:	85 e5       	ldi	r24, 0x55	; 85
    147e:	8c b9       	out	0x0c, r24	; 12
    1480:	0c 9b       	sbis	0x01, 4	; 1
    1482:	05 c0       	rjmp	.+10     	; 0x148e <Scan_USART_Transmit+0x2e8>
    1484:	5d 9b       	sbis	0x0b, 5	; 11
    1486:	fe cf       	rjmp	.-4      	; 0x1484 <Scan_USART_Transmit+0x2de>
    1488:	81 e3       	ldi	r24, 0x31	; 49
    148a:	8c b9       	out	0x0c, r24	; 12
    148c:	02 c0       	rjmp	.+4      	; 0x1492 <Scan_USART_Transmit+0x2ec>
    148e:	0e 94 3a 16 	call	0x2c74	; 0x2c74 <USART_Transmit_0>
    1492:	0d 9b       	sbis	0x01, 5	; 1
    1494:	05 c0       	rjmp	.+10     	; 0x14a0 <Scan_USART_Transmit+0x2fa>
    1496:	5d 9b       	sbis	0x0b, 5	; 11
    1498:	fe cf       	rjmp	.-4      	; 0x1496 <Scan_USART_Transmit+0x2f0>
    149a:	81 e3       	ldi	r24, 0x31	; 49
    149c:	8c b9       	out	0x0c, r24	; 12
    149e:	02 c0       	rjmp	.+4      	; 0x14a4 <Scan_USART_Transmit+0x2fe>
    14a0:	0e 94 3a 16 	call	0x2c74	; 0x2c74 <USART_Transmit_0>
    14a4:	0e 9b       	sbis	0x01, 6	; 1
    14a6:	05 c0       	rjmp	.+10     	; 0x14b2 <Scan_USART_Transmit+0x30c>
    14a8:	5d 9b       	sbis	0x0b, 5	; 11
    14aa:	fe cf       	rjmp	.-4      	; 0x14a8 <Scan_USART_Transmit+0x302>
    14ac:	81 e3       	ldi	r24, 0x31	; 49
    14ae:	8c b9       	out	0x0c, r24	; 12
    14b0:	02 c0       	rjmp	.+4      	; 0x14b6 <Scan_USART_Transmit+0x310>
    14b2:	0e 94 3a 16 	call	0x2c74	; 0x2c74 <USART_Transmit_0>
    14b6:	0f 9b       	sbis	0x01, 7	; 1
    14b8:	05 c0       	rjmp	.+10     	; 0x14c4 <Scan_USART_Transmit+0x31e>
    14ba:	5d 9b       	sbis	0x0b, 5	; 11
    14bc:	fe cf       	rjmp	.-4      	; 0x14ba <Scan_USART_Transmit+0x314>
    14be:	81 e3       	ldi	r24, 0x31	; 49
    14c0:	8c b9       	out	0x0c, r24	; 12
    14c2:	02 c0       	rjmp	.+4      	; 0x14c8 <Scan_USART_Transmit+0x322>
    14c4:	0e 94 3a 16 	call	0x2c74	; 0x2c74 <USART_Transmit_0>
    14c8:	0e 94 d3 07 	call	0xfa6	; 0xfa6 <pull_PINB>
    14cc:	0e 94 1b 08 	call	0x1036	; 0x1036 <pull_PIND>
    14d0:	0e 94 43 08 	call	0x1086	; 0x1086 <pull_PINC>
    14d4:	0e 94 8b 08 	call	0x1116	; 0x1116 <pull_PINA>
    14d8:	13 98       	cbi	0x02, 3	; 2
    14da:	1b 98       	cbi	0x03, 3	; 3
    14dc:	14 9a       	sbi	0x02, 4	; 2
    14de:	1c 9a       	sbi	0x03, 4	; 3
    14e0:	8f e3       	ldi	r24, 0x3F	; 63
    14e2:	9c e9       	ldi	r25, 0x9C	; 156
    14e4:	01 97       	sbiw	r24, 0x01	; 1
    14e6:	f1 f7       	brne	.-4      	; 0x14e4 <Scan_USART_Transmit+0x33e>
    14e8:	00 c0       	rjmp	.+0      	; 0x14ea <Scan_USART_Transmit+0x344>
    14ea:	00 00       	nop
    14ec:	0e 94 79 07 	call	0xef2	; 0xef2 <pull_PINF>
    14f0:	0a 9b       	sbis	0x01, 2	; 1
    14f2:	05 c0       	rjmp	.+10     	; 0x14fe <Scan_USART_Transmit+0x358>
    14f4:	5d 9b       	sbis	0x0b, 5	; 11
    14f6:	fe cf       	rjmp	.-4      	; 0x14f4 <Scan_USART_Transmit+0x34e>
    14f8:	81 e3       	ldi	r24, 0x31	; 49
    14fa:	8c b9       	out	0x0c, r24	; 12
    14fc:	02 c0       	rjmp	.+4      	; 0x1502 <Scan_USART_Transmit+0x35c>
    14fe:	0e 94 3a 16 	call	0x2c74	; 0x2c74 <USART_Transmit_0>
    1502:	0b 9b       	sbis	0x01, 3	; 1
    1504:	05 c0       	rjmp	.+10     	; 0x1510 <Scan_USART_Transmit+0x36a>
    1506:	5d 9b       	sbis	0x0b, 5	; 11
    1508:	fe cf       	rjmp	.-4      	; 0x1506 <Scan_USART_Transmit+0x360>
    150a:	81 e3       	ldi	r24, 0x31	; 49
    150c:	8c b9       	out	0x0c, r24	; 12
    150e:	02 c0       	rjmp	.+4      	; 0x1514 <Scan_USART_Transmit+0x36e>
    1510:	0e 94 3a 16 	call	0x2c74	; 0x2c74 <USART_Transmit_0>
    1514:	5d 9b       	sbis	0x0b, 5	; 11
    1516:	fe cf       	rjmp	.-4      	; 0x1514 <Scan_USART_Transmit+0x36e>
    1518:	85 e5       	ldi	r24, 0x55	; 85
    151a:	8c b9       	out	0x0c, r24	; 12
    151c:	0d 9b       	sbis	0x01, 5	; 1
    151e:	05 c0       	rjmp	.+10     	; 0x152a <Scan_USART_Transmit+0x384>
    1520:	5d 9b       	sbis	0x0b, 5	; 11
    1522:	fe cf       	rjmp	.-4      	; 0x1520 <Scan_USART_Transmit+0x37a>
    1524:	81 e3       	ldi	r24, 0x31	; 49
    1526:	8c b9       	out	0x0c, r24	; 12
    1528:	02 c0       	rjmp	.+4      	; 0x152e <Scan_USART_Transmit+0x388>
    152a:	0e 94 3a 16 	call	0x2c74	; 0x2c74 <USART_Transmit_0>
    152e:	0e 9b       	sbis	0x01, 6	; 1
    1530:	05 c0       	rjmp	.+10     	; 0x153c <Scan_USART_Transmit+0x396>
    1532:	5d 9b       	sbis	0x0b, 5	; 11
    1534:	fe cf       	rjmp	.-4      	; 0x1532 <Scan_USART_Transmit+0x38c>
    1536:	81 e3       	ldi	r24, 0x31	; 49
    1538:	8c b9       	out	0x0c, r24	; 12
    153a:	02 c0       	rjmp	.+4      	; 0x1540 <Scan_USART_Transmit+0x39a>
    153c:	0e 94 3a 16 	call	0x2c74	; 0x2c74 <USART_Transmit_0>
    1540:	0f 9b       	sbis	0x01, 7	; 1
    1542:	05 c0       	rjmp	.+10     	; 0x154e <Scan_USART_Transmit+0x3a8>
    1544:	5d 9b       	sbis	0x0b, 5	; 11
    1546:	fe cf       	rjmp	.-4      	; 0x1544 <Scan_USART_Transmit+0x39e>
    1548:	81 e3       	ldi	r24, 0x31	; 49
    154a:	8c b9       	out	0x0c, r24	; 12
    154c:	02 c0       	rjmp	.+4      	; 0x1552 <Scan_USART_Transmit+0x3ac>
    154e:	0e 94 3a 16 	call	0x2c74	; 0x2c74 <USART_Transmit_0>
    1552:	0e 94 d3 07 	call	0xfa6	; 0xfa6 <pull_PINB>
    1556:	0e 94 1b 08 	call	0x1036	; 0x1036 <pull_PIND>
    155a:	0e 94 43 08 	call	0x1086	; 0x1086 <pull_PINC>
    155e:	0e 94 8b 08 	call	0x1116	; 0x1116 <pull_PINA>
    1562:	14 98       	cbi	0x02, 4	; 2
    1564:	1c 98       	cbi	0x03, 4	; 3
    1566:	15 9a       	sbi	0x02, 5	; 2
    1568:	1d 9a       	sbi	0x03, 5	; 3
    156a:	8f e3       	ldi	r24, 0x3F	; 63
    156c:	9c e9       	ldi	r25, 0x9C	; 156
    156e:	01 97       	sbiw	r24, 0x01	; 1
    1570:	f1 f7       	brne	.-4      	; 0x156e <Scan_USART_Transmit+0x3c8>
    1572:	00 c0       	rjmp	.+0      	; 0x1574 <Scan_USART_Transmit+0x3ce>
    1574:	00 00       	nop
    1576:	0e 94 79 07 	call	0xef2	; 0xef2 <pull_PINF>
    157a:	0a 9b       	sbis	0x01, 2	; 1
    157c:	05 c0       	rjmp	.+10     	; 0x1588 <Scan_USART_Transmit+0x3e2>
    157e:	5d 9b       	sbis	0x0b, 5	; 11
    1580:	fe cf       	rjmp	.-4      	; 0x157e <Scan_USART_Transmit+0x3d8>
    1582:	81 e3       	ldi	r24, 0x31	; 49
    1584:	8c b9       	out	0x0c, r24	; 12
    1586:	02 c0       	rjmp	.+4      	; 0x158c <Scan_USART_Transmit+0x3e6>
    1588:	0e 94 3a 16 	call	0x2c74	; 0x2c74 <USART_Transmit_0>
    158c:	0b 9b       	sbis	0x01, 3	; 1
    158e:	05 c0       	rjmp	.+10     	; 0x159a <Scan_USART_Transmit+0x3f4>
    1590:	5d 9b       	sbis	0x0b, 5	; 11
    1592:	fe cf       	rjmp	.-4      	; 0x1590 <Scan_USART_Transmit+0x3ea>
    1594:	81 e3       	ldi	r24, 0x31	; 49
    1596:	8c b9       	out	0x0c, r24	; 12
    1598:	02 c0       	rjmp	.+4      	; 0x159e <Scan_USART_Transmit+0x3f8>
    159a:	0e 94 3a 16 	call	0x2c74	; 0x2c74 <USART_Transmit_0>
    159e:	0c 9b       	sbis	0x01, 4	; 1
    15a0:	05 c0       	rjmp	.+10     	; 0x15ac <Scan_USART_Transmit+0x406>
    15a2:	5d 9b       	sbis	0x0b, 5	; 11
    15a4:	fe cf       	rjmp	.-4      	; 0x15a2 <Scan_USART_Transmit+0x3fc>
    15a6:	81 e3       	ldi	r24, 0x31	; 49
    15a8:	8c b9       	out	0x0c, r24	; 12
    15aa:	02 c0       	rjmp	.+4      	; 0x15b0 <Scan_USART_Transmit+0x40a>
    15ac:	0e 94 3a 16 	call	0x2c74	; 0x2c74 <USART_Transmit_0>
    15b0:	5d 9b       	sbis	0x0b, 5	; 11
    15b2:	fe cf       	rjmp	.-4      	; 0x15b0 <Scan_USART_Transmit+0x40a>
    15b4:	85 e5       	ldi	r24, 0x55	; 85
    15b6:	8c b9       	out	0x0c, r24	; 12
    15b8:	0e 9b       	sbis	0x01, 6	; 1
    15ba:	05 c0       	rjmp	.+10     	; 0x15c6 <Scan_USART_Transmit+0x420>
    15bc:	5d 9b       	sbis	0x0b, 5	; 11
    15be:	fe cf       	rjmp	.-4      	; 0x15bc <Scan_USART_Transmit+0x416>
    15c0:	81 e3       	ldi	r24, 0x31	; 49
    15c2:	8c b9       	out	0x0c, r24	; 12
    15c4:	02 c0       	rjmp	.+4      	; 0x15ca <Scan_USART_Transmit+0x424>
    15c6:	0e 94 3a 16 	call	0x2c74	; 0x2c74 <USART_Transmit_0>
    15ca:	0f 9b       	sbis	0x01, 7	; 1
    15cc:	05 c0       	rjmp	.+10     	; 0x15d8 <Scan_USART_Transmit+0x432>
    15ce:	5d 9b       	sbis	0x0b, 5	; 11
    15d0:	fe cf       	rjmp	.-4      	; 0x15ce <Scan_USART_Transmit+0x428>
    15d2:	81 e3       	ldi	r24, 0x31	; 49
    15d4:	8c b9       	out	0x0c, r24	; 12
    15d6:	02 c0       	rjmp	.+4      	; 0x15dc <Scan_USART_Transmit+0x436>
    15d8:	0e 94 3a 16 	call	0x2c74	; 0x2c74 <USART_Transmit_0>
    15dc:	0e 94 d3 07 	call	0xfa6	; 0xfa6 <pull_PINB>
    15e0:	0e 94 1b 08 	call	0x1036	; 0x1036 <pull_PIND>
    15e4:	0e 94 43 08 	call	0x1086	; 0x1086 <pull_PINC>
    15e8:	0e 94 8b 08 	call	0x1116	; 0x1116 <pull_PINA>
    15ec:	15 98       	cbi	0x02, 5	; 2
    15ee:	1d 98       	cbi	0x03, 5	; 3
    15f0:	16 9a       	sbi	0x02, 6	; 2
    15f2:	1e 9a       	sbi	0x03, 6	; 3
    15f4:	8f e3       	ldi	r24, 0x3F	; 63
    15f6:	9c e9       	ldi	r25, 0x9C	; 156
    15f8:	01 97       	sbiw	r24, 0x01	; 1
    15fa:	f1 f7       	brne	.-4      	; 0x15f8 <Scan_USART_Transmit+0x452>
    15fc:	00 c0       	rjmp	.+0      	; 0x15fe <Scan_USART_Transmit+0x458>
    15fe:	00 00       	nop
    1600:	0e 94 79 07 	call	0xef2	; 0xef2 <pull_PINF>
    1604:	0a 9b       	sbis	0x01, 2	; 1
    1606:	05 c0       	rjmp	.+10     	; 0x1612 <Scan_USART_Transmit+0x46c>
    1608:	5d 9b       	sbis	0x0b, 5	; 11
    160a:	fe cf       	rjmp	.-4      	; 0x1608 <Scan_USART_Transmit+0x462>
    160c:	81 e3       	ldi	r24, 0x31	; 49
    160e:	8c b9       	out	0x0c, r24	; 12
    1610:	02 c0       	rjmp	.+4      	; 0x1616 <Scan_USART_Transmit+0x470>
    1612:	0e 94 3a 16 	call	0x2c74	; 0x2c74 <USART_Transmit_0>
    1616:	0b 9b       	sbis	0x01, 3	; 1
    1618:	05 c0       	rjmp	.+10     	; 0x1624 <Scan_USART_Transmit+0x47e>
    161a:	5d 9b       	sbis	0x0b, 5	; 11
    161c:	fe cf       	rjmp	.-4      	; 0x161a <Scan_USART_Transmit+0x474>
    161e:	81 e3       	ldi	r24, 0x31	; 49
    1620:	8c b9       	out	0x0c, r24	; 12
    1622:	02 c0       	rjmp	.+4      	; 0x1628 <Scan_USART_Transmit+0x482>
    1624:	0e 94 3a 16 	call	0x2c74	; 0x2c74 <USART_Transmit_0>
    1628:	0c 9b       	sbis	0x01, 4	; 1
    162a:	05 c0       	rjmp	.+10     	; 0x1636 <Scan_USART_Transmit+0x490>
    162c:	5d 9b       	sbis	0x0b, 5	; 11
    162e:	fe cf       	rjmp	.-4      	; 0x162c <Scan_USART_Transmit+0x486>
    1630:	81 e3       	ldi	r24, 0x31	; 49
    1632:	8c b9       	out	0x0c, r24	; 12
    1634:	02 c0       	rjmp	.+4      	; 0x163a <Scan_USART_Transmit+0x494>
    1636:	0e 94 3a 16 	call	0x2c74	; 0x2c74 <USART_Transmit_0>
    163a:	0d 9b       	sbis	0x01, 5	; 1
    163c:	05 c0       	rjmp	.+10     	; 0x1648 <Scan_USART_Transmit+0x4a2>
    163e:	5d 9b       	sbis	0x0b, 5	; 11
    1640:	fe cf       	rjmp	.-4      	; 0x163e <Scan_USART_Transmit+0x498>
    1642:	81 e3       	ldi	r24, 0x31	; 49
    1644:	8c b9       	out	0x0c, r24	; 12
    1646:	02 c0       	rjmp	.+4      	; 0x164c <Scan_USART_Transmit+0x4a6>
    1648:	0e 94 3a 16 	call	0x2c74	; 0x2c74 <USART_Transmit_0>
    164c:	5d 9b       	sbis	0x0b, 5	; 11
    164e:	fe cf       	rjmp	.-4      	; 0x164c <Scan_USART_Transmit+0x4a6>
    1650:	85 e5       	ldi	r24, 0x55	; 85
    1652:	8c b9       	out	0x0c, r24	; 12
    1654:	0f 9b       	sbis	0x01, 7	; 1
    1656:	05 c0       	rjmp	.+10     	; 0x1662 <Scan_USART_Transmit+0x4bc>
    1658:	5d 9b       	sbis	0x0b, 5	; 11
    165a:	fe cf       	rjmp	.-4      	; 0x1658 <Scan_USART_Transmit+0x4b2>
    165c:	81 e3       	ldi	r24, 0x31	; 49
    165e:	8c b9       	out	0x0c, r24	; 12
    1660:	02 c0       	rjmp	.+4      	; 0x1666 <Scan_USART_Transmit+0x4c0>
    1662:	0e 94 3a 16 	call	0x2c74	; 0x2c74 <USART_Transmit_0>
    1666:	0e 94 d3 07 	call	0xfa6	; 0xfa6 <pull_PINB>
    166a:	0e 94 1b 08 	call	0x1036	; 0x1036 <pull_PIND>
    166e:	0e 94 43 08 	call	0x1086	; 0x1086 <pull_PINC>
    1672:	0e 94 8b 08 	call	0x1116	; 0x1116 <pull_PINA>
    1676:	16 98       	cbi	0x02, 6	; 2
    1678:	1e 98       	cbi	0x03, 6	; 3
    167a:	17 9a       	sbi	0x02, 7	; 2
    167c:	1f 9a       	sbi	0x03, 7	; 3
    167e:	8f e3       	ldi	r24, 0x3F	; 63
    1680:	9c e9       	ldi	r25, 0x9C	; 156
    1682:	01 97       	sbiw	r24, 0x01	; 1
    1684:	f1 f7       	brne	.-4      	; 0x1682 <Scan_USART_Transmit+0x4dc>
    1686:	00 c0       	rjmp	.+0      	; 0x1688 <Scan_USART_Transmit+0x4e2>
    1688:	00 00       	nop
    168a:	0e 94 79 07 	call	0xef2	; 0xef2 <pull_PINF>
    168e:	0a 9b       	sbis	0x01, 2	; 1
    1690:	05 c0       	rjmp	.+10     	; 0x169c <Scan_USART_Transmit+0x4f6>
    1692:	5d 9b       	sbis	0x0b, 5	; 11
    1694:	fe cf       	rjmp	.-4      	; 0x1692 <Scan_USART_Transmit+0x4ec>
    1696:	81 e3       	ldi	r24, 0x31	; 49
    1698:	8c b9       	out	0x0c, r24	; 12
    169a:	02 c0       	rjmp	.+4      	; 0x16a0 <Scan_USART_Transmit+0x4fa>
    169c:	0e 94 3a 16 	call	0x2c74	; 0x2c74 <USART_Transmit_0>
    16a0:	0b 9b       	sbis	0x01, 3	; 1
    16a2:	05 c0       	rjmp	.+10     	; 0x16ae <Scan_USART_Transmit+0x508>
    16a4:	5d 9b       	sbis	0x0b, 5	; 11
    16a6:	fe cf       	rjmp	.-4      	; 0x16a4 <Scan_USART_Transmit+0x4fe>
    16a8:	81 e3       	ldi	r24, 0x31	; 49
    16aa:	8c b9       	out	0x0c, r24	; 12
    16ac:	02 c0       	rjmp	.+4      	; 0x16b2 <Scan_USART_Transmit+0x50c>
    16ae:	0e 94 3a 16 	call	0x2c74	; 0x2c74 <USART_Transmit_0>
    16b2:	0c 9b       	sbis	0x01, 4	; 1
    16b4:	05 c0       	rjmp	.+10     	; 0x16c0 <Scan_USART_Transmit+0x51a>
    16b6:	5d 9b       	sbis	0x0b, 5	; 11
    16b8:	fe cf       	rjmp	.-4      	; 0x16b6 <Scan_USART_Transmit+0x510>
    16ba:	81 e3       	ldi	r24, 0x31	; 49
    16bc:	8c b9       	out	0x0c, r24	; 12
    16be:	02 c0       	rjmp	.+4      	; 0x16c4 <Scan_USART_Transmit+0x51e>
    16c0:	0e 94 3a 16 	call	0x2c74	; 0x2c74 <USART_Transmit_0>
    16c4:	0d 9b       	sbis	0x01, 5	; 1
    16c6:	05 c0       	rjmp	.+10     	; 0x16d2 <Scan_USART_Transmit+0x52c>
    16c8:	5d 9b       	sbis	0x0b, 5	; 11
    16ca:	fe cf       	rjmp	.-4      	; 0x16c8 <Scan_USART_Transmit+0x522>
    16cc:	81 e3       	ldi	r24, 0x31	; 49
    16ce:	8c b9       	out	0x0c, r24	; 12
    16d0:	02 c0       	rjmp	.+4      	; 0x16d6 <Scan_USART_Transmit+0x530>
    16d2:	0e 94 3a 16 	call	0x2c74	; 0x2c74 <USART_Transmit_0>
    16d6:	0e 9b       	sbis	0x01, 6	; 1
    16d8:	05 c0       	rjmp	.+10     	; 0x16e4 <Scan_USART_Transmit+0x53e>
    16da:	5d 9b       	sbis	0x0b, 5	; 11
    16dc:	fe cf       	rjmp	.-4      	; 0x16da <Scan_USART_Transmit+0x534>
    16de:	81 e3       	ldi	r24, 0x31	; 49
    16e0:	8c b9       	out	0x0c, r24	; 12
    16e2:	02 c0       	rjmp	.+4      	; 0x16e8 <Scan_USART_Transmit+0x542>
    16e4:	0e 94 3a 16 	call	0x2c74	; 0x2c74 <USART_Transmit_0>
    16e8:	5d 9b       	sbis	0x0b, 5	; 11
    16ea:	fe cf       	rjmp	.-4      	; 0x16e8 <Scan_USART_Transmit+0x542>
    16ec:	85 e5       	ldi	r24, 0x55	; 85
    16ee:	8c b9       	out	0x0c, r24	; 12
    16f0:	0e 94 d3 07 	call	0xfa6	; 0xfa6 <pull_PINB>
    16f4:	0e 94 1b 08 	call	0x1036	; 0x1036 <pull_PIND>
    16f8:	0e 94 43 08 	call	0x1086	; 0x1086 <pull_PINC>
    16fc:	0e 94 8b 08 	call	0x1116	; 0x1116 <pull_PINA>
    1700:	17 98       	cbi	0x02, 7	; 2
    1702:	1f 98       	cbi	0x03, 7	; 3
    1704:	b8 9a       	sbi	0x17, 0	; 23
    1706:	c0 9a       	sbi	0x18, 0	; 24
    1708:	8f e3       	ldi	r24, 0x3F	; 63
    170a:	9c e9       	ldi	r25, 0x9C	; 156
    170c:	01 97       	sbiw	r24, 0x01	; 1
    170e:	f1 f7       	brne	.-4      	; 0x170c <Scan_USART_Transmit+0x566>
    1710:	00 c0       	rjmp	.+0      	; 0x1712 <Scan_USART_Transmit+0x56c>
    1712:	00 00       	nop
    1714:	0e 94 79 07 	call	0xef2	; 0xef2 <pull_PINF>
    1718:	0e 94 9d 07 	call	0xf3a	; 0xf3a <pull_PINE>
    171c:	5d 9b       	sbis	0x0b, 5	; 11
    171e:	fe cf       	rjmp	.-4      	; 0x171c <Scan_USART_Transmit+0x576>
    1720:	85 e5       	ldi	r24, 0x55	; 85
    1722:	8c b9       	out	0x0c, r24	; 12
    1724:	b1 9b       	sbis	0x16, 1	; 22
    1726:	05 c0       	rjmp	.+10     	; 0x1732 <Scan_USART_Transmit+0x58c>
    1728:	5d 9b       	sbis	0x0b, 5	; 11
    172a:	fe cf       	rjmp	.-4      	; 0x1728 <Scan_USART_Transmit+0x582>
    172c:	81 e3       	ldi	r24, 0x31	; 49
    172e:	8c b9       	out	0x0c, r24	; 12
    1730:	02 c0       	rjmp	.+4      	; 0x1736 <Scan_USART_Transmit+0x590>
    1732:	0e 94 3a 16 	call	0x2c74	; 0x2c74 <USART_Transmit_0>
    1736:	b2 9b       	sbis	0x16, 2	; 22
    1738:	05 c0       	rjmp	.+10     	; 0x1744 <Scan_USART_Transmit+0x59e>
    173a:	5d 9b       	sbis	0x0b, 5	; 11
    173c:	fe cf       	rjmp	.-4      	; 0x173a <Scan_USART_Transmit+0x594>
    173e:	81 e3       	ldi	r24, 0x31	; 49
    1740:	8c b9       	out	0x0c, r24	; 12
    1742:	02 c0       	rjmp	.+4      	; 0x1748 <Scan_USART_Transmit+0x5a2>
    1744:	0e 94 3a 16 	call	0x2c74	; 0x2c74 <USART_Transmit_0>
    1748:	b3 9b       	sbis	0x16, 3	; 22
    174a:	05 c0       	rjmp	.+10     	; 0x1756 <Scan_USART_Transmit+0x5b0>
    174c:	5d 9b       	sbis	0x0b, 5	; 11
    174e:	fe cf       	rjmp	.-4      	; 0x174c <Scan_USART_Transmit+0x5a6>
    1750:	81 e3       	ldi	r24, 0x31	; 49
    1752:	8c b9       	out	0x0c, r24	; 12
    1754:	02 c0       	rjmp	.+4      	; 0x175a <Scan_USART_Transmit+0x5b4>
    1756:	0e 94 3a 16 	call	0x2c74	; 0x2c74 <USART_Transmit_0>
    175a:	b4 9b       	sbis	0x16, 4	; 22
    175c:	05 c0       	rjmp	.+10     	; 0x1768 <Scan_USART_Transmit+0x5c2>
    175e:	5d 9b       	sbis	0x0b, 5	; 11
    1760:	fe cf       	rjmp	.-4      	; 0x175e <Scan_USART_Transmit+0x5b8>
    1762:	81 e3       	ldi	r24, 0x31	; 49
    1764:	8c b9       	out	0x0c, r24	; 12
    1766:	02 c0       	rjmp	.+4      	; 0x176c <Scan_USART_Transmit+0x5c6>
    1768:	0e 94 3a 16 	call	0x2c74	; 0x2c74 <USART_Transmit_0>
    176c:	b5 9b       	sbis	0x16, 5	; 22
    176e:	05 c0       	rjmp	.+10     	; 0x177a <Scan_USART_Transmit+0x5d4>
    1770:	5d 9b       	sbis	0x0b, 5	; 11
    1772:	fe cf       	rjmp	.-4      	; 0x1770 <Scan_USART_Transmit+0x5ca>
    1774:	81 e3       	ldi	r24, 0x31	; 49
    1776:	8c b9       	out	0x0c, r24	; 12
    1778:	02 c0       	rjmp	.+4      	; 0x177e <Scan_USART_Transmit+0x5d8>
    177a:	0e 94 3a 16 	call	0x2c74	; 0x2c74 <USART_Transmit_0>
    177e:	b6 9b       	sbis	0x16, 6	; 22
    1780:	05 c0       	rjmp	.+10     	; 0x178c <Scan_USART_Transmit+0x5e6>
    1782:	5d 9b       	sbis	0x0b, 5	; 11
    1784:	fe cf       	rjmp	.-4      	; 0x1782 <Scan_USART_Transmit+0x5dc>
    1786:	81 e3       	ldi	r24, 0x31	; 49
    1788:	8c b9       	out	0x0c, r24	; 12
    178a:	02 c0       	rjmp	.+4      	; 0x1790 <Scan_USART_Transmit+0x5ea>
    178c:	0e 94 3a 16 	call	0x2c74	; 0x2c74 <USART_Transmit_0>
    1790:	b7 9b       	sbis	0x16, 7	; 22
    1792:	05 c0       	rjmp	.+10     	; 0x179e <Scan_USART_Transmit+0x5f8>
    1794:	5d 9b       	sbis	0x0b, 5	; 11
    1796:	fe cf       	rjmp	.-4      	; 0x1794 <Scan_USART_Transmit+0x5ee>
    1798:	81 e3       	ldi	r24, 0x31	; 49
    179a:	8c b9       	out	0x0c, r24	; 12
    179c:	02 c0       	rjmp	.+4      	; 0x17a2 <Scan_USART_Transmit+0x5fc>
    179e:	0e 94 3a 16 	call	0x2c74	; 0x2c74 <USART_Transmit_0>
    17a2:	0e 94 1b 08 	call	0x1036	; 0x1036 <pull_PIND>
    17a6:	0e 94 43 08 	call	0x1086	; 0x1086 <pull_PINC>
    17aa:	0e 94 8b 08 	call	0x1116	; 0x1116 <pull_PINA>
    17ae:	b8 98       	cbi	0x17, 0	; 23
    17b0:	c0 98       	cbi	0x18, 0	; 24
    17b2:	b9 9a       	sbi	0x17, 1	; 23
    17b4:	c1 9a       	sbi	0x18, 1	; 24
    17b6:	8f e3       	ldi	r24, 0x3F	; 63
    17b8:	9c e9       	ldi	r25, 0x9C	; 156
    17ba:	01 97       	sbiw	r24, 0x01	; 1
    17bc:	f1 f7       	brne	.-4      	; 0x17ba <Scan_USART_Transmit+0x614>
    17be:	00 c0       	rjmp	.+0      	; 0x17c0 <Scan_USART_Transmit+0x61a>
    17c0:	00 00       	nop
    17c2:	0e 94 79 07 	call	0xef2	; 0xef2 <pull_PINF>
    17c6:	0e 94 9d 07 	call	0xf3a	; 0xf3a <pull_PINE>
    17ca:	b0 9b       	sbis	0x16, 0	; 22
    17cc:	05 c0       	rjmp	.+10     	; 0x17d8 <Scan_USART_Transmit+0x632>
    17ce:	5d 9b       	sbis	0x0b, 5	; 11
    17d0:	fe cf       	rjmp	.-4      	; 0x17ce <Scan_USART_Transmit+0x628>
    17d2:	81 e3       	ldi	r24, 0x31	; 49
    17d4:	8c b9       	out	0x0c, r24	; 12
    17d6:	02 c0       	rjmp	.+4      	; 0x17dc <Scan_USART_Transmit+0x636>
    17d8:	0e 94 3a 16 	call	0x2c74	; 0x2c74 <USART_Transmit_0>
    17dc:	5d 9b       	sbis	0x0b, 5	; 11
    17de:	fe cf       	rjmp	.-4      	; 0x17dc <Scan_USART_Transmit+0x636>
    17e0:	85 e5       	ldi	r24, 0x55	; 85
    17e2:	8c b9       	out	0x0c, r24	; 12
    17e4:	b2 9b       	sbis	0x16, 2	; 22
    17e6:	05 c0       	rjmp	.+10     	; 0x17f2 <Scan_USART_Transmit+0x64c>
    17e8:	5d 9b       	sbis	0x0b, 5	; 11
    17ea:	fe cf       	rjmp	.-4      	; 0x17e8 <Scan_USART_Transmit+0x642>
    17ec:	81 e3       	ldi	r24, 0x31	; 49
    17ee:	8c b9       	out	0x0c, r24	; 12
    17f0:	02 c0       	rjmp	.+4      	; 0x17f6 <Scan_USART_Transmit+0x650>
    17f2:	0e 94 3a 16 	call	0x2c74	; 0x2c74 <USART_Transmit_0>
    17f6:	b3 9b       	sbis	0x16, 3	; 22
    17f8:	05 c0       	rjmp	.+10     	; 0x1804 <Scan_USART_Transmit+0x65e>
    17fa:	5d 9b       	sbis	0x0b, 5	; 11
    17fc:	fe cf       	rjmp	.-4      	; 0x17fa <Scan_USART_Transmit+0x654>
    17fe:	81 e3       	ldi	r24, 0x31	; 49
    1800:	8c b9       	out	0x0c, r24	; 12
    1802:	02 c0       	rjmp	.+4      	; 0x1808 <Scan_USART_Transmit+0x662>
    1804:	0e 94 3a 16 	call	0x2c74	; 0x2c74 <USART_Transmit_0>
    1808:	b4 9b       	sbis	0x16, 4	; 22
    180a:	05 c0       	rjmp	.+10     	; 0x1816 <Scan_USART_Transmit+0x670>
    180c:	5d 9b       	sbis	0x0b, 5	; 11
    180e:	fe cf       	rjmp	.-4      	; 0x180c <Scan_USART_Transmit+0x666>
    1810:	81 e3       	ldi	r24, 0x31	; 49
    1812:	8c b9       	out	0x0c, r24	; 12
    1814:	02 c0       	rjmp	.+4      	; 0x181a <Scan_USART_Transmit+0x674>
    1816:	0e 94 3a 16 	call	0x2c74	; 0x2c74 <USART_Transmit_0>
    181a:	b5 9b       	sbis	0x16, 5	; 22
    181c:	05 c0       	rjmp	.+10     	; 0x1828 <Scan_USART_Transmit+0x682>
    181e:	5d 9b       	sbis	0x0b, 5	; 11
    1820:	fe cf       	rjmp	.-4      	; 0x181e <Scan_USART_Transmit+0x678>
    1822:	81 e3       	ldi	r24, 0x31	; 49
    1824:	8c b9       	out	0x0c, r24	; 12
    1826:	02 c0       	rjmp	.+4      	; 0x182c <Scan_USART_Transmit+0x686>
    1828:	0e 94 3a 16 	call	0x2c74	; 0x2c74 <USART_Transmit_0>
    182c:	b6 9b       	sbis	0x16, 6	; 22
    182e:	05 c0       	rjmp	.+10     	; 0x183a <Scan_USART_Transmit+0x694>
    1830:	5d 9b       	sbis	0x0b, 5	; 11
    1832:	fe cf       	rjmp	.-4      	; 0x1830 <Scan_USART_Transmit+0x68a>
    1834:	81 e3       	ldi	r24, 0x31	; 49
    1836:	8c b9       	out	0x0c, r24	; 12
    1838:	02 c0       	rjmp	.+4      	; 0x183e <Scan_USART_Transmit+0x698>
    183a:	0e 94 3a 16 	call	0x2c74	; 0x2c74 <USART_Transmit_0>
    183e:	b7 9b       	sbis	0x16, 7	; 22
    1840:	05 c0       	rjmp	.+10     	; 0x184c <Scan_USART_Transmit+0x6a6>
    1842:	5d 9b       	sbis	0x0b, 5	; 11
    1844:	fe cf       	rjmp	.-4      	; 0x1842 <Scan_USART_Transmit+0x69c>
    1846:	81 e3       	ldi	r24, 0x31	; 49
    1848:	8c b9       	out	0x0c, r24	; 12
    184a:	02 c0       	rjmp	.+4      	; 0x1850 <Scan_USART_Transmit+0x6aa>
    184c:	0e 94 3a 16 	call	0x2c74	; 0x2c74 <USART_Transmit_0>
    1850:	0e 94 1b 08 	call	0x1036	; 0x1036 <pull_PIND>
    1854:	0e 94 43 08 	call	0x1086	; 0x1086 <pull_PINC>
    1858:	0e 94 8b 08 	call	0x1116	; 0x1116 <pull_PINA>
    185c:	b9 98       	cbi	0x17, 1	; 23
    185e:	c1 98       	cbi	0x18, 1	; 24
    1860:	ba 9a       	sbi	0x17, 2	; 23
    1862:	c2 9a       	sbi	0x18, 2	; 24
    1864:	8f e3       	ldi	r24, 0x3F	; 63
    1866:	9c e9       	ldi	r25, 0x9C	; 156
    1868:	01 97       	sbiw	r24, 0x01	; 1
    186a:	f1 f7       	brne	.-4      	; 0x1868 <Scan_USART_Transmit+0x6c2>
    186c:	00 c0       	rjmp	.+0      	; 0x186e <Scan_USART_Transmit+0x6c8>
    186e:	00 00       	nop
    1870:	0e 94 79 07 	call	0xef2	; 0xef2 <pull_PINF>
    1874:	0e 94 9d 07 	call	0xf3a	; 0xf3a <pull_PINE>
    1878:	b0 9b       	sbis	0x16, 0	; 22
    187a:	05 c0       	rjmp	.+10     	; 0x1886 <Scan_USART_Transmit+0x6e0>
    187c:	5d 9b       	sbis	0x0b, 5	; 11
    187e:	fe cf       	rjmp	.-4      	; 0x187c <Scan_USART_Transmit+0x6d6>
    1880:	81 e3       	ldi	r24, 0x31	; 49
    1882:	8c b9       	out	0x0c, r24	; 12
    1884:	02 c0       	rjmp	.+4      	; 0x188a <Scan_USART_Transmit+0x6e4>
    1886:	0e 94 3a 16 	call	0x2c74	; 0x2c74 <USART_Transmit_0>
    188a:	b1 9b       	sbis	0x16, 1	; 22
    188c:	05 c0       	rjmp	.+10     	; 0x1898 <Scan_USART_Transmit+0x6f2>
    188e:	5d 9b       	sbis	0x0b, 5	; 11
    1890:	fe cf       	rjmp	.-4      	; 0x188e <Scan_USART_Transmit+0x6e8>
    1892:	81 e3       	ldi	r24, 0x31	; 49
    1894:	8c b9       	out	0x0c, r24	; 12
    1896:	02 c0       	rjmp	.+4      	; 0x189c <Scan_USART_Transmit+0x6f6>
    1898:	0e 94 3a 16 	call	0x2c74	; 0x2c74 <USART_Transmit_0>
    189c:	5d 9b       	sbis	0x0b, 5	; 11
    189e:	fe cf       	rjmp	.-4      	; 0x189c <Scan_USART_Transmit+0x6f6>
    18a0:	85 e5       	ldi	r24, 0x55	; 85
    18a2:	8c b9       	out	0x0c, r24	; 12
    18a4:	b3 9b       	sbis	0x16, 3	; 22
    18a6:	05 c0       	rjmp	.+10     	; 0x18b2 <Scan_USART_Transmit+0x70c>
    18a8:	5d 9b       	sbis	0x0b, 5	; 11
    18aa:	fe cf       	rjmp	.-4      	; 0x18a8 <Scan_USART_Transmit+0x702>
    18ac:	81 e3       	ldi	r24, 0x31	; 49
    18ae:	8c b9       	out	0x0c, r24	; 12
    18b0:	02 c0       	rjmp	.+4      	; 0x18b6 <Scan_USART_Transmit+0x710>
    18b2:	0e 94 3a 16 	call	0x2c74	; 0x2c74 <USART_Transmit_0>
    18b6:	b4 9b       	sbis	0x16, 4	; 22
    18b8:	05 c0       	rjmp	.+10     	; 0x18c4 <Scan_USART_Transmit+0x71e>
    18ba:	5d 9b       	sbis	0x0b, 5	; 11
    18bc:	fe cf       	rjmp	.-4      	; 0x18ba <Scan_USART_Transmit+0x714>
    18be:	81 e3       	ldi	r24, 0x31	; 49
    18c0:	8c b9       	out	0x0c, r24	; 12
    18c2:	02 c0       	rjmp	.+4      	; 0x18c8 <Scan_USART_Transmit+0x722>
    18c4:	0e 94 3a 16 	call	0x2c74	; 0x2c74 <USART_Transmit_0>
    18c8:	b5 9b       	sbis	0x16, 5	; 22
    18ca:	05 c0       	rjmp	.+10     	; 0x18d6 <Scan_USART_Transmit+0x730>
    18cc:	5d 9b       	sbis	0x0b, 5	; 11
    18ce:	fe cf       	rjmp	.-4      	; 0x18cc <Scan_USART_Transmit+0x726>
    18d0:	81 e3       	ldi	r24, 0x31	; 49
    18d2:	8c b9       	out	0x0c, r24	; 12
    18d4:	02 c0       	rjmp	.+4      	; 0x18da <Scan_USART_Transmit+0x734>
    18d6:	0e 94 3a 16 	call	0x2c74	; 0x2c74 <USART_Transmit_0>
    18da:	b6 9b       	sbis	0x16, 6	; 22
    18dc:	05 c0       	rjmp	.+10     	; 0x18e8 <Scan_USART_Transmit+0x742>
    18de:	5d 9b       	sbis	0x0b, 5	; 11
    18e0:	fe cf       	rjmp	.-4      	; 0x18de <Scan_USART_Transmit+0x738>
    18e2:	81 e3       	ldi	r24, 0x31	; 49
    18e4:	8c b9       	out	0x0c, r24	; 12
    18e6:	02 c0       	rjmp	.+4      	; 0x18ec <Scan_USART_Transmit+0x746>
    18e8:	0e 94 3a 16 	call	0x2c74	; 0x2c74 <USART_Transmit_0>
    18ec:	b7 9b       	sbis	0x16, 7	; 22
    18ee:	05 c0       	rjmp	.+10     	; 0x18fa <Scan_USART_Transmit+0x754>
    18f0:	5d 9b       	sbis	0x0b, 5	; 11
    18f2:	fe cf       	rjmp	.-4      	; 0x18f0 <Scan_USART_Transmit+0x74a>
    18f4:	81 e3       	ldi	r24, 0x31	; 49
    18f6:	8c b9       	out	0x0c, r24	; 12
    18f8:	02 c0       	rjmp	.+4      	; 0x18fe <Scan_USART_Transmit+0x758>
    18fa:	0e 94 3a 16 	call	0x2c74	; 0x2c74 <USART_Transmit_0>
    18fe:	0e 94 1b 08 	call	0x1036	; 0x1036 <pull_PIND>
    1902:	0e 94 43 08 	call	0x1086	; 0x1086 <pull_PINC>
    1906:	0e 94 8b 08 	call	0x1116	; 0x1116 <pull_PINA>
    190a:	ba 98       	cbi	0x17, 2	; 23
    190c:	c2 98       	cbi	0x18, 2	; 24
    190e:	bb 9a       	sbi	0x17, 3	; 23
    1910:	c3 9a       	sbi	0x18, 3	; 24
    1912:	8f e3       	ldi	r24, 0x3F	; 63
    1914:	9c e9       	ldi	r25, 0x9C	; 156
    1916:	01 97       	sbiw	r24, 0x01	; 1
    1918:	f1 f7       	brne	.-4      	; 0x1916 <Scan_USART_Transmit+0x770>
    191a:	00 c0       	rjmp	.+0      	; 0x191c <Scan_USART_Transmit+0x776>
    191c:	00 00       	nop
    191e:	0e 94 79 07 	call	0xef2	; 0xef2 <pull_PINF>
    1922:	0e 94 9d 07 	call	0xf3a	; 0xf3a <pull_PINE>
    1926:	b0 9b       	sbis	0x16, 0	; 22
    1928:	05 c0       	rjmp	.+10     	; 0x1934 <Scan_USART_Transmit+0x78e>
    192a:	5d 9b       	sbis	0x0b, 5	; 11
    192c:	fe cf       	rjmp	.-4      	; 0x192a <Scan_USART_Transmit+0x784>
    192e:	81 e3       	ldi	r24, 0x31	; 49
    1930:	8c b9       	out	0x0c, r24	; 12
    1932:	02 c0       	rjmp	.+4      	; 0x1938 <Scan_USART_Transmit+0x792>
    1934:	0e 94 3a 16 	call	0x2c74	; 0x2c74 <USART_Transmit_0>
    1938:	b1 9b       	sbis	0x16, 1	; 22
    193a:	05 c0       	rjmp	.+10     	; 0x1946 <Scan_USART_Transmit+0x7a0>
    193c:	5d 9b       	sbis	0x0b, 5	; 11
    193e:	fe cf       	rjmp	.-4      	; 0x193c <Scan_USART_Transmit+0x796>
    1940:	81 e3       	ldi	r24, 0x31	; 49
    1942:	8c b9       	out	0x0c, r24	; 12
    1944:	02 c0       	rjmp	.+4      	; 0x194a <Scan_USART_Transmit+0x7a4>
    1946:	0e 94 3a 16 	call	0x2c74	; 0x2c74 <USART_Transmit_0>
    194a:	b2 9b       	sbis	0x16, 2	; 22
    194c:	05 c0       	rjmp	.+10     	; 0x1958 <Scan_USART_Transmit+0x7b2>
    194e:	5d 9b       	sbis	0x0b, 5	; 11
    1950:	fe cf       	rjmp	.-4      	; 0x194e <Scan_USART_Transmit+0x7a8>
    1952:	81 e3       	ldi	r24, 0x31	; 49
    1954:	8c b9       	out	0x0c, r24	; 12
    1956:	02 c0       	rjmp	.+4      	; 0x195c <Scan_USART_Transmit+0x7b6>
    1958:	0e 94 3a 16 	call	0x2c74	; 0x2c74 <USART_Transmit_0>
    195c:	5d 9b       	sbis	0x0b, 5	; 11
    195e:	fe cf       	rjmp	.-4      	; 0x195c <Scan_USART_Transmit+0x7b6>
    1960:	85 e5       	ldi	r24, 0x55	; 85
    1962:	8c b9       	out	0x0c, r24	; 12
    1964:	b4 9b       	sbis	0x16, 4	; 22
    1966:	05 c0       	rjmp	.+10     	; 0x1972 <Scan_USART_Transmit+0x7cc>
    1968:	5d 9b       	sbis	0x0b, 5	; 11
    196a:	fe cf       	rjmp	.-4      	; 0x1968 <Scan_USART_Transmit+0x7c2>
    196c:	81 e3       	ldi	r24, 0x31	; 49
    196e:	8c b9       	out	0x0c, r24	; 12
    1970:	02 c0       	rjmp	.+4      	; 0x1976 <Scan_USART_Transmit+0x7d0>
    1972:	0e 94 3a 16 	call	0x2c74	; 0x2c74 <USART_Transmit_0>
    1976:	b5 9b       	sbis	0x16, 5	; 22
    1978:	05 c0       	rjmp	.+10     	; 0x1984 <Scan_USART_Transmit+0x7de>
    197a:	5d 9b       	sbis	0x0b, 5	; 11
    197c:	fe cf       	rjmp	.-4      	; 0x197a <Scan_USART_Transmit+0x7d4>
    197e:	81 e3       	ldi	r24, 0x31	; 49
    1980:	8c b9       	out	0x0c, r24	; 12
    1982:	02 c0       	rjmp	.+4      	; 0x1988 <Scan_USART_Transmit+0x7e2>
    1984:	0e 94 3a 16 	call	0x2c74	; 0x2c74 <USART_Transmit_0>
    1988:	b6 9b       	sbis	0x16, 6	; 22
    198a:	05 c0       	rjmp	.+10     	; 0x1996 <Scan_USART_Transmit+0x7f0>
    198c:	5d 9b       	sbis	0x0b, 5	; 11
    198e:	fe cf       	rjmp	.-4      	; 0x198c <Scan_USART_Transmit+0x7e6>
    1990:	81 e3       	ldi	r24, 0x31	; 49
    1992:	8c b9       	out	0x0c, r24	; 12
    1994:	02 c0       	rjmp	.+4      	; 0x199a <Scan_USART_Transmit+0x7f4>
    1996:	0e 94 3a 16 	call	0x2c74	; 0x2c74 <USART_Transmit_0>
    199a:	b7 9b       	sbis	0x16, 7	; 22
    199c:	05 c0       	rjmp	.+10     	; 0x19a8 <Scan_USART_Transmit+0x802>
    199e:	5d 9b       	sbis	0x0b, 5	; 11
    19a0:	fe cf       	rjmp	.-4      	; 0x199e <Scan_USART_Transmit+0x7f8>
    19a2:	81 e3       	ldi	r24, 0x31	; 49
    19a4:	8c b9       	out	0x0c, r24	; 12
    19a6:	02 c0       	rjmp	.+4      	; 0x19ac <Scan_USART_Transmit+0x806>
    19a8:	0e 94 3a 16 	call	0x2c74	; 0x2c74 <USART_Transmit_0>
    19ac:	0e 94 1b 08 	call	0x1036	; 0x1036 <pull_PIND>
    19b0:	0e 94 43 08 	call	0x1086	; 0x1086 <pull_PINC>
    19b4:	0e 94 8b 08 	call	0x1116	; 0x1116 <pull_PINA>
    19b8:	bb 98       	cbi	0x17, 3	; 23
    19ba:	c3 98       	cbi	0x18, 3	; 24
    19bc:	bc 9a       	sbi	0x17, 4	; 23
    19be:	c4 9a       	sbi	0x18, 4	; 24
    19c0:	8f e3       	ldi	r24, 0x3F	; 63
    19c2:	9c e9       	ldi	r25, 0x9C	; 156
    19c4:	01 97       	sbiw	r24, 0x01	; 1
    19c6:	f1 f7       	brne	.-4      	; 0x19c4 <Scan_USART_Transmit+0x81e>
    19c8:	00 c0       	rjmp	.+0      	; 0x19ca <Scan_USART_Transmit+0x824>
    19ca:	00 00       	nop
    19cc:	0e 94 79 07 	call	0xef2	; 0xef2 <pull_PINF>
    19d0:	0e 94 9d 07 	call	0xf3a	; 0xf3a <pull_PINE>
    19d4:	b0 9b       	sbis	0x16, 0	; 22
    19d6:	05 c0       	rjmp	.+10     	; 0x19e2 <Scan_USART_Transmit+0x83c>
    19d8:	5d 9b       	sbis	0x0b, 5	; 11
    19da:	fe cf       	rjmp	.-4      	; 0x19d8 <Scan_USART_Transmit+0x832>
    19dc:	81 e3       	ldi	r24, 0x31	; 49
    19de:	8c b9       	out	0x0c, r24	; 12
    19e0:	02 c0       	rjmp	.+4      	; 0x19e6 <Scan_USART_Transmit+0x840>
    19e2:	0e 94 3a 16 	call	0x2c74	; 0x2c74 <USART_Transmit_0>
    19e6:	b1 9b       	sbis	0x16, 1	; 22
    19e8:	05 c0       	rjmp	.+10     	; 0x19f4 <Scan_USART_Transmit+0x84e>
    19ea:	5d 9b       	sbis	0x0b, 5	; 11
    19ec:	fe cf       	rjmp	.-4      	; 0x19ea <Scan_USART_Transmit+0x844>
    19ee:	81 e3       	ldi	r24, 0x31	; 49
    19f0:	8c b9       	out	0x0c, r24	; 12
    19f2:	02 c0       	rjmp	.+4      	; 0x19f8 <Scan_USART_Transmit+0x852>
    19f4:	0e 94 3a 16 	call	0x2c74	; 0x2c74 <USART_Transmit_0>
    19f8:	b2 9b       	sbis	0x16, 2	; 22
    19fa:	05 c0       	rjmp	.+10     	; 0x1a06 <Scan_USART_Transmit+0x860>
    19fc:	5d 9b       	sbis	0x0b, 5	; 11
    19fe:	fe cf       	rjmp	.-4      	; 0x19fc <Scan_USART_Transmit+0x856>
    1a00:	81 e3       	ldi	r24, 0x31	; 49
    1a02:	8c b9       	out	0x0c, r24	; 12
    1a04:	02 c0       	rjmp	.+4      	; 0x1a0a <Scan_USART_Transmit+0x864>
    1a06:	0e 94 3a 16 	call	0x2c74	; 0x2c74 <USART_Transmit_0>
    1a0a:	b3 9b       	sbis	0x16, 3	; 22
    1a0c:	05 c0       	rjmp	.+10     	; 0x1a18 <Scan_USART_Transmit+0x872>
    1a0e:	5d 9b       	sbis	0x0b, 5	; 11
    1a10:	fe cf       	rjmp	.-4      	; 0x1a0e <Scan_USART_Transmit+0x868>
    1a12:	81 e3       	ldi	r24, 0x31	; 49
    1a14:	8c b9       	out	0x0c, r24	; 12
    1a16:	02 c0       	rjmp	.+4      	; 0x1a1c <Scan_USART_Transmit+0x876>
    1a18:	0e 94 3a 16 	call	0x2c74	; 0x2c74 <USART_Transmit_0>
    1a1c:	5d 9b       	sbis	0x0b, 5	; 11
    1a1e:	fe cf       	rjmp	.-4      	; 0x1a1c <Scan_USART_Transmit+0x876>
    1a20:	85 e5       	ldi	r24, 0x55	; 85
    1a22:	8c b9       	out	0x0c, r24	; 12
    1a24:	b5 9b       	sbis	0x16, 5	; 22
    1a26:	05 c0       	rjmp	.+10     	; 0x1a32 <Scan_USART_Transmit+0x88c>
    1a28:	5d 9b       	sbis	0x0b, 5	; 11
    1a2a:	fe cf       	rjmp	.-4      	; 0x1a28 <Scan_USART_Transmit+0x882>
    1a2c:	81 e3       	ldi	r24, 0x31	; 49
    1a2e:	8c b9       	out	0x0c, r24	; 12
    1a30:	02 c0       	rjmp	.+4      	; 0x1a36 <Scan_USART_Transmit+0x890>
    1a32:	0e 94 3a 16 	call	0x2c74	; 0x2c74 <USART_Transmit_0>
    1a36:	b6 9b       	sbis	0x16, 6	; 22
    1a38:	05 c0       	rjmp	.+10     	; 0x1a44 <Scan_USART_Transmit+0x89e>
    1a3a:	5d 9b       	sbis	0x0b, 5	; 11
    1a3c:	fe cf       	rjmp	.-4      	; 0x1a3a <Scan_USART_Transmit+0x894>
    1a3e:	81 e3       	ldi	r24, 0x31	; 49
    1a40:	8c b9       	out	0x0c, r24	; 12
    1a42:	02 c0       	rjmp	.+4      	; 0x1a48 <Scan_USART_Transmit+0x8a2>
    1a44:	0e 94 3a 16 	call	0x2c74	; 0x2c74 <USART_Transmit_0>
    1a48:	b7 9b       	sbis	0x16, 7	; 22
    1a4a:	05 c0       	rjmp	.+10     	; 0x1a56 <Scan_USART_Transmit+0x8b0>
    1a4c:	5d 9b       	sbis	0x0b, 5	; 11
    1a4e:	fe cf       	rjmp	.-4      	; 0x1a4c <Scan_USART_Transmit+0x8a6>
    1a50:	81 e3       	ldi	r24, 0x31	; 49
    1a52:	8c b9       	out	0x0c, r24	; 12
    1a54:	02 c0       	rjmp	.+4      	; 0x1a5a <Scan_USART_Transmit+0x8b4>
    1a56:	0e 94 3a 16 	call	0x2c74	; 0x2c74 <USART_Transmit_0>
    1a5a:	0e 94 1b 08 	call	0x1036	; 0x1036 <pull_PIND>
    1a5e:	0e 94 43 08 	call	0x1086	; 0x1086 <pull_PINC>
    1a62:	0e 94 8b 08 	call	0x1116	; 0x1116 <pull_PINA>
    1a66:	bc 98       	cbi	0x17, 4	; 23
    1a68:	c4 98       	cbi	0x18, 4	; 24
    1a6a:	bd 9a       	sbi	0x17, 5	; 23
    1a6c:	c5 9a       	sbi	0x18, 5	; 24
    1a6e:	8f e3       	ldi	r24, 0x3F	; 63
    1a70:	9c e9       	ldi	r25, 0x9C	; 156
    1a72:	01 97       	sbiw	r24, 0x01	; 1
    1a74:	f1 f7       	brne	.-4      	; 0x1a72 <Scan_USART_Transmit+0x8cc>
    1a76:	00 c0       	rjmp	.+0      	; 0x1a78 <Scan_USART_Transmit+0x8d2>
    1a78:	00 00       	nop
    1a7a:	0e 94 79 07 	call	0xef2	; 0xef2 <pull_PINF>
    1a7e:	0e 94 9d 07 	call	0xf3a	; 0xf3a <pull_PINE>
    1a82:	b0 9b       	sbis	0x16, 0	; 22
    1a84:	05 c0       	rjmp	.+10     	; 0x1a90 <Scan_USART_Transmit+0x8ea>
    1a86:	5d 9b       	sbis	0x0b, 5	; 11
    1a88:	fe cf       	rjmp	.-4      	; 0x1a86 <Scan_USART_Transmit+0x8e0>
    1a8a:	81 e3       	ldi	r24, 0x31	; 49
    1a8c:	8c b9       	out	0x0c, r24	; 12
    1a8e:	02 c0       	rjmp	.+4      	; 0x1a94 <Scan_USART_Transmit+0x8ee>
    1a90:	0e 94 3a 16 	call	0x2c74	; 0x2c74 <USART_Transmit_0>
    1a94:	b1 9b       	sbis	0x16, 1	; 22
    1a96:	05 c0       	rjmp	.+10     	; 0x1aa2 <Scan_USART_Transmit+0x8fc>
    1a98:	5d 9b       	sbis	0x0b, 5	; 11
    1a9a:	fe cf       	rjmp	.-4      	; 0x1a98 <Scan_USART_Transmit+0x8f2>
    1a9c:	81 e3       	ldi	r24, 0x31	; 49
    1a9e:	8c b9       	out	0x0c, r24	; 12
    1aa0:	02 c0       	rjmp	.+4      	; 0x1aa6 <Scan_USART_Transmit+0x900>
    1aa2:	0e 94 3a 16 	call	0x2c74	; 0x2c74 <USART_Transmit_0>
    1aa6:	b2 9b       	sbis	0x16, 2	; 22
    1aa8:	05 c0       	rjmp	.+10     	; 0x1ab4 <Scan_USART_Transmit+0x90e>
    1aaa:	5d 9b       	sbis	0x0b, 5	; 11
    1aac:	fe cf       	rjmp	.-4      	; 0x1aaa <Scan_USART_Transmit+0x904>
    1aae:	81 e3       	ldi	r24, 0x31	; 49
    1ab0:	8c b9       	out	0x0c, r24	; 12
    1ab2:	02 c0       	rjmp	.+4      	; 0x1ab8 <Scan_USART_Transmit+0x912>
    1ab4:	0e 94 3a 16 	call	0x2c74	; 0x2c74 <USART_Transmit_0>
    1ab8:	b3 9b       	sbis	0x16, 3	; 22
    1aba:	05 c0       	rjmp	.+10     	; 0x1ac6 <Scan_USART_Transmit+0x920>
    1abc:	5d 9b       	sbis	0x0b, 5	; 11
    1abe:	fe cf       	rjmp	.-4      	; 0x1abc <Scan_USART_Transmit+0x916>
    1ac0:	81 e3       	ldi	r24, 0x31	; 49
    1ac2:	8c b9       	out	0x0c, r24	; 12
    1ac4:	02 c0       	rjmp	.+4      	; 0x1aca <Scan_USART_Transmit+0x924>
    1ac6:	0e 94 3a 16 	call	0x2c74	; 0x2c74 <USART_Transmit_0>
    1aca:	b4 9b       	sbis	0x16, 4	; 22
    1acc:	05 c0       	rjmp	.+10     	; 0x1ad8 <Scan_USART_Transmit+0x932>
    1ace:	5d 9b       	sbis	0x0b, 5	; 11
    1ad0:	fe cf       	rjmp	.-4      	; 0x1ace <Scan_USART_Transmit+0x928>
    1ad2:	81 e3       	ldi	r24, 0x31	; 49
    1ad4:	8c b9       	out	0x0c, r24	; 12
    1ad6:	02 c0       	rjmp	.+4      	; 0x1adc <Scan_USART_Transmit+0x936>
    1ad8:	0e 94 3a 16 	call	0x2c74	; 0x2c74 <USART_Transmit_0>
    1adc:	5d 9b       	sbis	0x0b, 5	; 11
    1ade:	fe cf       	rjmp	.-4      	; 0x1adc <Scan_USART_Transmit+0x936>
    1ae0:	85 e5       	ldi	r24, 0x55	; 85
    1ae2:	8c b9       	out	0x0c, r24	; 12
    1ae4:	b6 9b       	sbis	0x16, 6	; 22
    1ae6:	05 c0       	rjmp	.+10     	; 0x1af2 <Scan_USART_Transmit+0x94c>
    1ae8:	5d 9b       	sbis	0x0b, 5	; 11
    1aea:	fe cf       	rjmp	.-4      	; 0x1ae8 <Scan_USART_Transmit+0x942>
    1aec:	81 e3       	ldi	r24, 0x31	; 49
    1aee:	8c b9       	out	0x0c, r24	; 12
    1af0:	02 c0       	rjmp	.+4      	; 0x1af6 <Scan_USART_Transmit+0x950>
    1af2:	0e 94 3a 16 	call	0x2c74	; 0x2c74 <USART_Transmit_0>
    1af6:	b7 9b       	sbis	0x16, 7	; 22
    1af8:	05 c0       	rjmp	.+10     	; 0x1b04 <Scan_USART_Transmit+0x95e>
    1afa:	5d 9b       	sbis	0x0b, 5	; 11
    1afc:	fe cf       	rjmp	.-4      	; 0x1afa <Scan_USART_Transmit+0x954>
    1afe:	81 e3       	ldi	r24, 0x31	; 49
    1b00:	8c b9       	out	0x0c, r24	; 12
    1b02:	02 c0       	rjmp	.+4      	; 0x1b08 <Scan_USART_Transmit+0x962>
    1b04:	0e 94 3a 16 	call	0x2c74	; 0x2c74 <USART_Transmit_0>
    1b08:	0e 94 1b 08 	call	0x1036	; 0x1036 <pull_PIND>
    1b0c:	0e 94 43 08 	call	0x1086	; 0x1086 <pull_PINC>
    1b10:	0e 94 8b 08 	call	0x1116	; 0x1116 <pull_PINA>
    1b14:	bd 98       	cbi	0x17, 5	; 23
    1b16:	c5 98       	cbi	0x18, 5	; 24
    1b18:	be 9a       	sbi	0x17, 6	; 23
    1b1a:	c6 9a       	sbi	0x18, 6	; 24
    1b1c:	8f e3       	ldi	r24, 0x3F	; 63
    1b1e:	9c e9       	ldi	r25, 0x9C	; 156
    1b20:	01 97       	sbiw	r24, 0x01	; 1
    1b22:	f1 f7       	brne	.-4      	; 0x1b20 <Scan_USART_Transmit+0x97a>
    1b24:	00 c0       	rjmp	.+0      	; 0x1b26 <Scan_USART_Transmit+0x980>
    1b26:	00 00       	nop
    1b28:	0e 94 79 07 	call	0xef2	; 0xef2 <pull_PINF>
    1b2c:	0e 94 9d 07 	call	0xf3a	; 0xf3a <pull_PINE>
    1b30:	b0 9b       	sbis	0x16, 0	; 22
    1b32:	05 c0       	rjmp	.+10     	; 0x1b3e <Scan_USART_Transmit+0x998>
    1b34:	5d 9b       	sbis	0x0b, 5	; 11
    1b36:	fe cf       	rjmp	.-4      	; 0x1b34 <Scan_USART_Transmit+0x98e>
    1b38:	81 e3       	ldi	r24, 0x31	; 49
    1b3a:	8c b9       	out	0x0c, r24	; 12
    1b3c:	02 c0       	rjmp	.+4      	; 0x1b42 <Scan_USART_Transmit+0x99c>
    1b3e:	0e 94 3a 16 	call	0x2c74	; 0x2c74 <USART_Transmit_0>
    1b42:	b1 9b       	sbis	0x16, 1	; 22
    1b44:	05 c0       	rjmp	.+10     	; 0x1b50 <Scan_USART_Transmit+0x9aa>
    1b46:	5d 9b       	sbis	0x0b, 5	; 11
    1b48:	fe cf       	rjmp	.-4      	; 0x1b46 <Scan_USART_Transmit+0x9a0>
    1b4a:	81 e3       	ldi	r24, 0x31	; 49
    1b4c:	8c b9       	out	0x0c, r24	; 12
    1b4e:	02 c0       	rjmp	.+4      	; 0x1b54 <Scan_USART_Transmit+0x9ae>
    1b50:	0e 94 3a 16 	call	0x2c74	; 0x2c74 <USART_Transmit_0>
    1b54:	b2 9b       	sbis	0x16, 2	; 22
    1b56:	05 c0       	rjmp	.+10     	; 0x1b62 <Scan_USART_Transmit+0x9bc>
    1b58:	5d 9b       	sbis	0x0b, 5	; 11
    1b5a:	fe cf       	rjmp	.-4      	; 0x1b58 <Scan_USART_Transmit+0x9b2>
    1b5c:	81 e3       	ldi	r24, 0x31	; 49
    1b5e:	8c b9       	out	0x0c, r24	; 12
    1b60:	02 c0       	rjmp	.+4      	; 0x1b66 <Scan_USART_Transmit+0x9c0>
    1b62:	0e 94 3a 16 	call	0x2c74	; 0x2c74 <USART_Transmit_0>
    1b66:	b3 9b       	sbis	0x16, 3	; 22
    1b68:	05 c0       	rjmp	.+10     	; 0x1b74 <Scan_USART_Transmit+0x9ce>
    1b6a:	5d 9b       	sbis	0x0b, 5	; 11
    1b6c:	fe cf       	rjmp	.-4      	; 0x1b6a <Scan_USART_Transmit+0x9c4>
    1b6e:	81 e3       	ldi	r24, 0x31	; 49
    1b70:	8c b9       	out	0x0c, r24	; 12
    1b72:	02 c0       	rjmp	.+4      	; 0x1b78 <Scan_USART_Transmit+0x9d2>
    1b74:	0e 94 3a 16 	call	0x2c74	; 0x2c74 <USART_Transmit_0>
    1b78:	b4 9b       	sbis	0x16, 4	; 22
    1b7a:	05 c0       	rjmp	.+10     	; 0x1b86 <Scan_USART_Transmit+0x9e0>
    1b7c:	5d 9b       	sbis	0x0b, 5	; 11
    1b7e:	fe cf       	rjmp	.-4      	; 0x1b7c <Scan_USART_Transmit+0x9d6>
    1b80:	81 e3       	ldi	r24, 0x31	; 49
    1b82:	8c b9       	out	0x0c, r24	; 12
    1b84:	02 c0       	rjmp	.+4      	; 0x1b8a <Scan_USART_Transmit+0x9e4>
    1b86:	0e 94 3a 16 	call	0x2c74	; 0x2c74 <USART_Transmit_0>
    1b8a:	b5 9b       	sbis	0x16, 5	; 22
    1b8c:	05 c0       	rjmp	.+10     	; 0x1b98 <Scan_USART_Transmit+0x9f2>
    1b8e:	5d 9b       	sbis	0x0b, 5	; 11
    1b90:	fe cf       	rjmp	.-4      	; 0x1b8e <Scan_USART_Transmit+0x9e8>
    1b92:	81 e3       	ldi	r24, 0x31	; 49
    1b94:	8c b9       	out	0x0c, r24	; 12
    1b96:	02 c0       	rjmp	.+4      	; 0x1b9c <Scan_USART_Transmit+0x9f6>
    1b98:	0e 94 3a 16 	call	0x2c74	; 0x2c74 <USART_Transmit_0>
    1b9c:	5d 9b       	sbis	0x0b, 5	; 11
    1b9e:	fe cf       	rjmp	.-4      	; 0x1b9c <Scan_USART_Transmit+0x9f6>
    1ba0:	85 e5       	ldi	r24, 0x55	; 85
    1ba2:	8c b9       	out	0x0c, r24	; 12
    1ba4:	b7 9b       	sbis	0x16, 7	; 22
    1ba6:	05 c0       	rjmp	.+10     	; 0x1bb2 <Scan_USART_Transmit+0xa0c>
    1ba8:	5d 9b       	sbis	0x0b, 5	; 11
    1baa:	fe cf       	rjmp	.-4      	; 0x1ba8 <Scan_USART_Transmit+0xa02>
    1bac:	81 e3       	ldi	r24, 0x31	; 49
    1bae:	8c b9       	out	0x0c, r24	; 12
    1bb0:	02 c0       	rjmp	.+4      	; 0x1bb6 <Scan_USART_Transmit+0xa10>
    1bb2:	0e 94 3a 16 	call	0x2c74	; 0x2c74 <USART_Transmit_0>
    1bb6:	0e 94 1b 08 	call	0x1036	; 0x1036 <pull_PIND>
    1bba:	0e 94 43 08 	call	0x1086	; 0x1086 <pull_PINC>
    1bbe:	0e 94 8b 08 	call	0x1116	; 0x1116 <pull_PINA>
    1bc2:	be 98       	cbi	0x17, 6	; 23
    1bc4:	c6 98       	cbi	0x18, 6	; 24
    1bc6:	bf 9a       	sbi	0x17, 7	; 23
    1bc8:	c7 9a       	sbi	0x18, 7	; 24
    1bca:	8f e3       	ldi	r24, 0x3F	; 63
    1bcc:	9c e9       	ldi	r25, 0x9C	; 156
    1bce:	01 97       	sbiw	r24, 0x01	; 1
    1bd0:	f1 f7       	brne	.-4      	; 0x1bce <Scan_USART_Transmit+0xa28>
    1bd2:	00 c0       	rjmp	.+0      	; 0x1bd4 <Scan_USART_Transmit+0xa2e>
    1bd4:	00 00       	nop
    1bd6:	0e 94 79 07 	call	0xef2	; 0xef2 <pull_PINF>
    1bda:	0e 94 9d 07 	call	0xf3a	; 0xf3a <pull_PINE>
    1bde:	b0 9b       	sbis	0x16, 0	; 22
    1be0:	05 c0       	rjmp	.+10     	; 0x1bec <Scan_USART_Transmit+0xa46>
    1be2:	5d 9b       	sbis	0x0b, 5	; 11
    1be4:	fe cf       	rjmp	.-4      	; 0x1be2 <Scan_USART_Transmit+0xa3c>
    1be6:	81 e3       	ldi	r24, 0x31	; 49
    1be8:	8c b9       	out	0x0c, r24	; 12
    1bea:	02 c0       	rjmp	.+4      	; 0x1bf0 <Scan_USART_Transmit+0xa4a>
    1bec:	0e 94 3a 16 	call	0x2c74	; 0x2c74 <USART_Transmit_0>
    1bf0:	b1 9b       	sbis	0x16, 1	; 22
    1bf2:	05 c0       	rjmp	.+10     	; 0x1bfe <Scan_USART_Transmit+0xa58>
    1bf4:	5d 9b       	sbis	0x0b, 5	; 11
    1bf6:	fe cf       	rjmp	.-4      	; 0x1bf4 <Scan_USART_Transmit+0xa4e>
    1bf8:	81 e3       	ldi	r24, 0x31	; 49
    1bfa:	8c b9       	out	0x0c, r24	; 12
    1bfc:	02 c0       	rjmp	.+4      	; 0x1c02 <Scan_USART_Transmit+0xa5c>
    1bfe:	0e 94 3a 16 	call	0x2c74	; 0x2c74 <USART_Transmit_0>
    1c02:	b2 9b       	sbis	0x16, 2	; 22
    1c04:	05 c0       	rjmp	.+10     	; 0x1c10 <Scan_USART_Transmit+0xa6a>
    1c06:	5d 9b       	sbis	0x0b, 5	; 11
    1c08:	fe cf       	rjmp	.-4      	; 0x1c06 <Scan_USART_Transmit+0xa60>
    1c0a:	81 e3       	ldi	r24, 0x31	; 49
    1c0c:	8c b9       	out	0x0c, r24	; 12
    1c0e:	02 c0       	rjmp	.+4      	; 0x1c14 <Scan_USART_Transmit+0xa6e>
    1c10:	0e 94 3a 16 	call	0x2c74	; 0x2c74 <USART_Transmit_0>
    1c14:	b3 9b       	sbis	0x16, 3	; 22
    1c16:	05 c0       	rjmp	.+10     	; 0x1c22 <Scan_USART_Transmit+0xa7c>
    1c18:	5d 9b       	sbis	0x0b, 5	; 11
    1c1a:	fe cf       	rjmp	.-4      	; 0x1c18 <Scan_USART_Transmit+0xa72>
    1c1c:	81 e3       	ldi	r24, 0x31	; 49
    1c1e:	8c b9       	out	0x0c, r24	; 12
    1c20:	02 c0       	rjmp	.+4      	; 0x1c26 <Scan_USART_Transmit+0xa80>
    1c22:	0e 94 3a 16 	call	0x2c74	; 0x2c74 <USART_Transmit_0>
    1c26:	b4 9b       	sbis	0x16, 4	; 22
    1c28:	05 c0       	rjmp	.+10     	; 0x1c34 <Scan_USART_Transmit+0xa8e>
    1c2a:	5d 9b       	sbis	0x0b, 5	; 11
    1c2c:	fe cf       	rjmp	.-4      	; 0x1c2a <Scan_USART_Transmit+0xa84>
    1c2e:	81 e3       	ldi	r24, 0x31	; 49
    1c30:	8c b9       	out	0x0c, r24	; 12
    1c32:	02 c0       	rjmp	.+4      	; 0x1c38 <Scan_USART_Transmit+0xa92>
    1c34:	0e 94 3a 16 	call	0x2c74	; 0x2c74 <USART_Transmit_0>
    1c38:	b5 9b       	sbis	0x16, 5	; 22
    1c3a:	05 c0       	rjmp	.+10     	; 0x1c46 <Scan_USART_Transmit+0xaa0>
    1c3c:	5d 9b       	sbis	0x0b, 5	; 11
    1c3e:	fe cf       	rjmp	.-4      	; 0x1c3c <Scan_USART_Transmit+0xa96>
    1c40:	81 e3       	ldi	r24, 0x31	; 49
    1c42:	8c b9       	out	0x0c, r24	; 12
    1c44:	02 c0       	rjmp	.+4      	; 0x1c4a <Scan_USART_Transmit+0xaa4>
    1c46:	0e 94 3a 16 	call	0x2c74	; 0x2c74 <USART_Transmit_0>
    1c4a:	b6 9b       	sbis	0x16, 6	; 22
    1c4c:	05 c0       	rjmp	.+10     	; 0x1c58 <Scan_USART_Transmit+0xab2>
    1c4e:	5d 9b       	sbis	0x0b, 5	; 11
    1c50:	fe cf       	rjmp	.-4      	; 0x1c4e <Scan_USART_Transmit+0xaa8>
    1c52:	81 e3       	ldi	r24, 0x31	; 49
    1c54:	8c b9       	out	0x0c, r24	; 12
    1c56:	02 c0       	rjmp	.+4      	; 0x1c5c <Scan_USART_Transmit+0xab6>
    1c58:	0e 94 3a 16 	call	0x2c74	; 0x2c74 <USART_Transmit_0>
    1c5c:	5d 9b       	sbis	0x0b, 5	; 11
    1c5e:	fe cf       	rjmp	.-4      	; 0x1c5c <Scan_USART_Transmit+0xab6>
    1c60:	85 e5       	ldi	r24, 0x55	; 85
    1c62:	8c b9       	out	0x0c, r24	; 12
    1c64:	0e 94 1b 08 	call	0x1036	; 0x1036 <pull_PIND>
    1c68:	0e 94 43 08 	call	0x1086	; 0x1086 <pull_PINC>
    1c6c:	0e 94 8b 08 	call	0x1116	; 0x1116 <pull_PINA>
    1c70:	bf 98       	cbi	0x17, 7	; 23
    1c72:	c7 98       	cbi	0x18, 7	; 24
    1c74:	88 9a       	sbi	0x11, 0	; 17
    1c76:	90 9a       	sbi	0x12, 0	; 18
    1c78:	8f e3       	ldi	r24, 0x3F	; 63
    1c7a:	9c e9       	ldi	r25, 0x9C	; 156
    1c7c:	01 97       	sbiw	r24, 0x01	; 1
    1c7e:	f1 f7       	brne	.-4      	; 0x1c7c <Scan_USART_Transmit+0xad6>
    1c80:	00 c0       	rjmp	.+0      	; 0x1c82 <Scan_USART_Transmit+0xadc>
    1c82:	00 00       	nop
    1c84:	0e 94 79 07 	call	0xef2	; 0xef2 <pull_PINF>
    1c88:	0e 94 9d 07 	call	0xf3a	; 0xf3a <pull_PINE>
    1c8c:	0e 94 d3 07 	call	0xfa6	; 0xfa6 <pull_PINB>
    1c90:	5d 9b       	sbis	0x0b, 5	; 11
    1c92:	fe cf       	rjmp	.-4      	; 0x1c90 <Scan_USART_Transmit+0xaea>
    1c94:	85 e5       	ldi	r24, 0x55	; 85
    1c96:	8c b9       	out	0x0c, r24	; 12
    1c98:	5d 9b       	sbis	0x0b, 5	; 11
    1c9a:	fe cf       	rjmp	.-4      	; 0x1c98 <Scan_USART_Transmit+0xaf2>
    1c9c:	80 e2       	ldi	r24, 0x20	; 32
    1c9e:	8c b9       	out	0x0c, r24	; 12
    1ca0:	85 9b       	sbis	0x10, 5	; 16
    1ca2:	05 c0       	rjmp	.+10     	; 0x1cae <Scan_USART_Transmit+0xb08>
    1ca4:	5d 9b       	sbis	0x0b, 5	; 11
    1ca6:	fe cf       	rjmp	.-4      	; 0x1ca4 <Scan_USART_Transmit+0xafe>
    1ca8:	81 e3       	ldi	r24, 0x31	; 49
    1caa:	8c b9       	out	0x0c, r24	; 12
    1cac:	02 c0       	rjmp	.+4      	; 0x1cb2 <Scan_USART_Transmit+0xb0c>
    1cae:	0e 94 3a 16 	call	0x2c74	; 0x2c74 <USART_Transmit_0>
    1cb2:	86 9b       	sbis	0x10, 6	; 16
    1cb4:	05 c0       	rjmp	.+10     	; 0x1cc0 <Scan_USART_Transmit+0xb1a>
    1cb6:	5d 9b       	sbis	0x0b, 5	; 11
    1cb8:	fe cf       	rjmp	.-4      	; 0x1cb6 <Scan_USART_Transmit+0xb10>
    1cba:	81 e3       	ldi	r24, 0x31	; 49
    1cbc:	8c b9       	out	0x0c, r24	; 12
    1cbe:	02 c0       	rjmp	.+4      	; 0x1cc4 <Scan_USART_Transmit+0xb1e>
    1cc0:	0e 94 3a 16 	call	0x2c74	; 0x2c74 <USART_Transmit_0>
    1cc4:	87 9b       	sbis	0x10, 7	; 16
    1cc6:	05 c0       	rjmp	.+10     	; 0x1cd2 <Scan_USART_Transmit+0xb2c>
    1cc8:	5d 9b       	sbis	0x0b, 5	; 11
    1cca:	fe cf       	rjmp	.-4      	; 0x1cc8 <Scan_USART_Transmit+0xb22>
    1ccc:	81 e3       	ldi	r24, 0x31	; 49
    1cce:	8c b9       	out	0x0c, r24	; 12
    1cd0:	02 c0       	rjmp	.+4      	; 0x1cd6 <Scan_USART_Transmit+0xb30>
    1cd2:	0e 94 3a 16 	call	0x2c74	; 0x2c74 <USART_Transmit_0>
    1cd6:	0e 94 43 08 	call	0x1086	; 0x1086 <pull_PINC>
    1cda:	0e 94 8b 08 	call	0x1116	; 0x1116 <pull_PINA>
    1cde:	88 98       	cbi	0x11, 0	; 17
    1ce0:	90 98       	cbi	0x12, 0	; 18
    1ce2:	8d 9a       	sbi	0x11, 5	; 17
    1ce4:	95 9a       	sbi	0x12, 5	; 18
    1ce6:	8f e3       	ldi	r24, 0x3F	; 63
    1ce8:	9c e9       	ldi	r25, 0x9C	; 156
    1cea:	01 97       	sbiw	r24, 0x01	; 1
    1cec:	f1 f7       	brne	.-4      	; 0x1cea <Scan_USART_Transmit+0xb44>
    1cee:	00 c0       	rjmp	.+0      	; 0x1cf0 <Scan_USART_Transmit+0xb4a>
    1cf0:	00 00       	nop
    1cf2:	0e 94 79 07 	call	0xef2	; 0xef2 <pull_PINF>
    1cf6:	0e 94 9d 07 	call	0xf3a	; 0xf3a <pull_PINE>
    1cfa:	0e 94 d3 07 	call	0xfa6	; 0xfa6 <pull_PINB>
    1cfe:	80 9b       	sbis	0x10, 0	; 16
    1d00:	05 c0       	rjmp	.+10     	; 0x1d0c <Scan_USART_Transmit+0xb66>
    1d02:	5d 9b       	sbis	0x0b, 5	; 11
    1d04:	fe cf       	rjmp	.-4      	; 0x1d02 <Scan_USART_Transmit+0xb5c>
    1d06:	81 e3       	ldi	r24, 0x31	; 49
    1d08:	8c b9       	out	0x0c, r24	; 12
    1d0a:	02 c0       	rjmp	.+4      	; 0x1d10 <Scan_USART_Transmit+0xb6a>
    1d0c:	0e 94 3a 16 	call	0x2c74	; 0x2c74 <USART_Transmit_0>
    1d10:	5d 9b       	sbis	0x0b, 5	; 11
    1d12:	fe cf       	rjmp	.-4      	; 0x1d10 <Scan_USART_Transmit+0xb6a>
    1d14:	80 e2       	ldi	r24, 0x20	; 32
    1d16:	8c b9       	out	0x0c, r24	; 12
    1d18:	5d 9b       	sbis	0x0b, 5	; 11
    1d1a:	fe cf       	rjmp	.-4      	; 0x1d18 <Scan_USART_Transmit+0xb72>
    1d1c:	85 e5       	ldi	r24, 0x55	; 85
    1d1e:	8c b9       	out	0x0c, r24	; 12
    1d20:	86 9b       	sbis	0x10, 6	; 16
    1d22:	05 c0       	rjmp	.+10     	; 0x1d2e <Scan_USART_Transmit+0xb88>
    1d24:	5d 9b       	sbis	0x0b, 5	; 11
    1d26:	fe cf       	rjmp	.-4      	; 0x1d24 <Scan_USART_Transmit+0xb7e>
    1d28:	81 e3       	ldi	r24, 0x31	; 49
    1d2a:	8c b9       	out	0x0c, r24	; 12
    1d2c:	02 c0       	rjmp	.+4      	; 0x1d32 <Scan_USART_Transmit+0xb8c>
    1d2e:	0e 94 3a 16 	call	0x2c74	; 0x2c74 <USART_Transmit_0>
    1d32:	87 9b       	sbis	0x10, 7	; 16
    1d34:	05 c0       	rjmp	.+10     	; 0x1d40 <Scan_USART_Transmit+0xb9a>
    1d36:	5d 9b       	sbis	0x0b, 5	; 11
    1d38:	fe cf       	rjmp	.-4      	; 0x1d36 <Scan_USART_Transmit+0xb90>
    1d3a:	81 e3       	ldi	r24, 0x31	; 49
    1d3c:	8c b9       	out	0x0c, r24	; 12
    1d3e:	02 c0       	rjmp	.+4      	; 0x1d44 <Scan_USART_Transmit+0xb9e>
    1d40:	0e 94 3a 16 	call	0x2c74	; 0x2c74 <USART_Transmit_0>
    1d44:	0e 94 43 08 	call	0x1086	; 0x1086 <pull_PINC>
    1d48:	0e 94 8b 08 	call	0x1116	; 0x1116 <pull_PINA>
    1d4c:	8d 98       	cbi	0x11, 5	; 17
    1d4e:	95 98       	cbi	0x12, 5	; 18
    1d50:	8e 9a       	sbi	0x11, 6	; 17
    1d52:	96 9a       	sbi	0x12, 6	; 18
    1d54:	8f e3       	ldi	r24, 0x3F	; 63
    1d56:	9c e9       	ldi	r25, 0x9C	; 156
    1d58:	01 97       	sbiw	r24, 0x01	; 1
    1d5a:	f1 f7       	brne	.-4      	; 0x1d58 <Scan_USART_Transmit+0xbb2>
    1d5c:	00 c0       	rjmp	.+0      	; 0x1d5e <Scan_USART_Transmit+0xbb8>
    1d5e:	00 00       	nop
    1d60:	0e 94 79 07 	call	0xef2	; 0xef2 <pull_PINF>
    1d64:	0e 94 9d 07 	call	0xf3a	; 0xf3a <pull_PINE>
    1d68:	0e 94 d3 07 	call	0xfa6	; 0xfa6 <pull_PINB>
    1d6c:	80 9b       	sbis	0x10, 0	; 16
    1d6e:	05 c0       	rjmp	.+10     	; 0x1d7a <Scan_USART_Transmit+0xbd4>
    1d70:	5d 9b       	sbis	0x0b, 5	; 11
    1d72:	fe cf       	rjmp	.-4      	; 0x1d70 <Scan_USART_Transmit+0xbca>
    1d74:	81 e3       	ldi	r24, 0x31	; 49
    1d76:	8c b9       	out	0x0c, r24	; 12
    1d78:	02 c0       	rjmp	.+4      	; 0x1d7e <Scan_USART_Transmit+0xbd8>
    1d7a:	0e 94 3a 16 	call	0x2c74	; 0x2c74 <USART_Transmit_0>
    1d7e:	5d 9b       	sbis	0x0b, 5	; 11
    1d80:	fe cf       	rjmp	.-4      	; 0x1d7e <Scan_USART_Transmit+0xbd8>
    1d82:	80 e2       	ldi	r24, 0x20	; 32
    1d84:	8c b9       	out	0x0c, r24	; 12
    1d86:	85 9b       	sbis	0x10, 5	; 16
    1d88:	05 c0       	rjmp	.+10     	; 0x1d94 <Scan_USART_Transmit+0xbee>
    1d8a:	5d 9b       	sbis	0x0b, 5	; 11
    1d8c:	fe cf       	rjmp	.-4      	; 0x1d8a <Scan_USART_Transmit+0xbe4>
    1d8e:	81 e3       	ldi	r24, 0x31	; 49
    1d90:	8c b9       	out	0x0c, r24	; 12
    1d92:	02 c0       	rjmp	.+4      	; 0x1d98 <Scan_USART_Transmit+0xbf2>
    1d94:	0e 94 3a 16 	call	0x2c74	; 0x2c74 <USART_Transmit_0>
    1d98:	5d 9b       	sbis	0x0b, 5	; 11
    1d9a:	fe cf       	rjmp	.-4      	; 0x1d98 <Scan_USART_Transmit+0xbf2>
    1d9c:	85 e5       	ldi	r24, 0x55	; 85
    1d9e:	8c b9       	out	0x0c, r24	; 12
    1da0:	87 9b       	sbis	0x10, 7	; 16
    1da2:	05 c0       	rjmp	.+10     	; 0x1dae <Scan_USART_Transmit+0xc08>
    1da4:	5d 9b       	sbis	0x0b, 5	; 11
    1da6:	fe cf       	rjmp	.-4      	; 0x1da4 <Scan_USART_Transmit+0xbfe>
    1da8:	81 e3       	ldi	r24, 0x31	; 49
    1daa:	8c b9       	out	0x0c, r24	; 12
    1dac:	02 c0       	rjmp	.+4      	; 0x1db2 <Scan_USART_Transmit+0xc0c>
    1dae:	0e 94 3a 16 	call	0x2c74	; 0x2c74 <USART_Transmit_0>
    1db2:	0e 94 43 08 	call	0x1086	; 0x1086 <pull_PINC>
    1db6:	0e 94 8b 08 	call	0x1116	; 0x1116 <pull_PINA>
    1dba:	8e 98       	cbi	0x11, 6	; 17
    1dbc:	96 98       	cbi	0x12, 6	; 18
    1dbe:	8f 9a       	sbi	0x11, 7	; 17
    1dc0:	97 9a       	sbi	0x12, 7	; 18
    1dc2:	8f e3       	ldi	r24, 0x3F	; 63
    1dc4:	9c e9       	ldi	r25, 0x9C	; 156
    1dc6:	01 97       	sbiw	r24, 0x01	; 1
    1dc8:	f1 f7       	brne	.-4      	; 0x1dc6 <Scan_USART_Transmit+0xc20>
    1dca:	00 c0       	rjmp	.+0      	; 0x1dcc <Scan_USART_Transmit+0xc26>
    1dcc:	00 00       	nop
    1dce:	0e 94 79 07 	call	0xef2	; 0xef2 <pull_PINF>
    1dd2:	0e 94 9d 07 	call	0xf3a	; 0xf3a <pull_PINE>
    1dd6:	0e 94 d3 07 	call	0xfa6	; 0xfa6 <pull_PINB>
    1dda:	80 9b       	sbis	0x10, 0	; 16
    1ddc:	05 c0       	rjmp	.+10     	; 0x1de8 <Scan_USART_Transmit+0xc42>
    1dde:	5d 9b       	sbis	0x0b, 5	; 11
    1de0:	fe cf       	rjmp	.-4      	; 0x1dde <Scan_USART_Transmit+0xc38>
    1de2:	81 e3       	ldi	r24, 0x31	; 49
    1de4:	8c b9       	out	0x0c, r24	; 12
    1de6:	02 c0       	rjmp	.+4      	; 0x1dec <Scan_USART_Transmit+0xc46>
    1de8:	0e 94 3a 16 	call	0x2c74	; 0x2c74 <USART_Transmit_0>
    1dec:	5d 9b       	sbis	0x0b, 5	; 11
    1dee:	fe cf       	rjmp	.-4      	; 0x1dec <Scan_USART_Transmit+0xc46>
    1df0:	80 e2       	ldi	r24, 0x20	; 32
    1df2:	8c b9       	out	0x0c, r24	; 12
    1df4:	85 9b       	sbis	0x10, 5	; 16
    1df6:	05 c0       	rjmp	.+10     	; 0x1e02 <Scan_USART_Transmit+0xc5c>
    1df8:	5d 9b       	sbis	0x0b, 5	; 11
    1dfa:	fe cf       	rjmp	.-4      	; 0x1df8 <Scan_USART_Transmit+0xc52>
    1dfc:	81 e3       	ldi	r24, 0x31	; 49
    1dfe:	8c b9       	out	0x0c, r24	; 12
    1e00:	02 c0       	rjmp	.+4      	; 0x1e06 <Scan_USART_Transmit+0xc60>
    1e02:	0e 94 3a 16 	call	0x2c74	; 0x2c74 <USART_Transmit_0>
    1e06:	86 9b       	sbis	0x10, 6	; 16
    1e08:	05 c0       	rjmp	.+10     	; 0x1e14 <Scan_USART_Transmit+0xc6e>
    1e0a:	5d 9b       	sbis	0x0b, 5	; 11
    1e0c:	fe cf       	rjmp	.-4      	; 0x1e0a <Scan_USART_Transmit+0xc64>
    1e0e:	81 e3       	ldi	r24, 0x31	; 49
    1e10:	8c b9       	out	0x0c, r24	; 12
    1e12:	02 c0       	rjmp	.+4      	; 0x1e18 <Scan_USART_Transmit+0xc72>
    1e14:	0e 94 3a 16 	call	0x2c74	; 0x2c74 <USART_Transmit_0>
    1e18:	5d 9b       	sbis	0x0b, 5	; 11
    1e1a:	fe cf       	rjmp	.-4      	; 0x1e18 <Scan_USART_Transmit+0xc72>
    1e1c:	85 e5       	ldi	r24, 0x55	; 85
    1e1e:	8c b9       	out	0x0c, r24	; 12
    1e20:	0e 94 43 08 	call	0x1086	; 0x1086 <pull_PINC>
    1e24:	0e 94 8b 08 	call	0x1116	; 0x1116 <pull_PINA>
    1e28:	8f 98       	cbi	0x11, 7	; 17
    1e2a:	97 98       	cbi	0x12, 7	; 18
    1e2c:	a0 9a       	sbi	0x14, 0	; 20
    1e2e:	a8 9a       	sbi	0x15, 0	; 21
    1e30:	8f e3       	ldi	r24, 0x3F	; 63
    1e32:	9c e9       	ldi	r25, 0x9C	; 156
    1e34:	01 97       	sbiw	r24, 0x01	; 1
    1e36:	f1 f7       	brne	.-4      	; 0x1e34 <Scan_USART_Transmit+0xc8e>
    1e38:	00 c0       	rjmp	.+0      	; 0x1e3a <Scan_USART_Transmit+0xc94>
    1e3a:	00 00       	nop
    1e3c:	0e 94 79 07 	call	0xef2	; 0xef2 <pull_PINF>
    1e40:	0e 94 9d 07 	call	0xf3a	; 0xf3a <pull_PINE>
    1e44:	0e 94 d3 07 	call	0xfa6	; 0xfa6 <pull_PINB>
    1e48:	0e 94 1b 08 	call	0x1036	; 0x1036 <pull_PIND>
    1e4c:	5d 9b       	sbis	0x0b, 5	; 11
    1e4e:	fe cf       	rjmp	.-4      	; 0x1e4c <Scan_USART_Transmit+0xca6>
    1e50:	85 e5       	ldi	r24, 0x55	; 85
    1e52:	8c b9       	out	0x0c, r24	; 12
    1e54:	99 9b       	sbis	0x13, 1	; 19
    1e56:	05 c0       	rjmp	.+10     	; 0x1e62 <Scan_USART_Transmit+0xcbc>
    1e58:	5d 9b       	sbis	0x0b, 5	; 11
    1e5a:	fe cf       	rjmp	.-4      	; 0x1e58 <Scan_USART_Transmit+0xcb2>
    1e5c:	81 e3       	ldi	r24, 0x31	; 49
    1e5e:	8c b9       	out	0x0c, r24	; 12
    1e60:	02 c0       	rjmp	.+4      	; 0x1e66 <Scan_USART_Transmit+0xcc0>
    1e62:	0e 94 3a 16 	call	0x2c74	; 0x2c74 <USART_Transmit_0>
    1e66:	9a 9b       	sbis	0x13, 2	; 19
    1e68:	05 c0       	rjmp	.+10     	; 0x1e74 <Scan_USART_Transmit+0xcce>
    1e6a:	5d 9b       	sbis	0x0b, 5	; 11
    1e6c:	fe cf       	rjmp	.-4      	; 0x1e6a <Scan_USART_Transmit+0xcc4>
    1e6e:	81 e3       	ldi	r24, 0x31	; 49
    1e70:	8c b9       	out	0x0c, r24	; 12
    1e72:	02 c0       	rjmp	.+4      	; 0x1e78 <Scan_USART_Transmit+0xcd2>
    1e74:	0e 94 3a 16 	call	0x2c74	; 0x2c74 <USART_Transmit_0>
    1e78:	9b 9b       	sbis	0x13, 3	; 19
    1e7a:	05 c0       	rjmp	.+10     	; 0x1e86 <Scan_USART_Transmit+0xce0>
    1e7c:	5d 9b       	sbis	0x0b, 5	; 11
    1e7e:	fe cf       	rjmp	.-4      	; 0x1e7c <Scan_USART_Transmit+0xcd6>
    1e80:	81 e3       	ldi	r24, 0x31	; 49
    1e82:	8c b9       	out	0x0c, r24	; 12
    1e84:	02 c0       	rjmp	.+4      	; 0x1e8a <Scan_USART_Transmit+0xce4>
    1e86:	0e 94 3a 16 	call	0x2c74	; 0x2c74 <USART_Transmit_0>
    1e8a:	9c 9b       	sbis	0x13, 4	; 19
    1e8c:	05 c0       	rjmp	.+10     	; 0x1e98 <Scan_USART_Transmit+0xcf2>
    1e8e:	5d 9b       	sbis	0x0b, 5	; 11
    1e90:	fe cf       	rjmp	.-4      	; 0x1e8e <Scan_USART_Transmit+0xce8>
    1e92:	81 e3       	ldi	r24, 0x31	; 49
    1e94:	8c b9       	out	0x0c, r24	; 12
    1e96:	02 c0       	rjmp	.+4      	; 0x1e9c <Scan_USART_Transmit+0xcf6>
    1e98:	0e 94 3a 16 	call	0x2c74	; 0x2c74 <USART_Transmit_0>
    1e9c:	9d 9b       	sbis	0x13, 5	; 19
    1e9e:	05 c0       	rjmp	.+10     	; 0x1eaa <Scan_USART_Transmit+0xd04>
    1ea0:	5d 9b       	sbis	0x0b, 5	; 11
    1ea2:	fe cf       	rjmp	.-4      	; 0x1ea0 <Scan_USART_Transmit+0xcfa>
    1ea4:	81 e3       	ldi	r24, 0x31	; 49
    1ea6:	8c b9       	out	0x0c, r24	; 12
    1ea8:	02 c0       	rjmp	.+4      	; 0x1eae <Scan_USART_Transmit+0xd08>
    1eaa:	0e 94 3a 16 	call	0x2c74	; 0x2c74 <USART_Transmit_0>
    1eae:	9e 9b       	sbis	0x13, 6	; 19
    1eb0:	05 c0       	rjmp	.+10     	; 0x1ebc <Scan_USART_Transmit+0xd16>
    1eb2:	5d 9b       	sbis	0x0b, 5	; 11
    1eb4:	fe cf       	rjmp	.-4      	; 0x1eb2 <Scan_USART_Transmit+0xd0c>
    1eb6:	81 e3       	ldi	r24, 0x31	; 49
    1eb8:	8c b9       	out	0x0c, r24	; 12
    1eba:	02 c0       	rjmp	.+4      	; 0x1ec0 <Scan_USART_Transmit+0xd1a>
    1ebc:	0e 94 3a 16 	call	0x2c74	; 0x2c74 <USART_Transmit_0>
    1ec0:	9f 9b       	sbis	0x13, 7	; 19
    1ec2:	05 c0       	rjmp	.+10     	; 0x1ece <Scan_USART_Transmit+0xd28>
    1ec4:	5d 9b       	sbis	0x0b, 5	; 11
    1ec6:	fe cf       	rjmp	.-4      	; 0x1ec4 <Scan_USART_Transmit+0xd1e>
    1ec8:	81 e3       	ldi	r24, 0x31	; 49
    1eca:	8c b9       	out	0x0c, r24	; 12
    1ecc:	02 c0       	rjmp	.+4      	; 0x1ed2 <Scan_USART_Transmit+0xd2c>
    1ece:	0e 94 3a 16 	call	0x2c74	; 0x2c74 <USART_Transmit_0>
    1ed2:	0e 94 8b 08 	call	0x1116	; 0x1116 <pull_PINA>
    1ed6:	a0 98       	cbi	0x14, 0	; 20
    1ed8:	a8 98       	cbi	0x15, 0	; 21
    1eda:	a1 9a       	sbi	0x14, 1	; 20
    1edc:	a9 9a       	sbi	0x15, 1	; 21
    1ede:	8f e3       	ldi	r24, 0x3F	; 63
    1ee0:	9c e9       	ldi	r25, 0x9C	; 156
    1ee2:	01 97       	sbiw	r24, 0x01	; 1
    1ee4:	f1 f7       	brne	.-4      	; 0x1ee2 <Scan_USART_Transmit+0xd3c>
    1ee6:	00 c0       	rjmp	.+0      	; 0x1ee8 <Scan_USART_Transmit+0xd42>
    1ee8:	00 00       	nop
    1eea:	0e 94 79 07 	call	0xef2	; 0xef2 <pull_PINF>
    1eee:	0e 94 9d 07 	call	0xf3a	; 0xf3a <pull_PINE>
    1ef2:	0e 94 d3 07 	call	0xfa6	; 0xfa6 <pull_PINB>
    1ef6:	0e 94 1b 08 	call	0x1036	; 0x1036 <pull_PIND>
    1efa:	98 9b       	sbis	0x13, 0	; 19
    1efc:	05 c0       	rjmp	.+10     	; 0x1f08 <Scan_USART_Transmit+0xd62>
    1efe:	5d 9b       	sbis	0x0b, 5	; 11
    1f00:	fe cf       	rjmp	.-4      	; 0x1efe <Scan_USART_Transmit+0xd58>
    1f02:	81 e3       	ldi	r24, 0x31	; 49
    1f04:	8c b9       	out	0x0c, r24	; 12
    1f06:	02 c0       	rjmp	.+4      	; 0x1f0c <Scan_USART_Transmit+0xd66>
    1f08:	0e 94 3a 16 	call	0x2c74	; 0x2c74 <USART_Transmit_0>
    1f0c:	5d 9b       	sbis	0x0b, 5	; 11
    1f0e:	fe cf       	rjmp	.-4      	; 0x1f0c <Scan_USART_Transmit+0xd66>
    1f10:	85 e5       	ldi	r24, 0x55	; 85
    1f12:	8c b9       	out	0x0c, r24	; 12
    1f14:	9a 9b       	sbis	0x13, 2	; 19
    1f16:	05 c0       	rjmp	.+10     	; 0x1f22 <Scan_USART_Transmit+0xd7c>
    1f18:	5d 9b       	sbis	0x0b, 5	; 11
    1f1a:	fe cf       	rjmp	.-4      	; 0x1f18 <Scan_USART_Transmit+0xd72>
    1f1c:	81 e3       	ldi	r24, 0x31	; 49
    1f1e:	8c b9       	out	0x0c, r24	; 12
    1f20:	02 c0       	rjmp	.+4      	; 0x1f26 <Scan_USART_Transmit+0xd80>
    1f22:	0e 94 3a 16 	call	0x2c74	; 0x2c74 <USART_Transmit_0>
    1f26:	9b 9b       	sbis	0x13, 3	; 19
    1f28:	05 c0       	rjmp	.+10     	; 0x1f34 <Scan_USART_Transmit+0xd8e>
    1f2a:	5d 9b       	sbis	0x0b, 5	; 11
    1f2c:	fe cf       	rjmp	.-4      	; 0x1f2a <Scan_USART_Transmit+0xd84>
    1f2e:	81 e3       	ldi	r24, 0x31	; 49
    1f30:	8c b9       	out	0x0c, r24	; 12
    1f32:	02 c0       	rjmp	.+4      	; 0x1f38 <Scan_USART_Transmit+0xd92>
    1f34:	0e 94 3a 16 	call	0x2c74	; 0x2c74 <USART_Transmit_0>
    1f38:	9c 9b       	sbis	0x13, 4	; 19
    1f3a:	05 c0       	rjmp	.+10     	; 0x1f46 <Scan_USART_Transmit+0xda0>
    1f3c:	5d 9b       	sbis	0x0b, 5	; 11
    1f3e:	fe cf       	rjmp	.-4      	; 0x1f3c <Scan_USART_Transmit+0xd96>
    1f40:	81 e3       	ldi	r24, 0x31	; 49
    1f42:	8c b9       	out	0x0c, r24	; 12
    1f44:	02 c0       	rjmp	.+4      	; 0x1f4a <Scan_USART_Transmit+0xda4>
    1f46:	0e 94 3a 16 	call	0x2c74	; 0x2c74 <USART_Transmit_0>
    1f4a:	9d 9b       	sbis	0x13, 5	; 19
    1f4c:	05 c0       	rjmp	.+10     	; 0x1f58 <Scan_USART_Transmit+0xdb2>
    1f4e:	5d 9b       	sbis	0x0b, 5	; 11
    1f50:	fe cf       	rjmp	.-4      	; 0x1f4e <Scan_USART_Transmit+0xda8>
    1f52:	81 e3       	ldi	r24, 0x31	; 49
    1f54:	8c b9       	out	0x0c, r24	; 12
    1f56:	02 c0       	rjmp	.+4      	; 0x1f5c <Scan_USART_Transmit+0xdb6>
    1f58:	0e 94 3a 16 	call	0x2c74	; 0x2c74 <USART_Transmit_0>
    1f5c:	9e 9b       	sbis	0x13, 6	; 19
    1f5e:	05 c0       	rjmp	.+10     	; 0x1f6a <Scan_USART_Transmit+0xdc4>
    1f60:	5d 9b       	sbis	0x0b, 5	; 11
    1f62:	fe cf       	rjmp	.-4      	; 0x1f60 <Scan_USART_Transmit+0xdba>
    1f64:	81 e3       	ldi	r24, 0x31	; 49
    1f66:	8c b9       	out	0x0c, r24	; 12
    1f68:	02 c0       	rjmp	.+4      	; 0x1f6e <Scan_USART_Transmit+0xdc8>
    1f6a:	0e 94 3a 16 	call	0x2c74	; 0x2c74 <USART_Transmit_0>
    1f6e:	9f 9b       	sbis	0x13, 7	; 19
    1f70:	05 c0       	rjmp	.+10     	; 0x1f7c <Scan_USART_Transmit+0xdd6>
    1f72:	5d 9b       	sbis	0x0b, 5	; 11
    1f74:	fe cf       	rjmp	.-4      	; 0x1f72 <Scan_USART_Transmit+0xdcc>
    1f76:	81 e3       	ldi	r24, 0x31	; 49
    1f78:	8c b9       	out	0x0c, r24	; 12
    1f7a:	02 c0       	rjmp	.+4      	; 0x1f80 <Scan_USART_Transmit+0xdda>
    1f7c:	0e 94 3a 16 	call	0x2c74	; 0x2c74 <USART_Transmit_0>
    1f80:	0e 94 8b 08 	call	0x1116	; 0x1116 <pull_PINA>
    1f84:	a1 98       	cbi	0x14, 1	; 20
    1f86:	a9 98       	cbi	0x15, 1	; 21
    1f88:	a2 9a       	sbi	0x14, 2	; 20
    1f8a:	aa 9a       	sbi	0x15, 2	; 21
    1f8c:	8f e3       	ldi	r24, 0x3F	; 63
    1f8e:	9c e9       	ldi	r25, 0x9C	; 156
    1f90:	01 97       	sbiw	r24, 0x01	; 1
    1f92:	f1 f7       	brne	.-4      	; 0x1f90 <Scan_USART_Transmit+0xdea>
    1f94:	00 c0       	rjmp	.+0      	; 0x1f96 <Scan_USART_Transmit+0xdf0>
    1f96:	00 00       	nop
    1f98:	0e 94 79 07 	call	0xef2	; 0xef2 <pull_PINF>
    1f9c:	0e 94 9d 07 	call	0xf3a	; 0xf3a <pull_PINE>
    1fa0:	0e 94 d3 07 	call	0xfa6	; 0xfa6 <pull_PINB>
    1fa4:	0e 94 1b 08 	call	0x1036	; 0x1036 <pull_PIND>
    1fa8:	98 9b       	sbis	0x13, 0	; 19
    1faa:	05 c0       	rjmp	.+10     	; 0x1fb6 <Scan_USART_Transmit+0xe10>
    1fac:	5d 9b       	sbis	0x0b, 5	; 11
    1fae:	fe cf       	rjmp	.-4      	; 0x1fac <Scan_USART_Transmit+0xe06>
    1fb0:	81 e3       	ldi	r24, 0x31	; 49
    1fb2:	8c b9       	out	0x0c, r24	; 12
    1fb4:	02 c0       	rjmp	.+4      	; 0x1fba <Scan_USART_Transmit+0xe14>
    1fb6:	0e 94 3a 16 	call	0x2c74	; 0x2c74 <USART_Transmit_0>
    1fba:	99 9b       	sbis	0x13, 1	; 19
    1fbc:	05 c0       	rjmp	.+10     	; 0x1fc8 <Scan_USART_Transmit+0xe22>
    1fbe:	5d 9b       	sbis	0x0b, 5	; 11
    1fc0:	fe cf       	rjmp	.-4      	; 0x1fbe <Scan_USART_Transmit+0xe18>
    1fc2:	81 e3       	ldi	r24, 0x31	; 49
    1fc4:	8c b9       	out	0x0c, r24	; 12
    1fc6:	02 c0       	rjmp	.+4      	; 0x1fcc <Scan_USART_Transmit+0xe26>
    1fc8:	0e 94 3a 16 	call	0x2c74	; 0x2c74 <USART_Transmit_0>
    1fcc:	5d 9b       	sbis	0x0b, 5	; 11
    1fce:	fe cf       	rjmp	.-4      	; 0x1fcc <Scan_USART_Transmit+0xe26>
    1fd0:	85 e5       	ldi	r24, 0x55	; 85
    1fd2:	8c b9       	out	0x0c, r24	; 12
    1fd4:	9b 9b       	sbis	0x13, 3	; 19
    1fd6:	05 c0       	rjmp	.+10     	; 0x1fe2 <Scan_USART_Transmit+0xe3c>
    1fd8:	5d 9b       	sbis	0x0b, 5	; 11
    1fda:	fe cf       	rjmp	.-4      	; 0x1fd8 <Scan_USART_Transmit+0xe32>
    1fdc:	81 e3       	ldi	r24, 0x31	; 49
    1fde:	8c b9       	out	0x0c, r24	; 12
    1fe0:	02 c0       	rjmp	.+4      	; 0x1fe6 <Scan_USART_Transmit+0xe40>
    1fe2:	0e 94 3a 16 	call	0x2c74	; 0x2c74 <USART_Transmit_0>
    1fe6:	9c 9b       	sbis	0x13, 4	; 19
    1fe8:	05 c0       	rjmp	.+10     	; 0x1ff4 <Scan_USART_Transmit+0xe4e>
    1fea:	5d 9b       	sbis	0x0b, 5	; 11
    1fec:	fe cf       	rjmp	.-4      	; 0x1fea <Scan_USART_Transmit+0xe44>
    1fee:	81 e3       	ldi	r24, 0x31	; 49
    1ff0:	8c b9       	out	0x0c, r24	; 12
    1ff2:	02 c0       	rjmp	.+4      	; 0x1ff8 <Scan_USART_Transmit+0xe52>
    1ff4:	0e 94 3a 16 	call	0x2c74	; 0x2c74 <USART_Transmit_0>
    1ff8:	9d 9b       	sbis	0x13, 5	; 19
    1ffa:	05 c0       	rjmp	.+10     	; 0x2006 <Scan_USART_Transmit+0xe60>
    1ffc:	5d 9b       	sbis	0x0b, 5	; 11
    1ffe:	fe cf       	rjmp	.-4      	; 0x1ffc <Scan_USART_Transmit+0xe56>
    2000:	81 e3       	ldi	r24, 0x31	; 49
    2002:	8c b9       	out	0x0c, r24	; 12
    2004:	02 c0       	rjmp	.+4      	; 0x200a <Scan_USART_Transmit+0xe64>
    2006:	0e 94 3a 16 	call	0x2c74	; 0x2c74 <USART_Transmit_0>
    200a:	9e 9b       	sbis	0x13, 6	; 19
    200c:	05 c0       	rjmp	.+10     	; 0x2018 <Scan_USART_Transmit+0xe72>
    200e:	5d 9b       	sbis	0x0b, 5	; 11
    2010:	fe cf       	rjmp	.-4      	; 0x200e <Scan_USART_Transmit+0xe68>
    2012:	81 e3       	ldi	r24, 0x31	; 49
    2014:	8c b9       	out	0x0c, r24	; 12
    2016:	02 c0       	rjmp	.+4      	; 0x201c <Scan_USART_Transmit+0xe76>
    2018:	0e 94 3a 16 	call	0x2c74	; 0x2c74 <USART_Transmit_0>
    201c:	9f 9b       	sbis	0x13, 7	; 19
    201e:	05 c0       	rjmp	.+10     	; 0x202a <Scan_USART_Transmit+0xe84>
    2020:	5d 9b       	sbis	0x0b, 5	; 11
    2022:	fe cf       	rjmp	.-4      	; 0x2020 <Scan_USART_Transmit+0xe7a>
    2024:	81 e3       	ldi	r24, 0x31	; 49
    2026:	8c b9       	out	0x0c, r24	; 12
    2028:	02 c0       	rjmp	.+4      	; 0x202e <Scan_USART_Transmit+0xe88>
    202a:	0e 94 3a 16 	call	0x2c74	; 0x2c74 <USART_Transmit_0>
    202e:	0e 94 8b 08 	call	0x1116	; 0x1116 <pull_PINA>
    2032:	a2 98       	cbi	0x14, 2	; 20
    2034:	aa 98       	cbi	0x15, 2	; 21
    2036:	a3 9a       	sbi	0x14, 3	; 20
    2038:	ab 9a       	sbi	0x15, 3	; 21
    203a:	8f e3       	ldi	r24, 0x3F	; 63
    203c:	9c e9       	ldi	r25, 0x9C	; 156
    203e:	01 97       	sbiw	r24, 0x01	; 1
    2040:	f1 f7       	brne	.-4      	; 0x203e <Scan_USART_Transmit+0xe98>
    2042:	00 c0       	rjmp	.+0      	; 0x2044 <Scan_USART_Transmit+0xe9e>
    2044:	00 00       	nop
    2046:	0e 94 79 07 	call	0xef2	; 0xef2 <pull_PINF>
    204a:	0e 94 9d 07 	call	0xf3a	; 0xf3a <pull_PINE>
    204e:	0e 94 d3 07 	call	0xfa6	; 0xfa6 <pull_PINB>
    2052:	0e 94 1b 08 	call	0x1036	; 0x1036 <pull_PIND>
    2056:	98 9b       	sbis	0x13, 0	; 19
    2058:	05 c0       	rjmp	.+10     	; 0x2064 <Scan_USART_Transmit+0xebe>
    205a:	5d 9b       	sbis	0x0b, 5	; 11
    205c:	fe cf       	rjmp	.-4      	; 0x205a <Scan_USART_Transmit+0xeb4>
    205e:	81 e3       	ldi	r24, 0x31	; 49
    2060:	8c b9       	out	0x0c, r24	; 12
    2062:	02 c0       	rjmp	.+4      	; 0x2068 <Scan_USART_Transmit+0xec2>
    2064:	0e 94 3a 16 	call	0x2c74	; 0x2c74 <USART_Transmit_0>
    2068:	99 9b       	sbis	0x13, 1	; 19
    206a:	05 c0       	rjmp	.+10     	; 0x2076 <Scan_USART_Transmit+0xed0>
    206c:	5d 9b       	sbis	0x0b, 5	; 11
    206e:	fe cf       	rjmp	.-4      	; 0x206c <Scan_USART_Transmit+0xec6>
    2070:	81 e3       	ldi	r24, 0x31	; 49
    2072:	8c b9       	out	0x0c, r24	; 12
    2074:	02 c0       	rjmp	.+4      	; 0x207a <Scan_USART_Transmit+0xed4>
    2076:	0e 94 3a 16 	call	0x2c74	; 0x2c74 <USART_Transmit_0>
    207a:	9a 9b       	sbis	0x13, 2	; 19
    207c:	05 c0       	rjmp	.+10     	; 0x2088 <Scan_USART_Transmit+0xee2>
    207e:	5d 9b       	sbis	0x0b, 5	; 11
    2080:	fe cf       	rjmp	.-4      	; 0x207e <Scan_USART_Transmit+0xed8>
    2082:	81 e3       	ldi	r24, 0x31	; 49
    2084:	8c b9       	out	0x0c, r24	; 12
    2086:	02 c0       	rjmp	.+4      	; 0x208c <Scan_USART_Transmit+0xee6>
    2088:	0e 94 3a 16 	call	0x2c74	; 0x2c74 <USART_Transmit_0>
    208c:	5d 9b       	sbis	0x0b, 5	; 11
    208e:	fe cf       	rjmp	.-4      	; 0x208c <Scan_USART_Transmit+0xee6>
    2090:	85 e5       	ldi	r24, 0x55	; 85
    2092:	8c b9       	out	0x0c, r24	; 12
    2094:	9c 9b       	sbis	0x13, 4	; 19
    2096:	05 c0       	rjmp	.+10     	; 0x20a2 <Scan_USART_Transmit+0xefc>
    2098:	5d 9b       	sbis	0x0b, 5	; 11
    209a:	fe cf       	rjmp	.-4      	; 0x2098 <Scan_USART_Transmit+0xef2>
    209c:	81 e3       	ldi	r24, 0x31	; 49
    209e:	8c b9       	out	0x0c, r24	; 12
    20a0:	02 c0       	rjmp	.+4      	; 0x20a6 <Scan_USART_Transmit+0xf00>
    20a2:	0e 94 3a 16 	call	0x2c74	; 0x2c74 <USART_Transmit_0>
    20a6:	9d 9b       	sbis	0x13, 5	; 19
    20a8:	05 c0       	rjmp	.+10     	; 0x20b4 <Scan_USART_Transmit+0xf0e>
    20aa:	5d 9b       	sbis	0x0b, 5	; 11
    20ac:	fe cf       	rjmp	.-4      	; 0x20aa <Scan_USART_Transmit+0xf04>
    20ae:	81 e3       	ldi	r24, 0x31	; 49
    20b0:	8c b9       	out	0x0c, r24	; 12
    20b2:	02 c0       	rjmp	.+4      	; 0x20b8 <Scan_USART_Transmit+0xf12>
    20b4:	0e 94 3a 16 	call	0x2c74	; 0x2c74 <USART_Transmit_0>
    20b8:	9e 9b       	sbis	0x13, 6	; 19
    20ba:	05 c0       	rjmp	.+10     	; 0x20c6 <Scan_USART_Transmit+0xf20>
    20bc:	5d 9b       	sbis	0x0b, 5	; 11
    20be:	fe cf       	rjmp	.-4      	; 0x20bc <Scan_USART_Transmit+0xf16>
    20c0:	81 e3       	ldi	r24, 0x31	; 49
    20c2:	8c b9       	out	0x0c, r24	; 12
    20c4:	02 c0       	rjmp	.+4      	; 0x20ca <Scan_USART_Transmit+0xf24>
    20c6:	0e 94 3a 16 	call	0x2c74	; 0x2c74 <USART_Transmit_0>
    20ca:	9f 9b       	sbis	0x13, 7	; 19
    20cc:	05 c0       	rjmp	.+10     	; 0x20d8 <Scan_USART_Transmit+0xf32>
    20ce:	5d 9b       	sbis	0x0b, 5	; 11
    20d0:	fe cf       	rjmp	.-4      	; 0x20ce <Scan_USART_Transmit+0xf28>
    20d2:	81 e3       	ldi	r24, 0x31	; 49
    20d4:	8c b9       	out	0x0c, r24	; 12
    20d6:	02 c0       	rjmp	.+4      	; 0x20dc <Scan_USART_Transmit+0xf36>
    20d8:	0e 94 3a 16 	call	0x2c74	; 0x2c74 <USART_Transmit_0>
    20dc:	0e 94 8b 08 	call	0x1116	; 0x1116 <pull_PINA>
    20e0:	a3 98       	cbi	0x14, 3	; 20
    20e2:	ab 98       	cbi	0x15, 3	; 21
    20e4:	a4 9a       	sbi	0x14, 4	; 20
    20e6:	ac 9a       	sbi	0x15, 4	; 21
    20e8:	8f e3       	ldi	r24, 0x3F	; 63
    20ea:	9c e9       	ldi	r25, 0x9C	; 156
    20ec:	01 97       	sbiw	r24, 0x01	; 1
    20ee:	f1 f7       	brne	.-4      	; 0x20ec <Scan_USART_Transmit+0xf46>
    20f0:	00 c0       	rjmp	.+0      	; 0x20f2 <Scan_USART_Transmit+0xf4c>
    20f2:	00 00       	nop
    20f4:	0e 94 79 07 	call	0xef2	; 0xef2 <pull_PINF>
    20f8:	0e 94 9d 07 	call	0xf3a	; 0xf3a <pull_PINE>
    20fc:	0e 94 d3 07 	call	0xfa6	; 0xfa6 <pull_PINB>
    2100:	0e 94 1b 08 	call	0x1036	; 0x1036 <pull_PIND>
    2104:	98 9b       	sbis	0x13, 0	; 19
    2106:	05 c0       	rjmp	.+10     	; 0x2112 <Scan_USART_Transmit+0xf6c>
    2108:	5d 9b       	sbis	0x0b, 5	; 11
    210a:	fe cf       	rjmp	.-4      	; 0x2108 <Scan_USART_Transmit+0xf62>
    210c:	81 e3       	ldi	r24, 0x31	; 49
    210e:	8c b9       	out	0x0c, r24	; 12
    2110:	02 c0       	rjmp	.+4      	; 0x2116 <Scan_USART_Transmit+0xf70>
    2112:	0e 94 3a 16 	call	0x2c74	; 0x2c74 <USART_Transmit_0>
    2116:	99 9b       	sbis	0x13, 1	; 19
    2118:	05 c0       	rjmp	.+10     	; 0x2124 <Scan_USART_Transmit+0xf7e>
    211a:	5d 9b       	sbis	0x0b, 5	; 11
    211c:	fe cf       	rjmp	.-4      	; 0x211a <Scan_USART_Transmit+0xf74>
    211e:	81 e3       	ldi	r24, 0x31	; 49
    2120:	8c b9       	out	0x0c, r24	; 12
    2122:	02 c0       	rjmp	.+4      	; 0x2128 <Scan_USART_Transmit+0xf82>
    2124:	0e 94 3a 16 	call	0x2c74	; 0x2c74 <USART_Transmit_0>
    2128:	9a 9b       	sbis	0x13, 2	; 19
    212a:	05 c0       	rjmp	.+10     	; 0x2136 <Scan_USART_Transmit+0xf90>
    212c:	5d 9b       	sbis	0x0b, 5	; 11
    212e:	fe cf       	rjmp	.-4      	; 0x212c <Scan_USART_Transmit+0xf86>
    2130:	81 e3       	ldi	r24, 0x31	; 49
    2132:	8c b9       	out	0x0c, r24	; 12
    2134:	02 c0       	rjmp	.+4      	; 0x213a <Scan_USART_Transmit+0xf94>
    2136:	0e 94 3a 16 	call	0x2c74	; 0x2c74 <USART_Transmit_0>
    213a:	9b 9b       	sbis	0x13, 3	; 19
    213c:	05 c0       	rjmp	.+10     	; 0x2148 <Scan_USART_Transmit+0xfa2>
    213e:	5d 9b       	sbis	0x0b, 5	; 11
    2140:	fe cf       	rjmp	.-4      	; 0x213e <Scan_USART_Transmit+0xf98>
    2142:	81 e3       	ldi	r24, 0x31	; 49
    2144:	8c b9       	out	0x0c, r24	; 12
    2146:	02 c0       	rjmp	.+4      	; 0x214c <Scan_USART_Transmit+0xfa6>
    2148:	0e 94 3a 16 	call	0x2c74	; 0x2c74 <USART_Transmit_0>
    214c:	5d 9b       	sbis	0x0b, 5	; 11
    214e:	fe cf       	rjmp	.-4      	; 0x214c <Scan_USART_Transmit+0xfa6>
    2150:	85 e5       	ldi	r24, 0x55	; 85
    2152:	8c b9       	out	0x0c, r24	; 12
    2154:	9d 9b       	sbis	0x13, 5	; 19
    2156:	05 c0       	rjmp	.+10     	; 0x2162 <Scan_USART_Transmit+0xfbc>
    2158:	5d 9b       	sbis	0x0b, 5	; 11
    215a:	fe cf       	rjmp	.-4      	; 0x2158 <Scan_USART_Transmit+0xfb2>
    215c:	81 e3       	ldi	r24, 0x31	; 49
    215e:	8c b9       	out	0x0c, r24	; 12
    2160:	02 c0       	rjmp	.+4      	; 0x2166 <Scan_USART_Transmit+0xfc0>
    2162:	0e 94 3a 16 	call	0x2c74	; 0x2c74 <USART_Transmit_0>
    2166:	9e 9b       	sbis	0x13, 6	; 19
    2168:	05 c0       	rjmp	.+10     	; 0x2174 <Scan_USART_Transmit+0xfce>
    216a:	5d 9b       	sbis	0x0b, 5	; 11
    216c:	fe cf       	rjmp	.-4      	; 0x216a <Scan_USART_Transmit+0xfc4>
    216e:	81 e3       	ldi	r24, 0x31	; 49
    2170:	8c b9       	out	0x0c, r24	; 12
    2172:	02 c0       	rjmp	.+4      	; 0x2178 <Scan_USART_Transmit+0xfd2>
    2174:	0e 94 3a 16 	call	0x2c74	; 0x2c74 <USART_Transmit_0>
    2178:	9f 9b       	sbis	0x13, 7	; 19
    217a:	05 c0       	rjmp	.+10     	; 0x2186 <Scan_USART_Transmit+0xfe0>
    217c:	5d 9b       	sbis	0x0b, 5	; 11
    217e:	fe cf       	rjmp	.-4      	; 0x217c <Scan_USART_Transmit+0xfd6>
    2180:	81 e3       	ldi	r24, 0x31	; 49
    2182:	8c b9       	out	0x0c, r24	; 12
    2184:	02 c0       	rjmp	.+4      	; 0x218a <Scan_USART_Transmit+0xfe4>
    2186:	0e 94 3a 16 	call	0x2c74	; 0x2c74 <USART_Transmit_0>
    218a:	0e 94 8b 08 	call	0x1116	; 0x1116 <pull_PINA>
    218e:	a4 98       	cbi	0x14, 4	; 20
    2190:	ac 98       	cbi	0x15, 4	; 21
    2192:	a5 9a       	sbi	0x14, 5	; 20
    2194:	ad 9a       	sbi	0x15, 5	; 21
    2196:	8f e3       	ldi	r24, 0x3F	; 63
    2198:	9c e9       	ldi	r25, 0x9C	; 156
    219a:	01 97       	sbiw	r24, 0x01	; 1
    219c:	f1 f7       	brne	.-4      	; 0x219a <Scan_USART_Transmit+0xff4>
    219e:	00 c0       	rjmp	.+0      	; 0x21a0 <Scan_USART_Transmit+0xffa>
    21a0:	00 00       	nop
    21a2:	0e 94 79 07 	call	0xef2	; 0xef2 <pull_PINF>
    21a6:	0e 94 9d 07 	call	0xf3a	; 0xf3a <pull_PINE>
    21aa:	0e 94 d3 07 	call	0xfa6	; 0xfa6 <pull_PINB>
    21ae:	0e 94 1b 08 	call	0x1036	; 0x1036 <pull_PIND>
    21b2:	98 9b       	sbis	0x13, 0	; 19
    21b4:	05 c0       	rjmp	.+10     	; 0x21c0 <Scan_USART_Transmit+0x101a>
    21b6:	5d 9b       	sbis	0x0b, 5	; 11
    21b8:	fe cf       	rjmp	.-4      	; 0x21b6 <Scan_USART_Transmit+0x1010>
    21ba:	81 e3       	ldi	r24, 0x31	; 49
    21bc:	8c b9       	out	0x0c, r24	; 12
    21be:	02 c0       	rjmp	.+4      	; 0x21c4 <Scan_USART_Transmit+0x101e>
    21c0:	0e 94 3a 16 	call	0x2c74	; 0x2c74 <USART_Transmit_0>
    21c4:	99 9b       	sbis	0x13, 1	; 19
    21c6:	05 c0       	rjmp	.+10     	; 0x21d2 <Scan_USART_Transmit+0x102c>
    21c8:	5d 9b       	sbis	0x0b, 5	; 11
    21ca:	fe cf       	rjmp	.-4      	; 0x21c8 <Scan_USART_Transmit+0x1022>
    21cc:	81 e3       	ldi	r24, 0x31	; 49
    21ce:	8c b9       	out	0x0c, r24	; 12
    21d0:	02 c0       	rjmp	.+4      	; 0x21d6 <Scan_USART_Transmit+0x1030>
    21d2:	0e 94 3a 16 	call	0x2c74	; 0x2c74 <USART_Transmit_0>
    21d6:	9a 9b       	sbis	0x13, 2	; 19
    21d8:	05 c0       	rjmp	.+10     	; 0x21e4 <Scan_USART_Transmit+0x103e>
    21da:	5d 9b       	sbis	0x0b, 5	; 11
    21dc:	fe cf       	rjmp	.-4      	; 0x21da <Scan_USART_Transmit+0x1034>
    21de:	81 e3       	ldi	r24, 0x31	; 49
    21e0:	8c b9       	out	0x0c, r24	; 12
    21e2:	02 c0       	rjmp	.+4      	; 0x21e8 <Scan_USART_Transmit+0x1042>
    21e4:	0e 94 3a 16 	call	0x2c74	; 0x2c74 <USART_Transmit_0>
    21e8:	9b 9b       	sbis	0x13, 3	; 19
    21ea:	05 c0       	rjmp	.+10     	; 0x21f6 <Scan_USART_Transmit+0x1050>
    21ec:	5d 9b       	sbis	0x0b, 5	; 11
    21ee:	fe cf       	rjmp	.-4      	; 0x21ec <Scan_USART_Transmit+0x1046>
    21f0:	81 e3       	ldi	r24, 0x31	; 49
    21f2:	8c b9       	out	0x0c, r24	; 12
    21f4:	02 c0       	rjmp	.+4      	; 0x21fa <Scan_USART_Transmit+0x1054>
    21f6:	0e 94 3a 16 	call	0x2c74	; 0x2c74 <USART_Transmit_0>
    21fa:	9c 9b       	sbis	0x13, 4	; 19
    21fc:	05 c0       	rjmp	.+10     	; 0x2208 <Scan_USART_Transmit+0x1062>
    21fe:	5d 9b       	sbis	0x0b, 5	; 11
    2200:	fe cf       	rjmp	.-4      	; 0x21fe <Scan_USART_Transmit+0x1058>
    2202:	81 e3       	ldi	r24, 0x31	; 49
    2204:	8c b9       	out	0x0c, r24	; 12
    2206:	02 c0       	rjmp	.+4      	; 0x220c <Scan_USART_Transmit+0x1066>
    2208:	0e 94 3a 16 	call	0x2c74	; 0x2c74 <USART_Transmit_0>
    220c:	5d 9b       	sbis	0x0b, 5	; 11
    220e:	fe cf       	rjmp	.-4      	; 0x220c <Scan_USART_Transmit+0x1066>
    2210:	85 e5       	ldi	r24, 0x55	; 85
    2212:	8c b9       	out	0x0c, r24	; 12
    2214:	9e 9b       	sbis	0x13, 6	; 19
    2216:	05 c0       	rjmp	.+10     	; 0x2222 <Scan_USART_Transmit+0x107c>
    2218:	5d 9b       	sbis	0x0b, 5	; 11
    221a:	fe cf       	rjmp	.-4      	; 0x2218 <Scan_USART_Transmit+0x1072>
    221c:	81 e3       	ldi	r24, 0x31	; 49
    221e:	8c b9       	out	0x0c, r24	; 12
    2220:	02 c0       	rjmp	.+4      	; 0x2226 <Scan_USART_Transmit+0x1080>
    2222:	0e 94 3a 16 	call	0x2c74	; 0x2c74 <USART_Transmit_0>
    2226:	9f 9b       	sbis	0x13, 7	; 19
    2228:	05 c0       	rjmp	.+10     	; 0x2234 <Scan_USART_Transmit+0x108e>
    222a:	5d 9b       	sbis	0x0b, 5	; 11
    222c:	fe cf       	rjmp	.-4      	; 0x222a <Scan_USART_Transmit+0x1084>
    222e:	81 e3       	ldi	r24, 0x31	; 49
    2230:	8c b9       	out	0x0c, r24	; 12
    2232:	02 c0       	rjmp	.+4      	; 0x2238 <Scan_USART_Transmit+0x1092>
    2234:	0e 94 3a 16 	call	0x2c74	; 0x2c74 <USART_Transmit_0>
    2238:	0e 94 8b 08 	call	0x1116	; 0x1116 <pull_PINA>
    223c:	a5 98       	cbi	0x14, 5	; 20
    223e:	ad 98       	cbi	0x15, 5	; 21
    2240:	a6 9a       	sbi	0x14, 6	; 20
    2242:	ae 9a       	sbi	0x15, 6	; 21
    2244:	8f e3       	ldi	r24, 0x3F	; 63
    2246:	9c e9       	ldi	r25, 0x9C	; 156
    2248:	01 97       	sbiw	r24, 0x01	; 1
    224a:	f1 f7       	brne	.-4      	; 0x2248 <Scan_USART_Transmit+0x10a2>
    224c:	00 c0       	rjmp	.+0      	; 0x224e <Scan_USART_Transmit+0x10a8>
    224e:	00 00       	nop
    2250:	0e 94 79 07 	call	0xef2	; 0xef2 <pull_PINF>
    2254:	0e 94 9d 07 	call	0xf3a	; 0xf3a <pull_PINE>
    2258:	0e 94 d3 07 	call	0xfa6	; 0xfa6 <pull_PINB>
    225c:	0e 94 1b 08 	call	0x1036	; 0x1036 <pull_PIND>
    2260:	98 9b       	sbis	0x13, 0	; 19
    2262:	05 c0       	rjmp	.+10     	; 0x226e <Scan_USART_Transmit+0x10c8>
    2264:	5d 9b       	sbis	0x0b, 5	; 11
    2266:	fe cf       	rjmp	.-4      	; 0x2264 <Scan_USART_Transmit+0x10be>
    2268:	81 e3       	ldi	r24, 0x31	; 49
    226a:	8c b9       	out	0x0c, r24	; 12
    226c:	02 c0       	rjmp	.+4      	; 0x2272 <Scan_USART_Transmit+0x10cc>
    226e:	0e 94 3a 16 	call	0x2c74	; 0x2c74 <USART_Transmit_0>
    2272:	99 9b       	sbis	0x13, 1	; 19
    2274:	05 c0       	rjmp	.+10     	; 0x2280 <Scan_USART_Transmit+0x10da>
    2276:	5d 9b       	sbis	0x0b, 5	; 11
    2278:	fe cf       	rjmp	.-4      	; 0x2276 <Scan_USART_Transmit+0x10d0>
    227a:	81 e3       	ldi	r24, 0x31	; 49
    227c:	8c b9       	out	0x0c, r24	; 12
    227e:	02 c0       	rjmp	.+4      	; 0x2284 <Scan_USART_Transmit+0x10de>
    2280:	0e 94 3a 16 	call	0x2c74	; 0x2c74 <USART_Transmit_0>
    2284:	9a 9b       	sbis	0x13, 2	; 19
    2286:	05 c0       	rjmp	.+10     	; 0x2292 <Scan_USART_Transmit+0x10ec>
    2288:	5d 9b       	sbis	0x0b, 5	; 11
    228a:	fe cf       	rjmp	.-4      	; 0x2288 <Scan_USART_Transmit+0x10e2>
    228c:	81 e3       	ldi	r24, 0x31	; 49
    228e:	8c b9       	out	0x0c, r24	; 12
    2290:	02 c0       	rjmp	.+4      	; 0x2296 <Scan_USART_Transmit+0x10f0>
    2292:	0e 94 3a 16 	call	0x2c74	; 0x2c74 <USART_Transmit_0>
    2296:	9b 9b       	sbis	0x13, 3	; 19
    2298:	05 c0       	rjmp	.+10     	; 0x22a4 <Scan_USART_Transmit+0x10fe>
    229a:	5d 9b       	sbis	0x0b, 5	; 11
    229c:	fe cf       	rjmp	.-4      	; 0x229a <Scan_USART_Transmit+0x10f4>
    229e:	81 e3       	ldi	r24, 0x31	; 49
    22a0:	8c b9       	out	0x0c, r24	; 12
    22a2:	02 c0       	rjmp	.+4      	; 0x22a8 <Scan_USART_Transmit+0x1102>
    22a4:	0e 94 3a 16 	call	0x2c74	; 0x2c74 <USART_Transmit_0>
    22a8:	9c 9b       	sbis	0x13, 4	; 19
    22aa:	05 c0       	rjmp	.+10     	; 0x22b6 <Scan_USART_Transmit+0x1110>
    22ac:	5d 9b       	sbis	0x0b, 5	; 11
    22ae:	fe cf       	rjmp	.-4      	; 0x22ac <Scan_USART_Transmit+0x1106>
    22b0:	81 e3       	ldi	r24, 0x31	; 49
    22b2:	8c b9       	out	0x0c, r24	; 12
    22b4:	02 c0       	rjmp	.+4      	; 0x22ba <Scan_USART_Transmit+0x1114>
    22b6:	0e 94 3a 16 	call	0x2c74	; 0x2c74 <USART_Transmit_0>
    22ba:	9d 9b       	sbis	0x13, 5	; 19
    22bc:	05 c0       	rjmp	.+10     	; 0x22c8 <Scan_USART_Transmit+0x1122>
    22be:	5d 9b       	sbis	0x0b, 5	; 11
    22c0:	fe cf       	rjmp	.-4      	; 0x22be <Scan_USART_Transmit+0x1118>
    22c2:	81 e3       	ldi	r24, 0x31	; 49
    22c4:	8c b9       	out	0x0c, r24	; 12
    22c6:	02 c0       	rjmp	.+4      	; 0x22cc <Scan_USART_Transmit+0x1126>
    22c8:	0e 94 3a 16 	call	0x2c74	; 0x2c74 <USART_Transmit_0>
    22cc:	5d 9b       	sbis	0x0b, 5	; 11
    22ce:	fe cf       	rjmp	.-4      	; 0x22cc <Scan_USART_Transmit+0x1126>
    22d0:	85 e5       	ldi	r24, 0x55	; 85
    22d2:	8c b9       	out	0x0c, r24	; 12
    22d4:	9f 9b       	sbis	0x13, 7	; 19
    22d6:	05 c0       	rjmp	.+10     	; 0x22e2 <Scan_USART_Transmit+0x113c>
    22d8:	5d 9b       	sbis	0x0b, 5	; 11
    22da:	fe cf       	rjmp	.-4      	; 0x22d8 <Scan_USART_Transmit+0x1132>
    22dc:	81 e3       	ldi	r24, 0x31	; 49
    22de:	8c b9       	out	0x0c, r24	; 12
    22e0:	02 c0       	rjmp	.+4      	; 0x22e6 <Scan_USART_Transmit+0x1140>
    22e2:	0e 94 3a 16 	call	0x2c74	; 0x2c74 <USART_Transmit_0>
    22e6:	0e 94 8b 08 	call	0x1116	; 0x1116 <pull_PINA>
    22ea:	a6 98       	cbi	0x14, 6	; 20
    22ec:	ae 98       	cbi	0x15, 6	; 21
    22ee:	a7 9a       	sbi	0x14, 7	; 20
    22f0:	af 9a       	sbi	0x15, 7	; 21
    22f2:	8f e3       	ldi	r24, 0x3F	; 63
    22f4:	9c e9       	ldi	r25, 0x9C	; 156
    22f6:	01 97       	sbiw	r24, 0x01	; 1
    22f8:	f1 f7       	brne	.-4      	; 0x22f6 <Scan_USART_Transmit+0x1150>
    22fa:	00 c0       	rjmp	.+0      	; 0x22fc <Scan_USART_Transmit+0x1156>
    22fc:	00 00       	nop
    22fe:	0e 94 79 07 	call	0xef2	; 0xef2 <pull_PINF>
    2302:	0e 94 9d 07 	call	0xf3a	; 0xf3a <pull_PINE>
    2306:	0e 94 d3 07 	call	0xfa6	; 0xfa6 <pull_PINB>
    230a:	0e 94 1b 08 	call	0x1036	; 0x1036 <pull_PIND>
    230e:	98 9b       	sbis	0x13, 0	; 19
    2310:	05 c0       	rjmp	.+10     	; 0x231c <Scan_USART_Transmit+0x1176>
    2312:	5d 9b       	sbis	0x0b, 5	; 11
    2314:	fe cf       	rjmp	.-4      	; 0x2312 <Scan_USART_Transmit+0x116c>
    2316:	81 e3       	ldi	r24, 0x31	; 49
    2318:	8c b9       	out	0x0c, r24	; 12
    231a:	02 c0       	rjmp	.+4      	; 0x2320 <Scan_USART_Transmit+0x117a>
    231c:	0e 94 3a 16 	call	0x2c74	; 0x2c74 <USART_Transmit_0>
    2320:	99 9b       	sbis	0x13, 1	; 19
    2322:	05 c0       	rjmp	.+10     	; 0x232e <Scan_USART_Transmit+0x1188>
    2324:	5d 9b       	sbis	0x0b, 5	; 11
    2326:	fe cf       	rjmp	.-4      	; 0x2324 <Scan_USART_Transmit+0x117e>
    2328:	81 e3       	ldi	r24, 0x31	; 49
    232a:	8c b9       	out	0x0c, r24	; 12
    232c:	02 c0       	rjmp	.+4      	; 0x2332 <Scan_USART_Transmit+0x118c>
    232e:	0e 94 3a 16 	call	0x2c74	; 0x2c74 <USART_Transmit_0>
    2332:	9a 9b       	sbis	0x13, 2	; 19
    2334:	05 c0       	rjmp	.+10     	; 0x2340 <Scan_USART_Transmit+0x119a>
    2336:	5d 9b       	sbis	0x0b, 5	; 11
    2338:	fe cf       	rjmp	.-4      	; 0x2336 <Scan_USART_Transmit+0x1190>
    233a:	81 e3       	ldi	r24, 0x31	; 49
    233c:	8c b9       	out	0x0c, r24	; 12
    233e:	02 c0       	rjmp	.+4      	; 0x2344 <Scan_USART_Transmit+0x119e>
    2340:	0e 94 3a 16 	call	0x2c74	; 0x2c74 <USART_Transmit_0>
    2344:	9b 9b       	sbis	0x13, 3	; 19
    2346:	05 c0       	rjmp	.+10     	; 0x2352 <Scan_USART_Transmit+0x11ac>
    2348:	5d 9b       	sbis	0x0b, 5	; 11
    234a:	fe cf       	rjmp	.-4      	; 0x2348 <Scan_USART_Transmit+0x11a2>
    234c:	81 e3       	ldi	r24, 0x31	; 49
    234e:	8c b9       	out	0x0c, r24	; 12
    2350:	02 c0       	rjmp	.+4      	; 0x2356 <Scan_USART_Transmit+0x11b0>
    2352:	0e 94 3a 16 	call	0x2c74	; 0x2c74 <USART_Transmit_0>
    2356:	9c 9b       	sbis	0x13, 4	; 19
    2358:	05 c0       	rjmp	.+10     	; 0x2364 <Scan_USART_Transmit+0x11be>
    235a:	5d 9b       	sbis	0x0b, 5	; 11
    235c:	fe cf       	rjmp	.-4      	; 0x235a <Scan_USART_Transmit+0x11b4>
    235e:	81 e3       	ldi	r24, 0x31	; 49
    2360:	8c b9       	out	0x0c, r24	; 12
    2362:	02 c0       	rjmp	.+4      	; 0x2368 <Scan_USART_Transmit+0x11c2>
    2364:	0e 94 3a 16 	call	0x2c74	; 0x2c74 <USART_Transmit_0>
    2368:	9d 9b       	sbis	0x13, 5	; 19
    236a:	05 c0       	rjmp	.+10     	; 0x2376 <Scan_USART_Transmit+0x11d0>
    236c:	5d 9b       	sbis	0x0b, 5	; 11
    236e:	fe cf       	rjmp	.-4      	; 0x236c <Scan_USART_Transmit+0x11c6>
    2370:	81 e3       	ldi	r24, 0x31	; 49
    2372:	8c b9       	out	0x0c, r24	; 12
    2374:	02 c0       	rjmp	.+4      	; 0x237a <Scan_USART_Transmit+0x11d4>
    2376:	0e 94 3a 16 	call	0x2c74	; 0x2c74 <USART_Transmit_0>
    237a:	9e 9b       	sbis	0x13, 6	; 19
    237c:	05 c0       	rjmp	.+10     	; 0x2388 <Scan_USART_Transmit+0x11e2>
    237e:	5d 9b       	sbis	0x0b, 5	; 11
    2380:	fe cf       	rjmp	.-4      	; 0x237e <Scan_USART_Transmit+0x11d8>
    2382:	81 e3       	ldi	r24, 0x31	; 49
    2384:	8c b9       	out	0x0c, r24	; 12
    2386:	02 c0       	rjmp	.+4      	; 0x238c <Scan_USART_Transmit+0x11e6>
    2388:	0e 94 3a 16 	call	0x2c74	; 0x2c74 <USART_Transmit_0>
    238c:	5d 9b       	sbis	0x0b, 5	; 11
    238e:	fe cf       	rjmp	.-4      	; 0x238c <Scan_USART_Transmit+0x11e6>
    2390:	85 e5       	ldi	r24, 0x55	; 85
    2392:	8c b9       	out	0x0c, r24	; 12
    2394:	0e 94 8b 08 	call	0x1116	; 0x1116 <pull_PINA>
    2398:	a7 98       	cbi	0x14, 7	; 20
    239a:	af 98       	cbi	0x15, 7	; 21
    239c:	d7 9a       	sbi	0x1a, 7	; 26
    239e:	df 9a       	sbi	0x1b, 7	; 27
    23a0:	8f e3       	ldi	r24, 0x3F	; 63
    23a2:	9c e9       	ldi	r25, 0x9C	; 156
    23a4:	01 97       	sbiw	r24, 0x01	; 1
    23a6:	f1 f7       	brne	.-4      	; 0x23a4 <Scan_USART_Transmit+0x11fe>
    23a8:	00 c0       	rjmp	.+0      	; 0x23aa <Scan_USART_Transmit+0x1204>
    23aa:	00 00       	nop
    23ac:	0e 94 79 07 	call	0xef2	; 0xef2 <pull_PINF>
    23b0:	0e 94 9d 07 	call	0xf3a	; 0xf3a <pull_PINE>
    23b4:	0e 94 d3 07 	call	0xfa6	; 0xfa6 <pull_PINB>
    23b8:	0e 94 1b 08 	call	0x1036	; 0x1036 <pull_PIND>
    23bc:	0e 94 43 08 	call	0x1086	; 0x1086 <pull_PINC>
    23c0:	5d 9b       	sbis	0x0b, 5	; 11
    23c2:	fe cf       	rjmp	.-4      	; 0x23c0 <Scan_USART_Transmit+0x121a>
    23c4:	85 e5       	ldi	r24, 0x55	; 85
    23c6:	8c b9       	out	0x0c, r24	; 12
    23c8:	ce 9b       	sbis	0x19, 6	; 25
    23ca:	05 c0       	rjmp	.+10     	; 0x23d6 <Scan_USART_Transmit+0x1230>
    23cc:	5d 9b       	sbis	0x0b, 5	; 11
    23ce:	fe cf       	rjmp	.-4      	; 0x23cc <Scan_USART_Transmit+0x1226>
    23d0:	81 e3       	ldi	r24, 0x31	; 49
    23d2:	8c b9       	out	0x0c, r24	; 12
    23d4:	02 c0       	rjmp	.+4      	; 0x23da <Scan_USART_Transmit+0x1234>
    23d6:	0e 94 3a 16 	call	0x2c74	; 0x2c74 <USART_Transmit_0>
    23da:	cd 9b       	sbis	0x19, 5	; 25
    23dc:	05 c0       	rjmp	.+10     	; 0x23e8 <Scan_USART_Transmit+0x1242>
    23de:	5d 9b       	sbis	0x0b, 5	; 11
    23e0:	fe cf       	rjmp	.-4      	; 0x23de <Scan_USART_Transmit+0x1238>
    23e2:	81 e3       	ldi	r24, 0x31	; 49
    23e4:	8c b9       	out	0x0c, r24	; 12
    23e6:	02 c0       	rjmp	.+4      	; 0x23ec <Scan_USART_Transmit+0x1246>
    23e8:	0e 94 3a 16 	call	0x2c74	; 0x2c74 <USART_Transmit_0>
    23ec:	cc 9b       	sbis	0x19, 4	; 25
    23ee:	05 c0       	rjmp	.+10     	; 0x23fa <Scan_USART_Transmit+0x1254>
    23f0:	5d 9b       	sbis	0x0b, 5	; 11
    23f2:	fe cf       	rjmp	.-4      	; 0x23f0 <Scan_USART_Transmit+0x124a>
    23f4:	81 e3       	ldi	r24, 0x31	; 49
    23f6:	8c b9       	out	0x0c, r24	; 12
    23f8:	02 c0       	rjmp	.+4      	; 0x23fe <Scan_USART_Transmit+0x1258>
    23fa:	0e 94 3a 16 	call	0x2c74	; 0x2c74 <USART_Transmit_0>
    23fe:	cb 9b       	sbis	0x19, 3	; 25
    2400:	05 c0       	rjmp	.+10     	; 0x240c <Scan_USART_Transmit+0x1266>
    2402:	5d 9b       	sbis	0x0b, 5	; 11
    2404:	fe cf       	rjmp	.-4      	; 0x2402 <Scan_USART_Transmit+0x125c>
    2406:	81 e3       	ldi	r24, 0x31	; 49
    2408:	8c b9       	out	0x0c, r24	; 12
    240a:	02 c0       	rjmp	.+4      	; 0x2410 <Scan_USART_Transmit+0x126a>
    240c:	0e 94 3a 16 	call	0x2c74	; 0x2c74 <USART_Transmit_0>
    2410:	ca 9b       	sbis	0x19, 2	; 25
    2412:	05 c0       	rjmp	.+10     	; 0x241e <Scan_USART_Transmit+0x1278>
    2414:	5d 9b       	sbis	0x0b, 5	; 11
    2416:	fe cf       	rjmp	.-4      	; 0x2414 <Scan_USART_Transmit+0x126e>
    2418:	81 e3       	ldi	r24, 0x31	; 49
    241a:	8c b9       	out	0x0c, r24	; 12
    241c:	02 c0       	rjmp	.+4      	; 0x2422 <Scan_USART_Transmit+0x127c>
    241e:	0e 94 3a 16 	call	0x2c74	; 0x2c74 <USART_Transmit_0>
    2422:	c9 9b       	sbis	0x19, 1	; 25
    2424:	05 c0       	rjmp	.+10     	; 0x2430 <Scan_USART_Transmit+0x128a>
    2426:	5d 9b       	sbis	0x0b, 5	; 11
    2428:	fe cf       	rjmp	.-4      	; 0x2426 <Scan_USART_Transmit+0x1280>
    242a:	81 e3       	ldi	r24, 0x31	; 49
    242c:	8c b9       	out	0x0c, r24	; 12
    242e:	02 c0       	rjmp	.+4      	; 0x2434 <Scan_USART_Transmit+0x128e>
    2430:	0e 94 3a 16 	call	0x2c74	; 0x2c74 <USART_Transmit_0>
    2434:	c8 9b       	sbis	0x19, 0	; 25
    2436:	05 c0       	rjmp	.+10     	; 0x2442 <Scan_USART_Transmit+0x129c>
    2438:	5d 9b       	sbis	0x0b, 5	; 11
    243a:	fe cf       	rjmp	.-4      	; 0x2438 <Scan_USART_Transmit+0x1292>
    243c:	81 e3       	ldi	r24, 0x31	; 49
    243e:	8c b9       	out	0x0c, r24	; 12
    2440:	02 c0       	rjmp	.+4      	; 0x2446 <Scan_USART_Transmit+0x12a0>
    2442:	0e 94 3a 16 	call	0x2c74	; 0x2c74 <USART_Transmit_0>
    2446:	d7 98       	cbi	0x1a, 7	; 26
    2448:	df 98       	cbi	0x1b, 7	; 27
    244a:	d6 9a       	sbi	0x1a, 6	; 26
    244c:	de 9a       	sbi	0x1b, 6	; 27
    244e:	8f e3       	ldi	r24, 0x3F	; 63
    2450:	9c e9       	ldi	r25, 0x9C	; 156
    2452:	01 97       	sbiw	r24, 0x01	; 1
    2454:	f1 f7       	brne	.-4      	; 0x2452 <Scan_USART_Transmit+0x12ac>
    2456:	00 c0       	rjmp	.+0      	; 0x2458 <Scan_USART_Transmit+0x12b2>
    2458:	00 00       	nop
    245a:	0e 94 79 07 	call	0xef2	; 0xef2 <pull_PINF>
    245e:	0e 94 9d 07 	call	0xf3a	; 0xf3a <pull_PINE>
    2462:	0e 94 d3 07 	call	0xfa6	; 0xfa6 <pull_PINB>
    2466:	0e 94 1b 08 	call	0x1036	; 0x1036 <pull_PIND>
    246a:	0e 94 43 08 	call	0x1086	; 0x1086 <pull_PINC>
    246e:	cf 9b       	sbis	0x19, 7	; 25
    2470:	05 c0       	rjmp	.+10     	; 0x247c <Scan_USART_Transmit+0x12d6>
    2472:	5d 9b       	sbis	0x0b, 5	; 11
    2474:	fe cf       	rjmp	.-4      	; 0x2472 <Scan_USART_Transmit+0x12cc>
    2476:	81 e3       	ldi	r24, 0x31	; 49
    2478:	8c b9       	out	0x0c, r24	; 12
    247a:	02 c0       	rjmp	.+4      	; 0x2480 <Scan_USART_Transmit+0x12da>
    247c:	0e 94 3a 16 	call	0x2c74	; 0x2c74 <USART_Transmit_0>
    2480:	5d 9b       	sbis	0x0b, 5	; 11
    2482:	fe cf       	rjmp	.-4      	; 0x2480 <Scan_USART_Transmit+0x12da>
    2484:	85 e5       	ldi	r24, 0x55	; 85
    2486:	8c b9       	out	0x0c, r24	; 12
    2488:	cd 9b       	sbis	0x19, 5	; 25
    248a:	05 c0       	rjmp	.+10     	; 0x2496 <Scan_USART_Transmit+0x12f0>
    248c:	5d 9b       	sbis	0x0b, 5	; 11
    248e:	fe cf       	rjmp	.-4      	; 0x248c <Scan_USART_Transmit+0x12e6>
    2490:	81 e3       	ldi	r24, 0x31	; 49
    2492:	8c b9       	out	0x0c, r24	; 12
    2494:	02 c0       	rjmp	.+4      	; 0x249a <Scan_USART_Transmit+0x12f4>
    2496:	0e 94 3a 16 	call	0x2c74	; 0x2c74 <USART_Transmit_0>
    249a:	cc 9b       	sbis	0x19, 4	; 25
    249c:	05 c0       	rjmp	.+10     	; 0x24a8 <Scan_USART_Transmit+0x1302>
    249e:	5d 9b       	sbis	0x0b, 5	; 11
    24a0:	fe cf       	rjmp	.-4      	; 0x249e <Scan_USART_Transmit+0x12f8>
    24a2:	81 e3       	ldi	r24, 0x31	; 49
    24a4:	8c b9       	out	0x0c, r24	; 12
    24a6:	02 c0       	rjmp	.+4      	; 0x24ac <Scan_USART_Transmit+0x1306>
    24a8:	0e 94 3a 16 	call	0x2c74	; 0x2c74 <USART_Transmit_0>
    24ac:	cb 9b       	sbis	0x19, 3	; 25
    24ae:	05 c0       	rjmp	.+10     	; 0x24ba <Scan_USART_Transmit+0x1314>
    24b0:	5d 9b       	sbis	0x0b, 5	; 11
    24b2:	fe cf       	rjmp	.-4      	; 0x24b0 <Scan_USART_Transmit+0x130a>
    24b4:	81 e3       	ldi	r24, 0x31	; 49
    24b6:	8c b9       	out	0x0c, r24	; 12
    24b8:	02 c0       	rjmp	.+4      	; 0x24be <Scan_USART_Transmit+0x1318>
    24ba:	0e 94 3a 16 	call	0x2c74	; 0x2c74 <USART_Transmit_0>
    24be:	ca 9b       	sbis	0x19, 2	; 25
    24c0:	05 c0       	rjmp	.+10     	; 0x24cc <Scan_USART_Transmit+0x1326>
    24c2:	5d 9b       	sbis	0x0b, 5	; 11
    24c4:	fe cf       	rjmp	.-4      	; 0x24c2 <Scan_USART_Transmit+0x131c>
    24c6:	81 e3       	ldi	r24, 0x31	; 49
    24c8:	8c b9       	out	0x0c, r24	; 12
    24ca:	02 c0       	rjmp	.+4      	; 0x24d0 <Scan_USART_Transmit+0x132a>
    24cc:	0e 94 3a 16 	call	0x2c74	; 0x2c74 <USART_Transmit_0>
    24d0:	c9 9b       	sbis	0x19, 1	; 25
    24d2:	05 c0       	rjmp	.+10     	; 0x24de <Scan_USART_Transmit+0x1338>
    24d4:	5d 9b       	sbis	0x0b, 5	; 11
    24d6:	fe cf       	rjmp	.-4      	; 0x24d4 <Scan_USART_Transmit+0x132e>
    24d8:	81 e3       	ldi	r24, 0x31	; 49
    24da:	8c b9       	out	0x0c, r24	; 12
    24dc:	02 c0       	rjmp	.+4      	; 0x24e2 <Scan_USART_Transmit+0x133c>
    24de:	0e 94 3a 16 	call	0x2c74	; 0x2c74 <USART_Transmit_0>
    24e2:	c8 9b       	sbis	0x19, 0	; 25
    24e4:	05 c0       	rjmp	.+10     	; 0x24f0 <Scan_USART_Transmit+0x134a>
    24e6:	5d 9b       	sbis	0x0b, 5	; 11
    24e8:	fe cf       	rjmp	.-4      	; 0x24e6 <Scan_USART_Transmit+0x1340>
    24ea:	81 e3       	ldi	r24, 0x31	; 49
    24ec:	8c b9       	out	0x0c, r24	; 12
    24ee:	02 c0       	rjmp	.+4      	; 0x24f4 <Scan_USART_Transmit+0x134e>
    24f0:	0e 94 3a 16 	call	0x2c74	; 0x2c74 <USART_Transmit_0>
    24f4:	d6 98       	cbi	0x1a, 6	; 26
    24f6:	de 98       	cbi	0x1b, 6	; 27
    24f8:	d5 9a       	sbi	0x1a, 5	; 26
    24fa:	dd 9a       	sbi	0x1b, 5	; 27
    24fc:	8f e3       	ldi	r24, 0x3F	; 63
    24fe:	9c e9       	ldi	r25, 0x9C	; 156
    2500:	01 97       	sbiw	r24, 0x01	; 1
    2502:	f1 f7       	brne	.-4      	; 0x2500 <Scan_USART_Transmit+0x135a>
    2504:	00 c0       	rjmp	.+0      	; 0x2506 <Scan_USART_Transmit+0x1360>
    2506:	00 00       	nop
    2508:	0e 94 79 07 	call	0xef2	; 0xef2 <pull_PINF>
    250c:	0e 94 9d 07 	call	0xf3a	; 0xf3a <pull_PINE>
    2510:	0e 94 d3 07 	call	0xfa6	; 0xfa6 <pull_PINB>
    2514:	0e 94 1b 08 	call	0x1036	; 0x1036 <pull_PIND>
    2518:	0e 94 43 08 	call	0x1086	; 0x1086 <pull_PINC>
    251c:	cf 9b       	sbis	0x19, 7	; 25
    251e:	05 c0       	rjmp	.+10     	; 0x252a <Scan_USART_Transmit+0x1384>
    2520:	5d 9b       	sbis	0x0b, 5	; 11
    2522:	fe cf       	rjmp	.-4      	; 0x2520 <Scan_USART_Transmit+0x137a>
    2524:	81 e3       	ldi	r24, 0x31	; 49
    2526:	8c b9       	out	0x0c, r24	; 12
    2528:	02 c0       	rjmp	.+4      	; 0x252e <Scan_USART_Transmit+0x1388>
    252a:	0e 94 3a 16 	call	0x2c74	; 0x2c74 <USART_Transmit_0>
    252e:	ce 9b       	sbis	0x19, 6	; 25
    2530:	05 c0       	rjmp	.+10     	; 0x253c <Scan_USART_Transmit+0x1396>
    2532:	5d 9b       	sbis	0x0b, 5	; 11
    2534:	fe cf       	rjmp	.-4      	; 0x2532 <Scan_USART_Transmit+0x138c>
    2536:	81 e3       	ldi	r24, 0x31	; 49
    2538:	8c b9       	out	0x0c, r24	; 12
    253a:	02 c0       	rjmp	.+4      	; 0x2540 <Scan_USART_Transmit+0x139a>
    253c:	0e 94 3a 16 	call	0x2c74	; 0x2c74 <USART_Transmit_0>
    2540:	5d 9b       	sbis	0x0b, 5	; 11
    2542:	fe cf       	rjmp	.-4      	; 0x2540 <Scan_USART_Transmit+0x139a>
    2544:	85 e5       	ldi	r24, 0x55	; 85
    2546:	8c b9       	out	0x0c, r24	; 12
    2548:	cc 9b       	sbis	0x19, 4	; 25
    254a:	05 c0       	rjmp	.+10     	; 0x2556 <Scan_USART_Transmit+0x13b0>
    254c:	5d 9b       	sbis	0x0b, 5	; 11
    254e:	fe cf       	rjmp	.-4      	; 0x254c <Scan_USART_Transmit+0x13a6>
    2550:	81 e3       	ldi	r24, 0x31	; 49
    2552:	8c b9       	out	0x0c, r24	; 12
    2554:	02 c0       	rjmp	.+4      	; 0x255a <Scan_USART_Transmit+0x13b4>
    2556:	0e 94 3a 16 	call	0x2c74	; 0x2c74 <USART_Transmit_0>
    255a:	cb 9b       	sbis	0x19, 3	; 25
    255c:	05 c0       	rjmp	.+10     	; 0x2568 <Scan_USART_Transmit+0x13c2>
    255e:	5d 9b       	sbis	0x0b, 5	; 11
    2560:	fe cf       	rjmp	.-4      	; 0x255e <Scan_USART_Transmit+0x13b8>
    2562:	81 e3       	ldi	r24, 0x31	; 49
    2564:	8c b9       	out	0x0c, r24	; 12
    2566:	02 c0       	rjmp	.+4      	; 0x256c <Scan_USART_Transmit+0x13c6>
    2568:	0e 94 3a 16 	call	0x2c74	; 0x2c74 <USART_Transmit_0>
    256c:	ca 9b       	sbis	0x19, 2	; 25
    256e:	05 c0       	rjmp	.+10     	; 0x257a <Scan_USART_Transmit+0x13d4>
    2570:	5d 9b       	sbis	0x0b, 5	; 11
    2572:	fe cf       	rjmp	.-4      	; 0x2570 <Scan_USART_Transmit+0x13ca>
    2574:	81 e3       	ldi	r24, 0x31	; 49
    2576:	8c b9       	out	0x0c, r24	; 12
    2578:	02 c0       	rjmp	.+4      	; 0x257e <Scan_USART_Transmit+0x13d8>
    257a:	0e 94 3a 16 	call	0x2c74	; 0x2c74 <USART_Transmit_0>
    257e:	c9 9b       	sbis	0x19, 1	; 25
    2580:	05 c0       	rjmp	.+10     	; 0x258c <Scan_USART_Transmit+0x13e6>
    2582:	5d 9b       	sbis	0x0b, 5	; 11
    2584:	fe cf       	rjmp	.-4      	; 0x2582 <Scan_USART_Transmit+0x13dc>
    2586:	81 e3       	ldi	r24, 0x31	; 49
    2588:	8c b9       	out	0x0c, r24	; 12
    258a:	02 c0       	rjmp	.+4      	; 0x2590 <Scan_USART_Transmit+0x13ea>
    258c:	0e 94 3a 16 	call	0x2c74	; 0x2c74 <USART_Transmit_0>
    2590:	c8 9b       	sbis	0x19, 0	; 25
    2592:	05 c0       	rjmp	.+10     	; 0x259e <Scan_USART_Transmit+0x13f8>
    2594:	5d 9b       	sbis	0x0b, 5	; 11
    2596:	fe cf       	rjmp	.-4      	; 0x2594 <Scan_USART_Transmit+0x13ee>
    2598:	81 e3       	ldi	r24, 0x31	; 49
    259a:	8c b9       	out	0x0c, r24	; 12
    259c:	02 c0       	rjmp	.+4      	; 0x25a2 <Scan_USART_Transmit+0x13fc>
    259e:	0e 94 3a 16 	call	0x2c74	; 0x2c74 <USART_Transmit_0>
    25a2:	d5 98       	cbi	0x1a, 5	; 26
    25a4:	dd 98       	cbi	0x1b, 5	; 27
    25a6:	d4 9a       	sbi	0x1a, 4	; 26
    25a8:	dc 9a       	sbi	0x1b, 4	; 27
    25aa:	8f e3       	ldi	r24, 0x3F	; 63
    25ac:	9c e9       	ldi	r25, 0x9C	; 156
    25ae:	01 97       	sbiw	r24, 0x01	; 1
    25b0:	f1 f7       	brne	.-4      	; 0x25ae <Scan_USART_Transmit+0x1408>
    25b2:	00 c0       	rjmp	.+0      	; 0x25b4 <Scan_USART_Transmit+0x140e>
    25b4:	00 00       	nop
    25b6:	0e 94 79 07 	call	0xef2	; 0xef2 <pull_PINF>
    25ba:	0e 94 9d 07 	call	0xf3a	; 0xf3a <pull_PINE>
    25be:	0e 94 d3 07 	call	0xfa6	; 0xfa6 <pull_PINB>
    25c2:	0e 94 1b 08 	call	0x1036	; 0x1036 <pull_PIND>
    25c6:	0e 94 43 08 	call	0x1086	; 0x1086 <pull_PINC>
    25ca:	cf 9b       	sbis	0x19, 7	; 25
    25cc:	05 c0       	rjmp	.+10     	; 0x25d8 <Scan_USART_Transmit+0x1432>
    25ce:	5d 9b       	sbis	0x0b, 5	; 11
    25d0:	fe cf       	rjmp	.-4      	; 0x25ce <Scan_USART_Transmit+0x1428>
    25d2:	81 e3       	ldi	r24, 0x31	; 49
    25d4:	8c b9       	out	0x0c, r24	; 12
    25d6:	02 c0       	rjmp	.+4      	; 0x25dc <Scan_USART_Transmit+0x1436>
    25d8:	0e 94 3a 16 	call	0x2c74	; 0x2c74 <USART_Transmit_0>
    25dc:	ce 9b       	sbis	0x19, 6	; 25
    25de:	05 c0       	rjmp	.+10     	; 0x25ea <Scan_USART_Transmit+0x1444>
    25e0:	5d 9b       	sbis	0x0b, 5	; 11
    25e2:	fe cf       	rjmp	.-4      	; 0x25e0 <Scan_USART_Transmit+0x143a>
    25e4:	81 e3       	ldi	r24, 0x31	; 49
    25e6:	8c b9       	out	0x0c, r24	; 12
    25e8:	02 c0       	rjmp	.+4      	; 0x25ee <Scan_USART_Transmit+0x1448>
    25ea:	0e 94 3a 16 	call	0x2c74	; 0x2c74 <USART_Transmit_0>
    25ee:	cd 9b       	sbis	0x19, 5	; 25
    25f0:	05 c0       	rjmp	.+10     	; 0x25fc <Scan_USART_Transmit+0x1456>
    25f2:	5d 9b       	sbis	0x0b, 5	; 11
    25f4:	fe cf       	rjmp	.-4      	; 0x25f2 <Scan_USART_Transmit+0x144c>
    25f6:	81 e3       	ldi	r24, 0x31	; 49
    25f8:	8c b9       	out	0x0c, r24	; 12
    25fa:	02 c0       	rjmp	.+4      	; 0x2600 <Scan_USART_Transmit+0x145a>
    25fc:	0e 94 3a 16 	call	0x2c74	; 0x2c74 <USART_Transmit_0>
    2600:	5d 9b       	sbis	0x0b, 5	; 11
    2602:	fe cf       	rjmp	.-4      	; 0x2600 <Scan_USART_Transmit+0x145a>
    2604:	85 e5       	ldi	r24, 0x55	; 85
    2606:	8c b9       	out	0x0c, r24	; 12
    2608:	cb 9b       	sbis	0x19, 3	; 25
    260a:	05 c0       	rjmp	.+10     	; 0x2616 <Scan_USART_Transmit+0x1470>
    260c:	5d 9b       	sbis	0x0b, 5	; 11
    260e:	fe cf       	rjmp	.-4      	; 0x260c <Scan_USART_Transmit+0x1466>
    2610:	81 e3       	ldi	r24, 0x31	; 49
    2612:	8c b9       	out	0x0c, r24	; 12
    2614:	02 c0       	rjmp	.+4      	; 0x261a <Scan_USART_Transmit+0x1474>
    2616:	0e 94 3a 16 	call	0x2c74	; 0x2c74 <USART_Transmit_0>
    261a:	ca 9b       	sbis	0x19, 2	; 25
    261c:	05 c0       	rjmp	.+10     	; 0x2628 <Scan_USART_Transmit+0x1482>
    261e:	5d 9b       	sbis	0x0b, 5	; 11
    2620:	fe cf       	rjmp	.-4      	; 0x261e <Scan_USART_Transmit+0x1478>
    2622:	81 e3       	ldi	r24, 0x31	; 49
    2624:	8c b9       	out	0x0c, r24	; 12
    2626:	02 c0       	rjmp	.+4      	; 0x262c <Scan_USART_Transmit+0x1486>
    2628:	0e 94 3a 16 	call	0x2c74	; 0x2c74 <USART_Transmit_0>
    262c:	c9 9b       	sbis	0x19, 1	; 25
    262e:	05 c0       	rjmp	.+10     	; 0x263a <Scan_USART_Transmit+0x1494>
    2630:	5d 9b       	sbis	0x0b, 5	; 11
    2632:	fe cf       	rjmp	.-4      	; 0x2630 <Scan_USART_Transmit+0x148a>
    2634:	81 e3       	ldi	r24, 0x31	; 49
    2636:	8c b9       	out	0x0c, r24	; 12
    2638:	02 c0       	rjmp	.+4      	; 0x263e <Scan_USART_Transmit+0x1498>
    263a:	0e 94 3a 16 	call	0x2c74	; 0x2c74 <USART_Transmit_0>
    263e:	c8 9b       	sbis	0x19, 0	; 25
    2640:	05 c0       	rjmp	.+10     	; 0x264c <Scan_USART_Transmit+0x14a6>
    2642:	5d 9b       	sbis	0x0b, 5	; 11
    2644:	fe cf       	rjmp	.-4      	; 0x2642 <Scan_USART_Transmit+0x149c>
    2646:	81 e3       	ldi	r24, 0x31	; 49
    2648:	8c b9       	out	0x0c, r24	; 12
    264a:	02 c0       	rjmp	.+4      	; 0x2650 <Scan_USART_Transmit+0x14aa>
    264c:	0e 94 3a 16 	call	0x2c74	; 0x2c74 <USART_Transmit_0>
    2650:	d4 98       	cbi	0x1a, 4	; 26
    2652:	dc 98       	cbi	0x1b, 4	; 27
    2654:	d3 9a       	sbi	0x1a, 3	; 26
    2656:	db 9a       	sbi	0x1b, 3	; 27
    2658:	8f e3       	ldi	r24, 0x3F	; 63
    265a:	9c e9       	ldi	r25, 0x9C	; 156
    265c:	01 97       	sbiw	r24, 0x01	; 1
    265e:	f1 f7       	brne	.-4      	; 0x265c <Scan_USART_Transmit+0x14b6>
    2660:	00 c0       	rjmp	.+0      	; 0x2662 <Scan_USART_Transmit+0x14bc>
    2662:	00 00       	nop
    2664:	0e 94 79 07 	call	0xef2	; 0xef2 <pull_PINF>
    2668:	0e 94 9d 07 	call	0xf3a	; 0xf3a <pull_PINE>
    266c:	0e 94 d3 07 	call	0xfa6	; 0xfa6 <pull_PINB>
    2670:	0e 94 1b 08 	call	0x1036	; 0x1036 <pull_PIND>
    2674:	0e 94 43 08 	call	0x1086	; 0x1086 <pull_PINC>
    2678:	cf 9b       	sbis	0x19, 7	; 25
    267a:	05 c0       	rjmp	.+10     	; 0x2686 <Scan_USART_Transmit+0x14e0>
    267c:	5d 9b       	sbis	0x0b, 5	; 11
    267e:	fe cf       	rjmp	.-4      	; 0x267c <Scan_USART_Transmit+0x14d6>
    2680:	81 e3       	ldi	r24, 0x31	; 49
    2682:	8c b9       	out	0x0c, r24	; 12
    2684:	02 c0       	rjmp	.+4      	; 0x268a <Scan_USART_Transmit+0x14e4>
    2686:	0e 94 3a 16 	call	0x2c74	; 0x2c74 <USART_Transmit_0>
    268a:	ce 9b       	sbis	0x19, 6	; 25
    268c:	05 c0       	rjmp	.+10     	; 0x2698 <Scan_USART_Transmit+0x14f2>
    268e:	5d 9b       	sbis	0x0b, 5	; 11
    2690:	fe cf       	rjmp	.-4      	; 0x268e <Scan_USART_Transmit+0x14e8>
    2692:	81 e3       	ldi	r24, 0x31	; 49
    2694:	8c b9       	out	0x0c, r24	; 12
    2696:	02 c0       	rjmp	.+4      	; 0x269c <Scan_USART_Transmit+0x14f6>
    2698:	0e 94 3a 16 	call	0x2c74	; 0x2c74 <USART_Transmit_0>
    269c:	cd 9b       	sbis	0x19, 5	; 25
    269e:	05 c0       	rjmp	.+10     	; 0x26aa <Scan_USART_Transmit+0x1504>
    26a0:	5d 9b       	sbis	0x0b, 5	; 11
    26a2:	fe cf       	rjmp	.-4      	; 0x26a0 <Scan_USART_Transmit+0x14fa>
    26a4:	81 e3       	ldi	r24, 0x31	; 49
    26a6:	8c b9       	out	0x0c, r24	; 12
    26a8:	02 c0       	rjmp	.+4      	; 0x26ae <Scan_USART_Transmit+0x1508>
    26aa:	0e 94 3a 16 	call	0x2c74	; 0x2c74 <USART_Transmit_0>
    26ae:	cc 9b       	sbis	0x19, 4	; 25
    26b0:	05 c0       	rjmp	.+10     	; 0x26bc <Scan_USART_Transmit+0x1516>
    26b2:	5d 9b       	sbis	0x0b, 5	; 11
    26b4:	fe cf       	rjmp	.-4      	; 0x26b2 <Scan_USART_Transmit+0x150c>
    26b6:	81 e3       	ldi	r24, 0x31	; 49
    26b8:	8c b9       	out	0x0c, r24	; 12
    26ba:	02 c0       	rjmp	.+4      	; 0x26c0 <Scan_USART_Transmit+0x151a>
    26bc:	0e 94 3a 16 	call	0x2c74	; 0x2c74 <USART_Transmit_0>
    26c0:	5d 9b       	sbis	0x0b, 5	; 11
    26c2:	fe cf       	rjmp	.-4      	; 0x26c0 <Scan_USART_Transmit+0x151a>
    26c4:	85 e5       	ldi	r24, 0x55	; 85
    26c6:	8c b9       	out	0x0c, r24	; 12
    26c8:	ca 9b       	sbis	0x19, 2	; 25
    26ca:	05 c0       	rjmp	.+10     	; 0x26d6 <Scan_USART_Transmit+0x1530>
    26cc:	5d 9b       	sbis	0x0b, 5	; 11
    26ce:	fe cf       	rjmp	.-4      	; 0x26cc <Scan_USART_Transmit+0x1526>
    26d0:	81 e3       	ldi	r24, 0x31	; 49
    26d2:	8c b9       	out	0x0c, r24	; 12
    26d4:	02 c0       	rjmp	.+4      	; 0x26da <Scan_USART_Transmit+0x1534>
    26d6:	0e 94 3a 16 	call	0x2c74	; 0x2c74 <USART_Transmit_0>
    26da:	c9 9b       	sbis	0x19, 1	; 25
    26dc:	05 c0       	rjmp	.+10     	; 0x26e8 <Scan_USART_Transmit+0x1542>
    26de:	5d 9b       	sbis	0x0b, 5	; 11
    26e0:	fe cf       	rjmp	.-4      	; 0x26de <Scan_USART_Transmit+0x1538>
    26e2:	81 e3       	ldi	r24, 0x31	; 49
    26e4:	8c b9       	out	0x0c, r24	; 12
    26e6:	02 c0       	rjmp	.+4      	; 0x26ec <Scan_USART_Transmit+0x1546>
    26e8:	0e 94 3a 16 	call	0x2c74	; 0x2c74 <USART_Transmit_0>
    26ec:	c8 9b       	sbis	0x19, 0	; 25
    26ee:	05 c0       	rjmp	.+10     	; 0x26fa <Scan_USART_Transmit+0x1554>
    26f0:	5d 9b       	sbis	0x0b, 5	; 11
    26f2:	fe cf       	rjmp	.-4      	; 0x26f0 <Scan_USART_Transmit+0x154a>
    26f4:	81 e3       	ldi	r24, 0x31	; 49
    26f6:	8c b9       	out	0x0c, r24	; 12
    26f8:	02 c0       	rjmp	.+4      	; 0x26fe <Scan_USART_Transmit+0x1558>
    26fa:	0e 94 3a 16 	call	0x2c74	; 0x2c74 <USART_Transmit_0>
    26fe:	d3 98       	cbi	0x1a, 3	; 26
    2700:	db 98       	cbi	0x1b, 3	; 27
    2702:	d2 9a       	sbi	0x1a, 2	; 26
    2704:	da 9a       	sbi	0x1b, 2	; 27
    2706:	8f e3       	ldi	r24, 0x3F	; 63
    2708:	9c e9       	ldi	r25, 0x9C	; 156
    270a:	01 97       	sbiw	r24, 0x01	; 1
    270c:	f1 f7       	brne	.-4      	; 0x270a <Scan_USART_Transmit+0x1564>
    270e:	00 c0       	rjmp	.+0      	; 0x2710 <Scan_USART_Transmit+0x156a>
    2710:	00 00       	nop
    2712:	0e 94 79 07 	call	0xef2	; 0xef2 <pull_PINF>
    2716:	0e 94 9d 07 	call	0xf3a	; 0xf3a <pull_PINE>
    271a:	0e 94 d3 07 	call	0xfa6	; 0xfa6 <pull_PINB>
    271e:	0e 94 1b 08 	call	0x1036	; 0x1036 <pull_PIND>
    2722:	0e 94 43 08 	call	0x1086	; 0x1086 <pull_PINC>
    2726:	cf 9b       	sbis	0x19, 7	; 25
    2728:	05 c0       	rjmp	.+10     	; 0x2734 <Scan_USART_Transmit+0x158e>
    272a:	5d 9b       	sbis	0x0b, 5	; 11
    272c:	fe cf       	rjmp	.-4      	; 0x272a <Scan_USART_Transmit+0x1584>
    272e:	81 e3       	ldi	r24, 0x31	; 49
    2730:	8c b9       	out	0x0c, r24	; 12
    2732:	02 c0       	rjmp	.+4      	; 0x2738 <Scan_USART_Transmit+0x1592>
    2734:	0e 94 3a 16 	call	0x2c74	; 0x2c74 <USART_Transmit_0>
    2738:	ce 9b       	sbis	0x19, 6	; 25
    273a:	05 c0       	rjmp	.+10     	; 0x2746 <Scan_USART_Transmit+0x15a0>
    273c:	5d 9b       	sbis	0x0b, 5	; 11
    273e:	fe cf       	rjmp	.-4      	; 0x273c <Scan_USART_Transmit+0x1596>
    2740:	81 e3       	ldi	r24, 0x31	; 49
    2742:	8c b9       	out	0x0c, r24	; 12
    2744:	02 c0       	rjmp	.+4      	; 0x274a <Scan_USART_Transmit+0x15a4>
    2746:	0e 94 3a 16 	call	0x2c74	; 0x2c74 <USART_Transmit_0>
    274a:	cd 9b       	sbis	0x19, 5	; 25
    274c:	05 c0       	rjmp	.+10     	; 0x2758 <Scan_USART_Transmit+0x15b2>
    274e:	5d 9b       	sbis	0x0b, 5	; 11
    2750:	fe cf       	rjmp	.-4      	; 0x274e <Scan_USART_Transmit+0x15a8>
    2752:	81 e3       	ldi	r24, 0x31	; 49
    2754:	8c b9       	out	0x0c, r24	; 12
    2756:	02 c0       	rjmp	.+4      	; 0x275c <Scan_USART_Transmit+0x15b6>
    2758:	0e 94 3a 16 	call	0x2c74	; 0x2c74 <USART_Transmit_0>
    275c:	cc 9b       	sbis	0x19, 4	; 25
    275e:	05 c0       	rjmp	.+10     	; 0x276a <Scan_USART_Transmit+0x15c4>
    2760:	5d 9b       	sbis	0x0b, 5	; 11
    2762:	fe cf       	rjmp	.-4      	; 0x2760 <Scan_USART_Transmit+0x15ba>
    2764:	81 e3       	ldi	r24, 0x31	; 49
    2766:	8c b9       	out	0x0c, r24	; 12
    2768:	02 c0       	rjmp	.+4      	; 0x276e <Scan_USART_Transmit+0x15c8>
    276a:	0e 94 3a 16 	call	0x2c74	; 0x2c74 <USART_Transmit_0>
    276e:	cb 9b       	sbis	0x19, 3	; 25
    2770:	05 c0       	rjmp	.+10     	; 0x277c <Scan_USART_Transmit+0x15d6>
    2772:	5d 9b       	sbis	0x0b, 5	; 11
    2774:	fe cf       	rjmp	.-4      	; 0x2772 <Scan_USART_Transmit+0x15cc>
    2776:	81 e3       	ldi	r24, 0x31	; 49
    2778:	8c b9       	out	0x0c, r24	; 12
    277a:	02 c0       	rjmp	.+4      	; 0x2780 <Scan_USART_Transmit+0x15da>
    277c:	0e 94 3a 16 	call	0x2c74	; 0x2c74 <USART_Transmit_0>
    2780:	5d 9b       	sbis	0x0b, 5	; 11
    2782:	fe cf       	rjmp	.-4      	; 0x2780 <Scan_USART_Transmit+0x15da>
    2784:	85 e5       	ldi	r24, 0x55	; 85
    2786:	8c b9       	out	0x0c, r24	; 12
    2788:	c9 9b       	sbis	0x19, 1	; 25
    278a:	05 c0       	rjmp	.+10     	; 0x2796 <Scan_USART_Transmit+0x15f0>
    278c:	5d 9b       	sbis	0x0b, 5	; 11
    278e:	fe cf       	rjmp	.-4      	; 0x278c <Scan_USART_Transmit+0x15e6>
    2790:	81 e3       	ldi	r24, 0x31	; 49
    2792:	8c b9       	out	0x0c, r24	; 12
    2794:	02 c0       	rjmp	.+4      	; 0x279a <Scan_USART_Transmit+0x15f4>
    2796:	0e 94 3a 16 	call	0x2c74	; 0x2c74 <USART_Transmit_0>
    279a:	c8 9b       	sbis	0x19, 0	; 25
    279c:	05 c0       	rjmp	.+10     	; 0x27a8 <Scan_USART_Transmit+0x1602>
    279e:	5d 9b       	sbis	0x0b, 5	; 11
    27a0:	fe cf       	rjmp	.-4      	; 0x279e <Scan_USART_Transmit+0x15f8>
    27a2:	81 e3       	ldi	r24, 0x31	; 49
    27a4:	8c b9       	out	0x0c, r24	; 12
    27a6:	02 c0       	rjmp	.+4      	; 0x27ac <Scan_USART_Transmit+0x1606>
    27a8:	0e 94 3a 16 	call	0x2c74	; 0x2c74 <USART_Transmit_0>
    27ac:	d2 98       	cbi	0x1a, 2	; 26
    27ae:	da 98       	cbi	0x1b, 2	; 27
    27b0:	d1 9a       	sbi	0x1a, 1	; 26
    27b2:	d9 9a       	sbi	0x1b, 1	; 27
    27b4:	8f e3       	ldi	r24, 0x3F	; 63
    27b6:	9c e9       	ldi	r25, 0x9C	; 156
    27b8:	01 97       	sbiw	r24, 0x01	; 1
    27ba:	f1 f7       	brne	.-4      	; 0x27b8 <Scan_USART_Transmit+0x1612>
    27bc:	00 c0       	rjmp	.+0      	; 0x27be <Scan_USART_Transmit+0x1618>
    27be:	00 00       	nop
    27c0:	0e 94 79 07 	call	0xef2	; 0xef2 <pull_PINF>
    27c4:	0e 94 9d 07 	call	0xf3a	; 0xf3a <pull_PINE>
    27c8:	0e 94 d3 07 	call	0xfa6	; 0xfa6 <pull_PINB>
    27cc:	0e 94 1b 08 	call	0x1036	; 0x1036 <pull_PIND>
    27d0:	0e 94 43 08 	call	0x1086	; 0x1086 <pull_PINC>
    27d4:	cf 9b       	sbis	0x19, 7	; 25
    27d6:	05 c0       	rjmp	.+10     	; 0x27e2 <Scan_USART_Transmit+0x163c>
    27d8:	5d 9b       	sbis	0x0b, 5	; 11
    27da:	fe cf       	rjmp	.-4      	; 0x27d8 <Scan_USART_Transmit+0x1632>
    27dc:	81 e3       	ldi	r24, 0x31	; 49
    27de:	8c b9       	out	0x0c, r24	; 12
    27e0:	02 c0       	rjmp	.+4      	; 0x27e6 <Scan_USART_Transmit+0x1640>
    27e2:	0e 94 3a 16 	call	0x2c74	; 0x2c74 <USART_Transmit_0>
    27e6:	ce 9b       	sbis	0x19, 6	; 25
    27e8:	05 c0       	rjmp	.+10     	; 0x27f4 <Scan_USART_Transmit+0x164e>
    27ea:	5d 9b       	sbis	0x0b, 5	; 11
    27ec:	fe cf       	rjmp	.-4      	; 0x27ea <Scan_USART_Transmit+0x1644>
    27ee:	81 e3       	ldi	r24, 0x31	; 49
    27f0:	8c b9       	out	0x0c, r24	; 12
    27f2:	02 c0       	rjmp	.+4      	; 0x27f8 <Scan_USART_Transmit+0x1652>
    27f4:	0e 94 3a 16 	call	0x2c74	; 0x2c74 <USART_Transmit_0>
    27f8:	cd 9b       	sbis	0x19, 5	; 25
    27fa:	05 c0       	rjmp	.+10     	; 0x2806 <Scan_USART_Transmit+0x1660>
    27fc:	5d 9b       	sbis	0x0b, 5	; 11
    27fe:	fe cf       	rjmp	.-4      	; 0x27fc <Scan_USART_Transmit+0x1656>
    2800:	81 e3       	ldi	r24, 0x31	; 49
    2802:	8c b9       	out	0x0c, r24	; 12
    2804:	02 c0       	rjmp	.+4      	; 0x280a <Scan_USART_Transmit+0x1664>
    2806:	0e 94 3a 16 	call	0x2c74	; 0x2c74 <USART_Transmit_0>
    280a:	cc 9b       	sbis	0x19, 4	; 25
    280c:	05 c0       	rjmp	.+10     	; 0x2818 <Scan_USART_Transmit+0x1672>
    280e:	5d 9b       	sbis	0x0b, 5	; 11
    2810:	fe cf       	rjmp	.-4      	; 0x280e <Scan_USART_Transmit+0x1668>
    2812:	81 e3       	ldi	r24, 0x31	; 49
    2814:	8c b9       	out	0x0c, r24	; 12
    2816:	02 c0       	rjmp	.+4      	; 0x281c <Scan_USART_Transmit+0x1676>
    2818:	0e 94 3a 16 	call	0x2c74	; 0x2c74 <USART_Transmit_0>
    281c:	cb 9b       	sbis	0x19, 3	; 25
    281e:	05 c0       	rjmp	.+10     	; 0x282a <Scan_USART_Transmit+0x1684>
    2820:	5d 9b       	sbis	0x0b, 5	; 11
    2822:	fe cf       	rjmp	.-4      	; 0x2820 <Scan_USART_Transmit+0x167a>
    2824:	81 e3       	ldi	r24, 0x31	; 49
    2826:	8c b9       	out	0x0c, r24	; 12
    2828:	02 c0       	rjmp	.+4      	; 0x282e <Scan_USART_Transmit+0x1688>
    282a:	0e 94 3a 16 	call	0x2c74	; 0x2c74 <USART_Transmit_0>
    282e:	ca 9b       	sbis	0x19, 2	; 25
    2830:	05 c0       	rjmp	.+10     	; 0x283c <Scan_USART_Transmit+0x1696>
    2832:	5d 9b       	sbis	0x0b, 5	; 11
    2834:	fe cf       	rjmp	.-4      	; 0x2832 <Scan_USART_Transmit+0x168c>
    2836:	81 e3       	ldi	r24, 0x31	; 49
    2838:	8c b9       	out	0x0c, r24	; 12
    283a:	02 c0       	rjmp	.+4      	; 0x2840 <Scan_USART_Transmit+0x169a>
    283c:	0e 94 3a 16 	call	0x2c74	; 0x2c74 <USART_Transmit_0>
    2840:	5d 9b       	sbis	0x0b, 5	; 11
    2842:	fe cf       	rjmp	.-4      	; 0x2840 <Scan_USART_Transmit+0x169a>
    2844:	85 e5       	ldi	r24, 0x55	; 85
    2846:	8c b9       	out	0x0c, r24	; 12
    2848:	c8 9b       	sbis	0x19, 0	; 25
    284a:	05 c0       	rjmp	.+10     	; 0x2856 <Scan_USART_Transmit+0x16b0>
    284c:	5d 9b       	sbis	0x0b, 5	; 11
    284e:	fe cf       	rjmp	.-4      	; 0x284c <Scan_USART_Transmit+0x16a6>
    2850:	81 e3       	ldi	r24, 0x31	; 49
    2852:	8c b9       	out	0x0c, r24	; 12
    2854:	02 c0       	rjmp	.+4      	; 0x285a <Scan_USART_Transmit+0x16b4>
    2856:	0e 94 3a 16 	call	0x2c74	; 0x2c74 <USART_Transmit_0>
    285a:	d1 98       	cbi	0x1a, 1	; 26
    285c:	d9 98       	cbi	0x1b, 1	; 27
    285e:	d0 9a       	sbi	0x1a, 0	; 26
    2860:	d8 9a       	sbi	0x1b, 0	; 27
    2862:	8f e3       	ldi	r24, 0x3F	; 63
    2864:	9c e9       	ldi	r25, 0x9C	; 156
    2866:	01 97       	sbiw	r24, 0x01	; 1
    2868:	f1 f7       	brne	.-4      	; 0x2866 <Scan_USART_Transmit+0x16c0>
    286a:	00 c0       	rjmp	.+0      	; 0x286c <Scan_USART_Transmit+0x16c6>
    286c:	00 00       	nop
    286e:	0e 94 79 07 	call	0xef2	; 0xef2 <pull_PINF>
    2872:	0e 94 9d 07 	call	0xf3a	; 0xf3a <pull_PINE>
    2876:	0e 94 d3 07 	call	0xfa6	; 0xfa6 <pull_PINB>
    287a:	0e 94 1b 08 	call	0x1036	; 0x1036 <pull_PIND>
    287e:	0e 94 43 08 	call	0x1086	; 0x1086 <pull_PINC>
    2882:	cf 9b       	sbis	0x19, 7	; 25
    2884:	05 c0       	rjmp	.+10     	; 0x2890 <Scan_USART_Transmit+0x16ea>
    2886:	5d 9b       	sbis	0x0b, 5	; 11
    2888:	fe cf       	rjmp	.-4      	; 0x2886 <Scan_USART_Transmit+0x16e0>
    288a:	81 e3       	ldi	r24, 0x31	; 49
    288c:	8c b9       	out	0x0c, r24	; 12
    288e:	02 c0       	rjmp	.+4      	; 0x2894 <Scan_USART_Transmit+0x16ee>
    2890:	0e 94 3a 16 	call	0x2c74	; 0x2c74 <USART_Transmit_0>
    2894:	ce 9b       	sbis	0x19, 6	; 25
    2896:	05 c0       	rjmp	.+10     	; 0x28a2 <Scan_USART_Transmit+0x16fc>
    2898:	5d 9b       	sbis	0x0b, 5	; 11
    289a:	fe cf       	rjmp	.-4      	; 0x2898 <Scan_USART_Transmit+0x16f2>
    289c:	81 e3       	ldi	r24, 0x31	; 49
    289e:	8c b9       	out	0x0c, r24	; 12
    28a0:	02 c0       	rjmp	.+4      	; 0x28a6 <Scan_USART_Transmit+0x1700>
    28a2:	0e 94 3a 16 	call	0x2c74	; 0x2c74 <USART_Transmit_0>
    28a6:	cd 9b       	sbis	0x19, 5	; 25
    28a8:	05 c0       	rjmp	.+10     	; 0x28b4 <Scan_USART_Transmit+0x170e>
    28aa:	5d 9b       	sbis	0x0b, 5	; 11
    28ac:	fe cf       	rjmp	.-4      	; 0x28aa <Scan_USART_Transmit+0x1704>
    28ae:	81 e3       	ldi	r24, 0x31	; 49
    28b0:	8c b9       	out	0x0c, r24	; 12
    28b2:	02 c0       	rjmp	.+4      	; 0x28b8 <Scan_USART_Transmit+0x1712>
    28b4:	0e 94 3a 16 	call	0x2c74	; 0x2c74 <USART_Transmit_0>
    28b8:	cc 9b       	sbis	0x19, 4	; 25
    28ba:	05 c0       	rjmp	.+10     	; 0x28c6 <Scan_USART_Transmit+0x1720>
    28bc:	5d 9b       	sbis	0x0b, 5	; 11
    28be:	fe cf       	rjmp	.-4      	; 0x28bc <Scan_USART_Transmit+0x1716>
    28c0:	81 e3       	ldi	r24, 0x31	; 49
    28c2:	8c b9       	out	0x0c, r24	; 12
    28c4:	02 c0       	rjmp	.+4      	; 0x28ca <Scan_USART_Transmit+0x1724>
    28c6:	0e 94 3a 16 	call	0x2c74	; 0x2c74 <USART_Transmit_0>
    28ca:	cb 9b       	sbis	0x19, 3	; 25
    28cc:	05 c0       	rjmp	.+10     	; 0x28d8 <Scan_USART_Transmit+0x1732>
    28ce:	5d 9b       	sbis	0x0b, 5	; 11
    28d0:	fe cf       	rjmp	.-4      	; 0x28ce <Scan_USART_Transmit+0x1728>
    28d2:	81 e3       	ldi	r24, 0x31	; 49
    28d4:	8c b9       	out	0x0c, r24	; 12
    28d6:	02 c0       	rjmp	.+4      	; 0x28dc <Scan_USART_Transmit+0x1736>
    28d8:	0e 94 3a 16 	call	0x2c74	; 0x2c74 <USART_Transmit_0>
    28dc:	ca 9b       	sbis	0x19, 2	; 25
    28de:	05 c0       	rjmp	.+10     	; 0x28ea <Scan_USART_Transmit+0x1744>
    28e0:	5d 9b       	sbis	0x0b, 5	; 11
    28e2:	fe cf       	rjmp	.-4      	; 0x28e0 <Scan_USART_Transmit+0x173a>
    28e4:	81 e3       	ldi	r24, 0x31	; 49
    28e6:	8c b9       	out	0x0c, r24	; 12
    28e8:	02 c0       	rjmp	.+4      	; 0x28ee <Scan_USART_Transmit+0x1748>
    28ea:	0e 94 3a 16 	call	0x2c74	; 0x2c74 <USART_Transmit_0>
    28ee:	c9 9b       	sbis	0x19, 1	; 25
    28f0:	05 c0       	rjmp	.+10     	; 0x28fc <Scan_USART_Transmit+0x1756>
    28f2:	5d 9b       	sbis	0x0b, 5	; 11
    28f4:	fe cf       	rjmp	.-4      	; 0x28f2 <Scan_USART_Transmit+0x174c>
    28f6:	81 e3       	ldi	r24, 0x31	; 49
    28f8:	8c b9       	out	0x0c, r24	; 12
    28fa:	02 c0       	rjmp	.+4      	; 0x2900 <Scan_USART_Transmit+0x175a>
    28fc:	0e 94 3a 16 	call	0x2c74	; 0x2c74 <USART_Transmit_0>
    2900:	5d 9b       	sbis	0x0b, 5	; 11
    2902:	fe cf       	rjmp	.-4      	; 0x2900 <Scan_USART_Transmit+0x175a>
    2904:	85 e5       	ldi	r24, 0x55	; 85
    2906:	8c b9       	out	0x0c, r24	; 12
    2908:	d0 98       	cbi	0x1a, 0	; 26
    290a:	d8 98       	cbi	0x1b, 0	; 27
    290c:	5d 9b       	sbis	0x0b, 5	; 11
    290e:	fe cf       	rjmp	.-4      	; 0x290c <Scan_USART_Transmit+0x1766>
    2910:	8a e0       	ldi	r24, 0x0A	; 10
    2912:	8c b9       	out	0x0c, r24	; 12
    2914:	80 91 65 00 	lds	r24, 0x0065	; 0x800065 <__TEXT_REGION_LENGTH__+0x7e0065>
    2918:	8b 7f       	andi	r24, 0xFB	; 251
    291a:	80 93 65 00 	sts	0x0065, r24	; 0x800065 <__TEXT_REGION_LENGTH__+0x7e0065>
    291e:	08 95       	ret

00002920 <fromEeprom_toLongString>:
    2920:	cf 93       	push	r28
    2922:	df 93       	push	r29
    2924:	80 91 0c 01 	lds	r24, 0x010C	; 0x80010c <cell_addres>
    2928:	90 91 0d 01 	lds	r25, 0x010D	; 0x80010d <cell_addres+0x1>
    292c:	90 93 0b 01 	sts	0x010B, r25	; 0x80010b <Eeprom_addres_process+0x1>
    2930:	80 93 0a 01 	sts	0x010A, r24	; 0x80010a <Eeprom_addres_process>
    2934:	d6 e2       	ldi	r29, 0x26	; 38
    2936:	0e 94 8f 06 	call	0xd1e	; 0xd1e <Toogle_blue_LED>
    293a:	80 91 0a 01 	lds	r24, 0x010A	; 0x80010a <Eeprom_addres_process>
    293e:	90 91 0b 01 	lds	r25, 0x010B	; 0x80010b <Eeprom_addres_process+0x1>
    2942:	0e 94 6a 00 	call	0xd4	; 0xd4 <EEPROM_read>
    2946:	c8 2f       	mov	r28, r24
    2948:	83 ff       	sbrs	r24, 3
    294a:	03 c0       	rjmp	.+6      	; 0x2952 <fromEeprom_toLongString+0x32>
    294c:	0e 94 3f 16 	call	0x2c7e	; 0x2c7e <USART_Transmit_1>
    2950:	02 c0       	rjmp	.+4      	; 0x2956 <fromEeprom_toLongString+0x36>
    2952:	0e 94 3a 16 	call	0x2c74	; 0x2c74 <USART_Transmit_0>
    2956:	c2 ff       	sbrs	r28, 2
    2958:	03 c0       	rjmp	.+6      	; 0x2960 <fromEeprom_toLongString+0x40>
    295a:	0e 94 3f 16 	call	0x2c7e	; 0x2c7e <USART_Transmit_1>
    295e:	02 c0       	rjmp	.+4      	; 0x2964 <fromEeprom_toLongString+0x44>
    2960:	0e 94 3a 16 	call	0x2c74	; 0x2c74 <USART_Transmit_0>
    2964:	c1 ff       	sbrs	r28, 1
    2966:	03 c0       	rjmp	.+6      	; 0x296e <fromEeprom_toLongString+0x4e>
    2968:	0e 94 3f 16 	call	0x2c7e	; 0x2c7e <USART_Transmit_1>
    296c:	02 c0       	rjmp	.+4      	; 0x2972 <fromEeprom_toLongString+0x52>
    296e:	0e 94 3a 16 	call	0x2c74	; 0x2c74 <USART_Transmit_0>
    2972:	c0 ff       	sbrs	r28, 0
    2974:	03 c0       	rjmp	.+6      	; 0x297c <fromEeprom_toLongString+0x5c>
    2976:	0e 94 3f 16 	call	0x2c7e	; 0x2c7e <USART_Transmit_1>
    297a:	02 c0       	rjmp	.+4      	; 0x2980 <fromEeprom_toLongString+0x60>
    297c:	0e 94 3a 16 	call	0x2c74	; 0x2c74 <USART_Transmit_0>
    2980:	80 91 0a 01 	lds	r24, 0x010A	; 0x80010a <Eeprom_addres_process>
    2984:	90 91 0b 01 	lds	r25, 0x010B	; 0x80010b <Eeprom_addres_process+0x1>
    2988:	01 96       	adiw	r24, 0x01	; 1
    298a:	90 93 0b 01 	sts	0x010B, r25	; 0x80010b <Eeprom_addres_process+0x1>
    298e:	80 93 0a 01 	sts	0x010A, r24	; 0x80010a <Eeprom_addres_process>
    2992:	0e 94 6a 00 	call	0xd4	; 0xd4 <EEPROM_read>
    2996:	c8 2f       	mov	r28, r24
    2998:	82 ff       	sbrs	r24, 2
    299a:	03 c0       	rjmp	.+6      	; 0x29a2 <fromEeprom_toLongString+0x82>
    299c:	0e 94 3f 16 	call	0x2c7e	; 0x2c7e <USART_Transmit_1>
    29a0:	02 c0       	rjmp	.+4      	; 0x29a6 <fromEeprom_toLongString+0x86>
    29a2:	0e 94 3a 16 	call	0x2c74	; 0x2c74 <USART_Transmit_0>
    29a6:	c3 ff       	sbrs	r28, 3
    29a8:	03 c0       	rjmp	.+6      	; 0x29b0 <fromEeprom_toLongString+0x90>
    29aa:	0e 94 3f 16 	call	0x2c7e	; 0x2c7e <USART_Transmit_1>
    29ae:	02 c0       	rjmp	.+4      	; 0x29b4 <fromEeprom_toLongString+0x94>
    29b0:	0e 94 3a 16 	call	0x2c74	; 0x2c74 <USART_Transmit_0>
    29b4:	c4 ff       	sbrs	r28, 4
    29b6:	03 c0       	rjmp	.+6      	; 0x29be <fromEeprom_toLongString+0x9e>
    29b8:	0e 94 3f 16 	call	0x2c7e	; 0x2c7e <USART_Transmit_1>
    29bc:	02 c0       	rjmp	.+4      	; 0x29c2 <fromEeprom_toLongString+0xa2>
    29be:	0e 94 3a 16 	call	0x2c74	; 0x2c74 <USART_Transmit_0>
    29c2:	c5 ff       	sbrs	r28, 5
    29c4:	03 c0       	rjmp	.+6      	; 0x29cc <fromEeprom_toLongString+0xac>
    29c6:	0e 94 3f 16 	call	0x2c7e	; 0x2c7e <USART_Transmit_1>
    29ca:	02 c0       	rjmp	.+4      	; 0x29d0 <fromEeprom_toLongString+0xb0>
    29cc:	0e 94 3a 16 	call	0x2c74	; 0x2c74 <USART_Transmit_0>
    29d0:	c6 ff       	sbrs	r28, 6
    29d2:	03 c0       	rjmp	.+6      	; 0x29da <fromEeprom_toLongString+0xba>
    29d4:	0e 94 3f 16 	call	0x2c7e	; 0x2c7e <USART_Transmit_1>
    29d8:	02 c0       	rjmp	.+4      	; 0x29de <fromEeprom_toLongString+0xbe>
    29da:	0e 94 3a 16 	call	0x2c74	; 0x2c74 <USART_Transmit_0>
    29de:	c7 ff       	sbrs	r28, 7
    29e0:	03 c0       	rjmp	.+6      	; 0x29e8 <fromEeprom_toLongString+0xc8>
    29e2:	0e 94 3f 16 	call	0x2c7e	; 0x2c7e <USART_Transmit_1>
    29e6:	02 c0       	rjmp	.+4      	; 0x29ec <fromEeprom_toLongString+0xcc>
    29e8:	0e 94 3a 16 	call	0x2c74	; 0x2c74 <USART_Transmit_0>
    29ec:	80 91 0a 01 	lds	r24, 0x010A	; 0x80010a <Eeprom_addres_process>
    29f0:	90 91 0b 01 	lds	r25, 0x010B	; 0x80010b <Eeprom_addres_process+0x1>
    29f4:	01 96       	adiw	r24, 0x01	; 1
    29f6:	90 93 0b 01 	sts	0x010B, r25	; 0x80010b <Eeprom_addres_process+0x1>
    29fa:	80 93 0a 01 	sts	0x010A, r24	; 0x80010a <Eeprom_addres_process>
    29fe:	0e 94 6a 00 	call	0xd4	; 0xd4 <EEPROM_read>
    2a02:	c8 2f       	mov	r28, r24
    2a04:	80 ff       	sbrs	r24, 0
    2a06:	03 c0       	rjmp	.+6      	; 0x2a0e <fromEeprom_toLongString+0xee>
    2a08:	0e 94 3f 16 	call	0x2c7e	; 0x2c7e <USART_Transmit_1>
    2a0c:	02 c0       	rjmp	.+4      	; 0x2a12 <fromEeprom_toLongString+0xf2>
    2a0e:	0e 94 3a 16 	call	0x2c74	; 0x2c74 <USART_Transmit_0>
    2a12:	c1 ff       	sbrs	r28, 1
    2a14:	03 c0       	rjmp	.+6      	; 0x2a1c <fromEeprom_toLongString+0xfc>
    2a16:	0e 94 3f 16 	call	0x2c7e	; 0x2c7e <USART_Transmit_1>
    2a1a:	02 c0       	rjmp	.+4      	; 0x2a20 <fromEeprom_toLongString+0x100>
    2a1c:	0e 94 3a 16 	call	0x2c74	; 0x2c74 <USART_Transmit_0>
    2a20:	c2 ff       	sbrs	r28, 2
    2a22:	03 c0       	rjmp	.+6      	; 0x2a2a <fromEeprom_toLongString+0x10a>
    2a24:	0e 94 3f 16 	call	0x2c7e	; 0x2c7e <USART_Transmit_1>
    2a28:	02 c0       	rjmp	.+4      	; 0x2a2e <fromEeprom_toLongString+0x10e>
    2a2a:	0e 94 3a 16 	call	0x2c74	; 0x2c74 <USART_Transmit_0>
    2a2e:	c3 ff       	sbrs	r28, 3
    2a30:	03 c0       	rjmp	.+6      	; 0x2a38 <fromEeprom_toLongString+0x118>
    2a32:	0e 94 3f 16 	call	0x2c7e	; 0x2c7e <USART_Transmit_1>
    2a36:	02 c0       	rjmp	.+4      	; 0x2a3c <fromEeprom_toLongString+0x11c>
    2a38:	0e 94 3a 16 	call	0x2c74	; 0x2c74 <USART_Transmit_0>
    2a3c:	c4 ff       	sbrs	r28, 4
    2a3e:	03 c0       	rjmp	.+6      	; 0x2a46 <fromEeprom_toLongString+0x126>
    2a40:	0e 94 3f 16 	call	0x2c7e	; 0x2c7e <USART_Transmit_1>
    2a44:	02 c0       	rjmp	.+4      	; 0x2a4a <fromEeprom_toLongString+0x12a>
    2a46:	0e 94 3a 16 	call	0x2c74	; 0x2c74 <USART_Transmit_0>
    2a4a:	c5 ff       	sbrs	r28, 5
    2a4c:	03 c0       	rjmp	.+6      	; 0x2a54 <fromEeprom_toLongString+0x134>
    2a4e:	0e 94 3f 16 	call	0x2c7e	; 0x2c7e <USART_Transmit_1>
    2a52:	02 c0       	rjmp	.+4      	; 0x2a58 <fromEeprom_toLongString+0x138>
    2a54:	0e 94 3a 16 	call	0x2c74	; 0x2c74 <USART_Transmit_0>
    2a58:	c6 ff       	sbrs	r28, 6
    2a5a:	03 c0       	rjmp	.+6      	; 0x2a62 <fromEeprom_toLongString+0x142>
    2a5c:	0e 94 3f 16 	call	0x2c7e	; 0x2c7e <USART_Transmit_1>
    2a60:	02 c0       	rjmp	.+4      	; 0x2a66 <fromEeprom_toLongString+0x146>
    2a62:	0e 94 3a 16 	call	0x2c74	; 0x2c74 <USART_Transmit_0>
    2a66:	c7 ff       	sbrs	r28, 7
    2a68:	03 c0       	rjmp	.+6      	; 0x2a70 <fromEeprom_toLongString+0x150>
    2a6a:	0e 94 3f 16 	call	0x2c7e	; 0x2c7e <USART_Transmit_1>
    2a6e:	02 c0       	rjmp	.+4      	; 0x2a74 <fromEeprom_toLongString+0x154>
    2a70:	0e 94 3a 16 	call	0x2c74	; 0x2c74 <USART_Transmit_0>
    2a74:	80 91 0a 01 	lds	r24, 0x010A	; 0x80010a <Eeprom_addres_process>
    2a78:	90 91 0b 01 	lds	r25, 0x010B	; 0x80010b <Eeprom_addres_process+0x1>
    2a7c:	01 96       	adiw	r24, 0x01	; 1
    2a7e:	90 93 0b 01 	sts	0x010B, r25	; 0x80010b <Eeprom_addres_process+0x1>
    2a82:	80 93 0a 01 	sts	0x010A, r24	; 0x80010a <Eeprom_addres_process>
    2a86:	0e 94 6a 00 	call	0xd4	; 0xd4 <EEPROM_read>
    2a8a:	c8 2f       	mov	r28, r24
    2a8c:	80 ff       	sbrs	r24, 0
    2a8e:	03 c0       	rjmp	.+6      	; 0x2a96 <fromEeprom_toLongString+0x176>
    2a90:	0e 94 3f 16 	call	0x2c7e	; 0x2c7e <USART_Transmit_1>
    2a94:	02 c0       	rjmp	.+4      	; 0x2a9a <fromEeprom_toLongString+0x17a>
    2a96:	0e 94 3a 16 	call	0x2c74	; 0x2c74 <USART_Transmit_0>
    2a9a:	0e 94 44 16 	call	0x2c88	; 0x2c88 <USART_Transmit_space>
    2a9e:	c5 ff       	sbrs	r28, 5
    2aa0:	03 c0       	rjmp	.+6      	; 0x2aa8 <fromEeprom_toLongString+0x188>
    2aa2:	0e 94 3f 16 	call	0x2c7e	; 0x2c7e <USART_Transmit_1>
    2aa6:	02 c0       	rjmp	.+4      	; 0x2aac <fromEeprom_toLongString+0x18c>
    2aa8:	0e 94 3a 16 	call	0x2c74	; 0x2c74 <USART_Transmit_0>
    2aac:	c6 ff       	sbrs	r28, 6
    2aae:	03 c0       	rjmp	.+6      	; 0x2ab6 <fromEeprom_toLongString+0x196>
    2ab0:	0e 94 3f 16 	call	0x2c7e	; 0x2c7e <USART_Transmit_1>
    2ab4:	02 c0       	rjmp	.+4      	; 0x2aba <fromEeprom_toLongString+0x19a>
    2ab6:	0e 94 3a 16 	call	0x2c74	; 0x2c74 <USART_Transmit_0>
    2aba:	c7 ff       	sbrs	r28, 7
    2abc:	03 c0       	rjmp	.+6      	; 0x2ac4 <fromEeprom_toLongString+0x1a4>
    2abe:	0e 94 3f 16 	call	0x2c7e	; 0x2c7e <USART_Transmit_1>
    2ac2:	02 c0       	rjmp	.+4      	; 0x2ac8 <fromEeprom_toLongString+0x1a8>
    2ac4:	0e 94 3a 16 	call	0x2c74	; 0x2c74 <USART_Transmit_0>
    2ac8:	80 91 0a 01 	lds	r24, 0x010A	; 0x80010a <Eeprom_addres_process>
    2acc:	90 91 0b 01 	lds	r25, 0x010B	; 0x80010b <Eeprom_addres_process+0x1>
    2ad0:	01 96       	adiw	r24, 0x01	; 1
    2ad2:	90 93 0b 01 	sts	0x010B, r25	; 0x80010b <Eeprom_addres_process+0x1>
    2ad6:	80 93 0a 01 	sts	0x010A, r24	; 0x80010a <Eeprom_addres_process>
    2ada:	0e 94 6a 00 	call	0xd4	; 0xd4 <EEPROM_read>
    2ade:	c8 2f       	mov	r28, r24
    2ae0:	80 ff       	sbrs	r24, 0
    2ae2:	03 c0       	rjmp	.+6      	; 0x2aea <fromEeprom_toLongString+0x1ca>
    2ae4:	0e 94 3f 16 	call	0x2c7e	; 0x2c7e <USART_Transmit_1>
    2ae8:	02 c0       	rjmp	.+4      	; 0x2aee <fromEeprom_toLongString+0x1ce>
    2aea:	0e 94 3a 16 	call	0x2c74	; 0x2c74 <USART_Transmit_0>
    2aee:	c1 ff       	sbrs	r28, 1
    2af0:	03 c0       	rjmp	.+6      	; 0x2af8 <fromEeprom_toLongString+0x1d8>
    2af2:	0e 94 3f 16 	call	0x2c7e	; 0x2c7e <USART_Transmit_1>
    2af6:	02 c0       	rjmp	.+4      	; 0x2afc <fromEeprom_toLongString+0x1dc>
    2af8:	0e 94 3a 16 	call	0x2c74	; 0x2c74 <USART_Transmit_0>
    2afc:	c2 ff       	sbrs	r28, 2
    2afe:	03 c0       	rjmp	.+6      	; 0x2b06 <fromEeprom_toLongString+0x1e6>
    2b00:	0e 94 3f 16 	call	0x2c7e	; 0x2c7e <USART_Transmit_1>
    2b04:	02 c0       	rjmp	.+4      	; 0x2b0a <fromEeprom_toLongString+0x1ea>
    2b06:	0e 94 3a 16 	call	0x2c74	; 0x2c74 <USART_Transmit_0>
    2b0a:	c3 ff       	sbrs	r28, 3
    2b0c:	03 c0       	rjmp	.+6      	; 0x2b14 <fromEeprom_toLongString+0x1f4>
    2b0e:	0e 94 3f 16 	call	0x2c7e	; 0x2c7e <USART_Transmit_1>
    2b12:	02 c0       	rjmp	.+4      	; 0x2b18 <fromEeprom_toLongString+0x1f8>
    2b14:	0e 94 3a 16 	call	0x2c74	; 0x2c74 <USART_Transmit_0>
    2b18:	c4 ff       	sbrs	r28, 4
    2b1a:	03 c0       	rjmp	.+6      	; 0x2b22 <fromEeprom_toLongString+0x202>
    2b1c:	0e 94 3f 16 	call	0x2c7e	; 0x2c7e <USART_Transmit_1>
    2b20:	02 c0       	rjmp	.+4      	; 0x2b26 <fromEeprom_toLongString+0x206>
    2b22:	0e 94 3a 16 	call	0x2c74	; 0x2c74 <USART_Transmit_0>
    2b26:	c5 ff       	sbrs	r28, 5
    2b28:	03 c0       	rjmp	.+6      	; 0x2b30 <fromEeprom_toLongString+0x210>
    2b2a:	0e 94 3f 16 	call	0x2c7e	; 0x2c7e <USART_Transmit_1>
    2b2e:	02 c0       	rjmp	.+4      	; 0x2b34 <fromEeprom_toLongString+0x214>
    2b30:	0e 94 3a 16 	call	0x2c74	; 0x2c74 <USART_Transmit_0>
    2b34:	c6 ff       	sbrs	r28, 6
    2b36:	03 c0       	rjmp	.+6      	; 0x2b3e <fromEeprom_toLongString+0x21e>
    2b38:	0e 94 3f 16 	call	0x2c7e	; 0x2c7e <USART_Transmit_1>
    2b3c:	02 c0       	rjmp	.+4      	; 0x2b42 <fromEeprom_toLongString+0x222>
    2b3e:	0e 94 3a 16 	call	0x2c74	; 0x2c74 <USART_Transmit_0>
    2b42:	c7 ff       	sbrs	r28, 7
    2b44:	03 c0       	rjmp	.+6      	; 0x2b4c <fromEeprom_toLongString+0x22c>
    2b46:	0e 94 3f 16 	call	0x2c7e	; 0x2c7e <USART_Transmit_1>
    2b4a:	02 c0       	rjmp	.+4      	; 0x2b50 <fromEeprom_toLongString+0x230>
    2b4c:	0e 94 3a 16 	call	0x2c74	; 0x2c74 <USART_Transmit_0>
    2b50:	80 91 0a 01 	lds	r24, 0x010A	; 0x80010a <Eeprom_addres_process>
    2b54:	90 91 0b 01 	lds	r25, 0x010B	; 0x80010b <Eeprom_addres_process+0x1>
    2b58:	01 96       	adiw	r24, 0x01	; 1
    2b5a:	90 93 0b 01 	sts	0x010B, r25	; 0x80010b <Eeprom_addres_process+0x1>
    2b5e:	80 93 0a 01 	sts	0x010A, r24	; 0x80010a <Eeprom_addres_process>
    2b62:	0e 94 6a 00 	call	0xd4	; 0xd4 <EEPROM_read>
    2b66:	c8 2f       	mov	r28, r24
    2b68:	87 ff       	sbrs	r24, 7
    2b6a:	03 c0       	rjmp	.+6      	; 0x2b72 <fromEeprom_toLongString+0x252>
    2b6c:	0e 94 3f 16 	call	0x2c7e	; 0x2c7e <USART_Transmit_1>
    2b70:	02 c0       	rjmp	.+4      	; 0x2b76 <fromEeprom_toLongString+0x256>
    2b72:	0e 94 3a 16 	call	0x2c74	; 0x2c74 <USART_Transmit_0>
    2b76:	c6 ff       	sbrs	r28, 6
    2b78:	03 c0       	rjmp	.+6      	; 0x2b80 <fromEeprom_toLongString+0x260>
    2b7a:	0e 94 3f 16 	call	0x2c7e	; 0x2c7e <USART_Transmit_1>
    2b7e:	02 c0       	rjmp	.+4      	; 0x2b84 <fromEeprom_toLongString+0x264>
    2b80:	0e 94 3a 16 	call	0x2c74	; 0x2c74 <USART_Transmit_0>
    2b84:	c5 ff       	sbrs	r28, 5
    2b86:	03 c0       	rjmp	.+6      	; 0x2b8e <fromEeprom_toLongString+0x26e>
    2b88:	0e 94 3f 16 	call	0x2c7e	; 0x2c7e <USART_Transmit_1>
    2b8c:	02 c0       	rjmp	.+4      	; 0x2b92 <fromEeprom_toLongString+0x272>
    2b8e:	0e 94 3a 16 	call	0x2c74	; 0x2c74 <USART_Transmit_0>
    2b92:	c4 ff       	sbrs	r28, 4
    2b94:	03 c0       	rjmp	.+6      	; 0x2b9c <fromEeprom_toLongString+0x27c>
    2b96:	0e 94 3f 16 	call	0x2c7e	; 0x2c7e <USART_Transmit_1>
    2b9a:	02 c0       	rjmp	.+4      	; 0x2ba0 <fromEeprom_toLongString+0x280>
    2b9c:	0e 94 3a 16 	call	0x2c74	; 0x2c74 <USART_Transmit_0>
    2ba0:	c3 ff       	sbrs	r28, 3
    2ba2:	03 c0       	rjmp	.+6      	; 0x2baa <fromEeprom_toLongString+0x28a>
    2ba4:	0e 94 3f 16 	call	0x2c7e	; 0x2c7e <USART_Transmit_1>
    2ba8:	02 c0       	rjmp	.+4      	; 0x2bae <fromEeprom_toLongString+0x28e>
    2baa:	0e 94 3a 16 	call	0x2c74	; 0x2c74 <USART_Transmit_0>
    2bae:	c2 ff       	sbrs	r28, 2
    2bb0:	03 c0       	rjmp	.+6      	; 0x2bb8 <fromEeprom_toLongString+0x298>
    2bb2:	0e 94 3f 16 	call	0x2c7e	; 0x2c7e <USART_Transmit_1>
    2bb6:	02 c0       	rjmp	.+4      	; 0x2bbc <fromEeprom_toLongString+0x29c>
    2bb8:	0e 94 3a 16 	call	0x2c74	; 0x2c74 <USART_Transmit_0>
    2bbc:	c1 ff       	sbrs	r28, 1
    2bbe:	03 c0       	rjmp	.+6      	; 0x2bc6 <fromEeprom_toLongString+0x2a6>
    2bc0:	0e 94 3f 16 	call	0x2c7e	; 0x2c7e <USART_Transmit_1>
    2bc4:	02 c0       	rjmp	.+4      	; 0x2bca <fromEeprom_toLongString+0x2aa>
    2bc6:	0e 94 3a 16 	call	0x2c74	; 0x2c74 <USART_Transmit_0>
    2bca:	c0 ff       	sbrs	r28, 0
    2bcc:	03 c0       	rjmp	.+6      	; 0x2bd4 <fromEeprom_toLongString+0x2b4>
    2bce:	0e 94 3f 16 	call	0x2c7e	; 0x2c7e <USART_Transmit_1>
    2bd2:	02 c0       	rjmp	.+4      	; 0x2bd8 <fromEeprom_toLongString+0x2b8>
    2bd4:	0e 94 3a 16 	call	0x2c74	; 0x2c74 <USART_Transmit_0>
    2bd8:	80 91 0a 01 	lds	r24, 0x010A	; 0x80010a <Eeprom_addres_process>
    2bdc:	90 91 0b 01 	lds	r25, 0x010B	; 0x80010b <Eeprom_addres_process+0x1>
    2be0:	01 96       	adiw	r24, 0x01	; 1
    2be2:	90 93 0b 01 	sts	0x010B, r25	; 0x80010b <Eeprom_addres_process+0x1>
    2be6:	80 93 0a 01 	sts	0x010A, r24	; 0x80010a <Eeprom_addres_process>
    2bea:	d1 50       	subi	r29, 0x01	; 1
    2bec:	09 f0       	breq	.+2      	; 0x2bf0 <fromEeprom_toLongString+0x2d0>
    2bee:	a3 ce       	rjmp	.-698    	; 0x2936 <fromEeprom_toLongString+0x16>
    2bf0:	5d 9b       	sbis	0x0b, 5	; 11
    2bf2:	fe cf       	rjmp	.-4      	; 0x2bf0 <fromEeprom_toLongString+0x2d0>
    2bf4:	8a e0       	ldi	r24, 0x0A	; 10
    2bf6:	8c b9       	out	0x0c, r24	; 12
    2bf8:	80 91 65 00 	lds	r24, 0x0065	; 0x800065 <__TEXT_REGION_LENGTH__+0x7e0065>
    2bfc:	8b 7f       	andi	r24, 0xFB	; 251
    2bfe:	80 93 65 00 	sts	0x0065, r24	; 0x800065 <__TEXT_REGION_LENGTH__+0x7e0065>
    2c02:	df 91       	pop	r29
    2c04:	cf 91       	pop	r28
    2c06:	08 95       	ret

00002c08 <Timer_1_int_LONG>:
    2c08:	84 e0       	ldi	r24, 0x04	; 4
    2c0a:	86 bf       	out	0x36, r24	; 54
    2c0c:	8e b5       	in	r24, 0x2e	; 46
    2c0e:	85 60       	ori	r24, 0x05	; 5
    2c10:	8e bd       	out	0x2e, r24	; 46
    2c12:	87 b7       	in	r24, 0x37	; 55
    2c14:	84 60       	ori	r24, 0x04	; 4
    2c16:	87 bf       	out	0x37, r24	; 55
    2c18:	1d bc       	out	0x2d, r1	; 45
    2c1a:	1c bc       	out	0x2c, r1	; 44
    2c1c:	08 95       	ret

00002c1e <Timer_1_int_SHORT>:
    2c1e:	84 e0       	ldi	r24, 0x04	; 4
    2c20:	86 bf       	out	0x36, r24	; 54
    2c22:	8e b5       	in	r24, 0x2e	; 46
    2c24:	84 60       	ori	r24, 0x04	; 4
    2c26:	8e bd       	out	0x2e, r24	; 46
    2c28:	87 b7       	in	r24, 0x37	; 55
    2c2a:	84 60       	ori	r24, 0x04	; 4
    2c2c:	87 bf       	out	0x37, r24	; 55
    2c2e:	1d bc       	out	0x2d, r1	; 45
    2c30:	1c bc       	out	0x2c, r1	; 44
    2c32:	08 95       	ret

00002c34 <Timer_1_int_DISABLE>:
    2c34:	84 e0       	ldi	r24, 0x04	; 4
    2c36:	86 bf       	out	0x36, r24	; 54
    2c38:	1e bc       	out	0x2e, r1	; 46
    2c3a:	17 be       	out	0x37, r1	; 55
    2c3c:	08 95       	ret

00002c3e <USART_Init>:
    2c3e:	90 93 90 00 	sts	0x0090, r25	; 0x800090 <__TEXT_REGION_LENGTH__+0x7e0090>
    2c42:	89 b9       	out	0x09, r24	; 9
    2c44:	88 e9       	ldi	r24, 0x98	; 152
    2c46:	8a b9       	out	0x0a, r24	; 10
    2c48:	86 e0       	ldi	r24, 0x06	; 6
    2c4a:	80 93 95 00 	sts	0x0095, r24	; 0x800095 <__TEXT_REGION_LENGTH__+0x7e0095>
    2c4e:	08 95       	ret

00002c50 <USART_Receive>:
    2c50:	5f 9b       	sbis	0x0b, 7	; 11
    2c52:	fe cf       	rjmp	.-4      	; 0x2c50 <USART_Receive>
    2c54:	8c b1       	in	r24, 0x0c	; 12
    2c56:	08 95       	ret

00002c58 <USART_Flush>:
    2c58:	cf 93       	push	r28
    2c5a:	df 93       	push	r29
    2c5c:	1f 92       	push	r1
    2c5e:	cd b7       	in	r28, 0x3d	; 61
    2c60:	de b7       	in	r29, 0x3e	; 62
    2c62:	5f 9b       	sbis	0x0b, 7	; 11
    2c64:	03 c0       	rjmp	.+6      	; 0x2c6c <USART_Flush+0x14>
    2c66:	8c b1       	in	r24, 0x0c	; 12
    2c68:	89 83       	std	Y+1, r24	; 0x01
    2c6a:	fb cf       	rjmp	.-10     	; 0x2c62 <USART_Flush+0xa>
    2c6c:	0f 90       	pop	r0
    2c6e:	df 91       	pop	r29
    2c70:	cf 91       	pop	r28
    2c72:	08 95       	ret

00002c74 <USART_Transmit_0>:
    2c74:	5d 9b       	sbis	0x0b, 5	; 11
    2c76:	fe cf       	rjmp	.-4      	; 0x2c74 <USART_Transmit_0>
    2c78:	80 e3       	ldi	r24, 0x30	; 48
    2c7a:	8c b9       	out	0x0c, r24	; 12
    2c7c:	08 95       	ret

00002c7e <USART_Transmit_1>:
    2c7e:	5d 9b       	sbis	0x0b, 5	; 11
    2c80:	fe cf       	rjmp	.-4      	; 0x2c7e <USART_Transmit_1>
    2c82:	81 e3       	ldi	r24, 0x31	; 49
    2c84:	8c b9       	out	0x0c, r24	; 12
    2c86:	08 95       	ret

00002c88 <USART_Transmit_space>:
    2c88:	5d 9b       	sbis	0x0b, 5	; 11
    2c8a:	fe cf       	rjmp	.-4      	; 0x2c88 <USART_Transmit_space>
    2c8c:	80 e2       	ldi	r24, 0x20	; 32
    2c8e:	8c b9       	out	0x0c, r24	; 12
    2c90:	08 95       	ret

00002c92 <Processing_RecivedByte>:
    2c92:	cf 93       	push	r28
    2c94:	81 30       	cpi	r24, 0x01	; 1
    2c96:	39 f4       	brne	.+14     	; 0x2ca6 <Processing_RecivedByte+0x14>
    2c98:	80 93 0e 01 	sts	0x010E, r24	; 0x80010e <Mode>
    2c9c:	0e 94 a1 06 	call	0xd42	; 0xd42 <Led_Indicator_OFF>
    2ca0:	cf 91       	pop	r28
    2ca2:	0c 94 d3 08 	jmp	0x11a6	; 0x11a6 <Scan_USART_Transmit>
    2ca6:	81 11       	cpse	r24, r1
    2ca8:	06 c0       	rjmp	.+12     	; 0x2cb6 <Processing_RecivedByte+0x24>
    2caa:	81 e0       	ldi	r24, 0x01	; 1
    2cac:	80 93 0e 01 	sts	0x010E, r24	; 0x80010e <Mode>
    2cb0:	cf 91       	pop	r28
    2cb2:	0c 94 a1 06 	jmp	0xd42	; 0xd42 <Led_Indicator_OFF>
    2cb6:	c8 2f       	mov	r28, r24
    2cb8:	cf 70       	andi	r28, 0x0F	; 15
    2cba:	82 95       	swap	r24
    2cbc:	8f 70       	andi	r24, 0x0F	; 15
    2cbe:	0e 94 bc 06 	call	0xd78	; 0xd78 <LED_INDICATOR_CELL_ADDRES>
    2cc2:	c2 30       	cpi	r28, 0x02	; 2
    2cc4:	19 f4       	brne	.+6      	; 0x2ccc <Processing_RecivedByte+0x3a>
    2cc6:	cf 91       	pop	r28
    2cc8:	0c 94 90 14 	jmp	0x2920	; 0x2920 <fromEeprom_toLongString>
    2ccc:	c4 30       	cpi	r28, 0x04	; 4
    2cce:	d1 f4       	brne	.+52     	; 0x2d04 <Processing_RecivedByte+0x72>
    2cd0:	0e 94 0f 16 	call	0x2c1e	; 0x2c1e <Timer_1_int_SHORT>
    2cd4:	c0 93 0e 01 	sts	0x010E, r28	; 0x80010e <Mode>
    2cd8:	0e 94 46 05 	call	0xa8c	; 0xa8c <Buttons_ints_DISABLE>
    2cdc:	80 91 0c 01 	lds	r24, 0x010C	; 0x80010c <cell_addres>
    2ce0:	90 91 0d 01 	lds	r25, 0x010D	; 0x80010d <cell_addres+0x1>
    2ce4:	90 93 10 01 	sts	0x0110, r25	; 0x800110 <ToEepromFromPC_cell_addres+0x1>
    2ce8:	80 93 0f 01 	sts	0x010F, r24	; 0x80010f <ToEepromFromPC_cell_addres>
    2cec:	5d 9b       	sbis	0x0b, 5	; 11
    2cee:	fe cf       	rjmp	.-4      	; 0x2cec <Processing_RecivedByte+0x5a>
    2cf0:	82 e7       	ldi	r24, 0x72	; 114
    2cf2:	8c b9       	out	0x0c, r24	; 12
    2cf4:	5d 9b       	sbis	0x0b, 5	; 11
    2cf6:	fe cf       	rjmp	.-4      	; 0x2cf4 <Processing_RecivedByte+0x62>
    2cf8:	82 e7       	ldi	r24, 0x72	; 114
    2cfa:	8c b9       	out	0x0c, r24	; 12
    2cfc:	5d 9b       	sbis	0x0b, 5	; 11
    2cfe:	fe cf       	rjmp	.-4      	; 0x2cfc <Processing_RecivedByte+0x6a>
    2d00:	8a e0       	ldi	r24, 0x0A	; 10
    2d02:	8c b9       	out	0x0c, r24	; 12
    2d04:	cf 91       	pop	r28
    2d06:	08 95       	ret

00002d08 <UART_RX_int_DISABLE>:
    2d08:	57 98       	cbi	0x0a, 7	; 10
    2d0a:	08 95       	ret

00002d0c <UART_RX_int_ENABLE>:
    2d0c:	0e 94 2c 16 	call	0x2c58	; 0x2c58 <USART_Flush>
    2d10:	57 9a       	sbi	0x0a, 7	; 10
    2d12:	08 95       	ret

00002d14 <__tablejump2__>:
    2d14:	ee 0f       	add	r30, r30
    2d16:	ff 1f       	adc	r31, r31
    2d18:	05 90       	lpm	r0, Z+
    2d1a:	f4 91       	lpm	r31, Z
    2d1c:	e0 2d       	mov	r30, r0
    2d1e:	09 94       	ijmp

00002d20 <_exit>:
    2d20:	f8 94       	cli

00002d22 <__stop_program>:
    2d22:	ff cf       	rjmp	.-2      	; 0x2d22 <__stop_program>
