
KabelTest_Board_3.elf:     file format elf32-avr

Sections:
Idx Name          Size      VMA       LMA       File off  Algn
  0 .data         00000000  00800100  00800100  00002e34  2**0
                  CONTENTS, ALLOC, LOAD, DATA
  1 .text         00002dc0  00000000  00000000  00000074  2**1
                  CONTENTS, ALLOC, LOAD, READONLY, CODE
  2 .bss          00000011  00800100  00800100  00002e34  2**0
                  ALLOC
  3 .comment      00000030  00000000  00000000  00002e34  2**0
                  CONTENTS, READONLY
  4 .note.gnu.avr.deviceinfo 0000003c  00000000  00000000  00002e64  2**2
                  CONTENTS, READONLY
  5 .debug_aranges 00000208  00000000  00000000  00002ea0  2**0
                  CONTENTS, READONLY, DEBUGGING
  6 .debug_info   000040c9  00000000  00000000  000030a8  2**0
                  CONTENTS, READONLY, DEBUGGING
  7 .debug_abbrev 00000f07  00000000  00000000  00007171  2**0
                  CONTENTS, READONLY, DEBUGGING
  8 .debug_line   00004ac8  00000000  00000000  00008078  2**0
                  CONTENTS, READONLY, DEBUGGING
  9 .debug_frame  000004a4  00000000  00000000  0000cb40  2**2
                  CONTENTS, READONLY, DEBUGGING
 10 .debug_str    000007c1  00000000  00000000  0000cfe4  2**0
                  CONTENTS, READONLY, DEBUGGING
 11 .debug_loc    00001e93  00000000  00000000  0000d7a5  2**0
                  CONTENTS, READONLY, DEBUGGING
 12 .debug_ranges 000001e8  00000000  00000000  0000f638  2**0
                  CONTENTS, READONLY, DEBUGGING

Disassembly of section .text:

00000000 <__vectors>:
       0:	0c 94 4e 00 	jmp	0x9c	; 0x9c <__ctors_end>
       4:	0c 94 60 00 	jmp	0xc0	; 0xc0 <__bad_interrupt>
       8:	0c 94 79 05 	jmp	0xaf2	; 0xaf2 <__vector_2>
       c:	0c 94 d2 05 	jmp	0xba4	; 0xba4 <__vector_3>
      10:	0c 94 60 00 	jmp	0xc0	; 0xc0 <__bad_interrupt>
      14:	0c 94 60 00 	jmp	0xc0	; 0xc0 <__bad_interrupt>
      18:	0c 94 60 00 	jmp	0xc0	; 0xc0 <__bad_interrupt>
      1c:	0c 94 60 00 	jmp	0xc0	; 0xc0 <__bad_interrupt>
      20:	0c 94 60 00 	jmp	0xc0	; 0xc0 <__bad_interrupt>
      24:	0c 94 60 00 	jmp	0xc0	; 0xc0 <__bad_interrupt>
      28:	0c 94 60 00 	jmp	0xc0	; 0xc0 <__bad_interrupt>
      2c:	0c 94 60 00 	jmp	0xc0	; 0xc0 <__bad_interrupt>
      30:	0c 94 60 00 	jmp	0xc0	; 0xc0 <__bad_interrupt>
      34:	0c 94 60 00 	jmp	0xc0	; 0xc0 <__bad_interrupt>
      38:	0c 94 30 06 	jmp	0xc60	; 0xc60 <__vector_14>
      3c:	0c 94 60 00 	jmp	0xc0	; 0xc0 <__bad_interrupt>
      40:	0c 94 60 00 	jmp	0xc0	; 0xc0 <__bad_interrupt>
      44:	0c 94 60 00 	jmp	0xc0	; 0xc0 <__bad_interrupt>
      48:	0c 94 ff 05 	jmp	0xbfe	; 0xbfe <__vector_18>
      4c:	0c 94 60 00 	jmp	0xc0	; 0xc0 <__bad_interrupt>
      50:	0c 94 60 00 	jmp	0xc0	; 0xc0 <__bad_interrupt>
      54:	0c 94 60 00 	jmp	0xc0	; 0xc0 <__bad_interrupt>
      58:	0c 94 60 00 	jmp	0xc0	; 0xc0 <__bad_interrupt>
      5c:	0c 94 60 00 	jmp	0xc0	; 0xc0 <__bad_interrupt>
      60:	0c 94 60 00 	jmp	0xc0	; 0xc0 <__bad_interrupt>
      64:	0c 94 60 00 	jmp	0xc0	; 0xc0 <__bad_interrupt>
      68:	0c 94 60 00 	jmp	0xc0	; 0xc0 <__bad_interrupt>
      6c:	0c 94 60 00 	jmp	0xc0	; 0xc0 <__bad_interrupt>
      70:	0c 94 60 00 	jmp	0xc0	; 0xc0 <__bad_interrupt>
      74:	0c 94 60 00 	jmp	0xc0	; 0xc0 <__bad_interrupt>
      78:	0c 94 60 00 	jmp	0xc0	; 0xc0 <__bad_interrupt>
      7c:	0c 94 60 00 	jmp	0xc0	; 0xc0 <__bad_interrupt>
      80:	0c 94 60 00 	jmp	0xc0	; 0xc0 <__bad_interrupt>
      84:	0c 94 60 00 	jmp	0xc0	; 0xc0 <__bad_interrupt>
      88:	0c 94 60 00 	jmp	0xc0	; 0xc0 <__bad_interrupt>
      8c:	39 07       	cpc	r19, r25
      8e:	3f 07       	cpc	r19, r31
      90:	46 07       	cpc	r20, r22
      92:	4d 07       	cpc	r20, r29
      94:	54 07       	cpc	r21, r20
      96:	5b 07       	cpc	r21, r27
      98:	62 07       	cpc	r22, r18
      9a:	69 07       	cpc	r22, r25

0000009c <__ctors_end>:
      9c:	11 24       	eor	r1, r1
      9e:	1f be       	out	0x3f, r1	; 63
      a0:	cf ef       	ldi	r28, 0xFF	; 255
      a2:	d0 e1       	ldi	r29, 0x10	; 16
      a4:	de bf       	out	0x3e, r29	; 62
      a6:	cd bf       	out	0x3d, r28	; 61

000000a8 <__do_clear_bss>:
      a8:	21 e0       	ldi	r18, 0x01	; 1
      aa:	a0 e0       	ldi	r26, 0x00	; 0
      ac:	b1 e0       	ldi	r27, 0x01	; 1
      ae:	01 c0       	rjmp	.+2      	; 0xb2 <.do_clear_bss_start>

000000b0 <.do_clear_bss_loop>:
      b0:	1d 92       	st	X+, r1

000000b2 <.do_clear_bss_start>:
      b2:	a1 31       	cpi	r26, 0x11	; 17
      b4:	b2 07       	cpc	r27, r18
      b6:	e1 f7       	brne	.-8      	; 0xb0 <.do_clear_bss_loop>
      b8:	0e 94 6b 06 	call	0xcd6	; 0xcd6 <main>
      bc:	0c 94 de 16 	jmp	0x2dbc	; 0x2dbc <_exit>

000000c0 <__bad_interrupt>:
      c0:	0c 94 00 00 	jmp	0	; 0x0 <__vectors>

000000c4 <EEPROM_write>:
static uint16_t Eeprom_addres;

void EEPROM_write(uint16_t uiAddress, uint8_t ucData)
{
																						 /* Wait for completion of previous write */
	while(EECR & (1<<EEWE))
      c4:	e1 99       	sbic	0x1c, 1	; 28
      c6:	fe cf       	rjmp	.-4      	; 0xc4 <EEPROM_write>
	;
																						 /* Set up address and data registers */
	EEAR = uiAddress;
      c8:	9f bb       	out	0x1f, r25	; 31
      ca:	8e bb       	out	0x1e, r24	; 30
	EEDR = ucData;
      cc:	6d bb       	out	0x1d, r22	; 29
																						 /* Write logical one to EEMWE */
	EECR |= (1<<EEMWE);
      ce:	e2 9a       	sbi	0x1c, 2	; 28
																						 /* Start eeprom write by setting EEWE */
	EECR |= (1<<EEWE);
      d0:	e1 9a       	sbi	0x1c, 1	; 28
      d2:	08 95       	ret

000000d4 <EEPROM_read>:
}

uint8_t EEPROM_read(uint16_t uiAddress)
{
																						 /* Wait for completion of previous write */
	while(EECR & (1<<EEWE))
      d4:	e1 99       	sbic	0x1c, 1	; 28
      d6:	fe cf       	rjmp	.-4      	; 0xd4 <EEPROM_read>
	;
																						 /* Set up address register */
	EEAR = uiAddress;
      d8:	9f bb       	out	0x1f, r25	; 31
      da:	8e bb       	out	0x1e, r24	; 30
																						 /* Start eeprom read by writing EERE */
	EECR |= (1<<EERE);
      dc:	e0 9a       	sbi	0x1c, 0	; 28
																						 /* Return data from data register */
	return EEDR;
      de:	8d b3       	in	r24, 0x1d	; 29
}
      e0:	08 95       	ret

000000e2 <corret_bytes>:

void corret_bytes(void)
{																						 // Masked not using pins
	F = PINF;
      e2:	20 b1       	in	r18, 0x00	; 0
      e4:	20 93 07 01 	sts	0x0107, r18	; 0x800107 <F>
	E = PINE;
      e8:	91 b1       	in	r25, 0x01	; 1
      ea:	90 93 06 01 	sts	0x0106, r25	; 0x800106 <E>
	B = PINB;
      ee:	86 b3       	in	r24, 0x16	; 22
      f0:	80 93 05 01 	sts	0x0105, r24	; 0x800105 <B>
	D = PIND;
      f4:	80 b3       	in	r24, 0x10	; 16
      f6:	80 93 04 01 	sts	0x0104, r24	; 0x800104 <D>
	C = PINC;
      fa:	33 b3       	in	r19, 0x13	; 19
      fc:	30 93 03 01 	sts	0x0103, r19	; 0x800103 <C>
	A = PINA;
     100:	39 b3       	in	r19, 0x19	; 25
     102:	30 93 02 01 	sts	0x0102, r19	; 0x800102 <A>
	
	F |= (1 << 7)|(1 << 6)|(1 << 5)|(1 << 4);
     106:	20 6f       	ori	r18, 0xF0	; 240
     108:	20 93 07 01 	sts	0x0107, r18	; 0x800107 <F>
	E |= (1 << 0)|(1 << 1);
     10c:	93 60       	ori	r25, 0x03	; 3
     10e:	90 93 06 01 	sts	0x0106, r25	; 0x800106 <E>
	D |= (1 << 1)|(1 << 2)|(1 << 3)|(1 << 4);
     112:	8e 61       	ori	r24, 0x1E	; 30
     114:	80 93 04 01 	sts	0x0104, r24	; 0x800104 <D>
     118:	08 95       	ret

0000011a <to_EEPROM>:
}

void to_EEPROM(void)
{
     11a:	cf 93       	push	r28
     11c:	df 93       	push	r29
	EEPROM_write(Eeprom_addres, F);
     11e:	c0 91 00 01 	lds	r28, 0x0100	; 0x800100 <_edata>
     122:	d0 91 01 01 	lds	r29, 0x0101	; 0x800101 <_edata+0x1>
     126:	60 91 07 01 	lds	r22, 0x0107	; 0x800107 <F>
     12a:	ce 01       	movw	r24, r28
     12c:	0e 94 62 00 	call	0xc4	; 0xc4 <EEPROM_write>
	Eeprom_addres++;
	EEPROM_write(Eeprom_addres, E);
     130:	60 91 06 01 	lds	r22, 0x0106	; 0x800106 <E>
     134:	ce 01       	movw	r24, r28
     136:	01 96       	adiw	r24, 0x01	; 1
     138:	0e 94 62 00 	call	0xc4	; 0xc4 <EEPROM_write>
	Eeprom_addres++;
	EEPROM_write(Eeprom_addres, B);
     13c:	60 91 05 01 	lds	r22, 0x0105	; 0x800105 <B>
     140:	ce 01       	movw	r24, r28
     142:	02 96       	adiw	r24, 0x02	; 2
     144:	0e 94 62 00 	call	0xc4	; 0xc4 <EEPROM_write>
	Eeprom_addres++;
	EEPROM_write(Eeprom_addres, D);
     148:	60 91 04 01 	lds	r22, 0x0104	; 0x800104 <D>
     14c:	ce 01       	movw	r24, r28
     14e:	03 96       	adiw	r24, 0x03	; 3
     150:	0e 94 62 00 	call	0xc4	; 0xc4 <EEPROM_write>
	Eeprom_addres++;
	EEPROM_write(Eeprom_addres, C);
     154:	60 91 03 01 	lds	r22, 0x0103	; 0x800103 <C>
     158:	ce 01       	movw	r24, r28
     15a:	04 96       	adiw	r24, 0x04	; 4
     15c:	0e 94 62 00 	call	0xc4	; 0xc4 <EEPROM_write>
	Eeprom_addres++;
	EEPROM_write(Eeprom_addres, A);
     160:	60 91 02 01 	lds	r22, 0x0102	; 0x800102 <A>
     164:	ce 01       	movw	r24, r28
     166:	05 96       	adiw	r24, 0x05	; 5
     168:	0e 94 62 00 	call	0xc4	; 0xc4 <EEPROM_write>
	Eeprom_addres++;
     16c:	26 96       	adiw	r28, 0x06	; 6
     16e:	d0 93 01 01 	sts	0x0101, r29	; 0x800101 <_edata+0x1>
     172:	c0 93 00 01 	sts	0x0100, r28	; 0x800100 <_edata>
}
     176:	df 91       	pop	r29
     178:	cf 91       	pop	r28
     17a:	08 95       	ret

0000017c <from_EEPROM>:
void from_EEPROM(void)
{
	while(1)
	{
		
		F_compare = EEPROM_read(Eeprom_addres);
     17c:	80 91 00 01 	lds	r24, 0x0100	; 0x800100 <_edata>
     180:	90 91 01 01 	lds	r25, 0x0101	; 0x800101 <_edata+0x1>
     184:	0e 94 6a 00 	call	0xd4	; 0xd4 <EEPROM_read>
		if (F == F_compare)
     188:	90 91 07 01 	lds	r25, 0x0107	; 0x800107 <F>
     18c:	89 13       	cpse	r24, r25
     18e:	15 c0       	rjmp	.+42     	; 0x1ba <from_EEPROM+0x3e>
		{
			GREEN_LED_ON;										// Green LED
     190:	e5 e6       	ldi	r30, 0x65	; 101
     192:	f0 e0       	ldi	r31, 0x00	; 0
     194:	80 81       	ld	r24, Z
     196:	80 61       	ori	r24, 0x10	; 16
     198:	80 83       	st	Z, r24
			Eeprom_addres++;
     19a:	80 91 00 01 	lds	r24, 0x0100	; 0x800100 <_edata>
     19e:	90 91 01 01 	lds	r25, 0x0101	; 0x800101 <_edata+0x1>
     1a2:	01 96       	adiw	r24, 0x01	; 1
     1a4:	90 93 01 01 	sts	0x0101, r25	; 0x800101 <_edata+0x1>
     1a8:	80 93 00 01 	sts	0x0100, r24	; 0x800100 <_edata>
			RED_LED_ON;										// Red LED)
			GREEN_LED_OFF;											// Off Green Led
			break;
		}
		
		E_compare = EEPROM_read(Eeprom_addres);
     1ac:	0e 94 6a 00 	call	0xd4	; 0xd4 <EEPROM_read>
		if (E == E_compare)
     1b0:	90 91 06 01 	lds	r25, 0x0106	; 0x800106 <E>
     1b4:	89 13       	cpse	r24, r25
     1b6:	1f c0       	rjmp	.+62     	; 0x1f6 <from_EEPROM+0x7a>
     1b8:	09 c0       	rjmp	.+18     	; 0x1cc <from_EEPROM+0x50>
			Eeprom_addres++;
			
		}
		else
		{
			RED_LED_ON;										// Red LED)
     1ba:	e5 e6       	ldi	r30, 0x65	; 101
     1bc:	f0 e0       	ldi	r31, 0x00	; 0
     1be:	80 81       	ld	r24, Z
     1c0:	88 60       	ori	r24, 0x08	; 8
     1c2:	80 83       	st	Z, r24
			GREEN_LED_OFF;											// Off Green Led
     1c4:	80 81       	ld	r24, Z
     1c6:	8f 7e       	andi	r24, 0xEF	; 239
     1c8:	80 83       	st	Z, r24
			break;
     1ca:	08 95       	ret
		}
		
		E_compare = EEPROM_read(Eeprom_addres);
		if (E == E_compare)
		{
			GREEN_LED_ON;										// Green LED
     1cc:	e5 e6       	ldi	r30, 0x65	; 101
     1ce:	f0 e0       	ldi	r31, 0x00	; 0
     1d0:	80 81       	ld	r24, Z
     1d2:	80 61       	ori	r24, 0x10	; 16
     1d4:	80 83       	st	Z, r24
			Eeprom_addres++;
     1d6:	80 91 00 01 	lds	r24, 0x0100	; 0x800100 <_edata>
     1da:	90 91 01 01 	lds	r25, 0x0101	; 0x800101 <_edata+0x1>
     1de:	01 96       	adiw	r24, 0x01	; 1
     1e0:	90 93 01 01 	sts	0x0101, r25	; 0x800101 <_edata+0x1>
     1e4:	80 93 00 01 	sts	0x0100, r24	; 0x800100 <_edata>
			RED_LED_ON;										// Red LED)
			GREEN_LED_OFF;											// Off Green Led
			break;
		}
		
		B_compare = EEPROM_read(Eeprom_addres);
     1e8:	0e 94 6a 00 	call	0xd4	; 0xd4 <EEPROM_read>
		if (B == B_compare)
     1ec:	90 91 05 01 	lds	r25, 0x0105	; 0x800105 <B>
     1f0:	89 13       	cpse	r24, r25
     1f2:	1f c0       	rjmp	.+62     	; 0x232 <from_EEPROM+0xb6>
     1f4:	09 c0       	rjmp	.+18     	; 0x208 <from_EEPROM+0x8c>
			Eeprom_addres++;
			
		}
		else
		{
			RED_LED_ON;										// Red LED)
     1f6:	e5 e6       	ldi	r30, 0x65	; 101
     1f8:	f0 e0       	ldi	r31, 0x00	; 0
     1fa:	80 81       	ld	r24, Z
     1fc:	88 60       	ori	r24, 0x08	; 8
     1fe:	80 83       	st	Z, r24
			GREEN_LED_OFF;											// Off Green Led
     200:	80 81       	ld	r24, Z
     202:	8f 7e       	andi	r24, 0xEF	; 239
     204:	80 83       	st	Z, r24
			break;
     206:	08 95       	ret
		}
		
		B_compare = EEPROM_read(Eeprom_addres);
		if (B == B_compare)
		{
			GREEN_LED_ON;										// Green LED
     208:	e5 e6       	ldi	r30, 0x65	; 101
     20a:	f0 e0       	ldi	r31, 0x00	; 0
     20c:	80 81       	ld	r24, Z
     20e:	80 61       	ori	r24, 0x10	; 16
     210:	80 83       	st	Z, r24
			Eeprom_addres++;
     212:	80 91 00 01 	lds	r24, 0x0100	; 0x800100 <_edata>
     216:	90 91 01 01 	lds	r25, 0x0101	; 0x800101 <_edata+0x1>
     21a:	01 96       	adiw	r24, 0x01	; 1
     21c:	90 93 01 01 	sts	0x0101, r25	; 0x800101 <_edata+0x1>
     220:	80 93 00 01 	sts	0x0100, r24	; 0x800100 <_edata>
			RED_LED_ON;										// Red LED)
			GREEN_LED_OFF;											// Off Green Led
			break;
		}
		
		D_compare = EEPROM_read(Eeprom_addres);
     224:	0e 94 6a 00 	call	0xd4	; 0xd4 <EEPROM_read>
		if (D == D_compare)
     228:	90 91 04 01 	lds	r25, 0x0104	; 0x800104 <D>
     22c:	89 13       	cpse	r24, r25
     22e:	1f c0       	rjmp	.+62     	; 0x26e <from_EEPROM+0xf2>
     230:	09 c0       	rjmp	.+18     	; 0x244 <from_EEPROM+0xc8>
			
		}
		
		else
		{
			RED_LED_ON;										// Red LED)
     232:	e5 e6       	ldi	r30, 0x65	; 101
     234:	f0 e0       	ldi	r31, 0x00	; 0
     236:	80 81       	ld	r24, Z
     238:	88 60       	ori	r24, 0x08	; 8
     23a:	80 83       	st	Z, r24
			GREEN_LED_OFF;											// Off Green Led
     23c:	80 81       	ld	r24, Z
     23e:	8f 7e       	andi	r24, 0xEF	; 239
     240:	80 83       	st	Z, r24
			break;
     242:	08 95       	ret
		}
		
		D_compare = EEPROM_read(Eeprom_addres);
		if (D == D_compare)
		{
			GREEN_LED_ON;										// Green LED
     244:	e5 e6       	ldi	r30, 0x65	; 101
     246:	f0 e0       	ldi	r31, 0x00	; 0
     248:	80 81       	ld	r24, Z
     24a:	80 61       	ori	r24, 0x10	; 16
     24c:	80 83       	st	Z, r24
			Eeprom_addres++;
     24e:	80 91 00 01 	lds	r24, 0x0100	; 0x800100 <_edata>
     252:	90 91 01 01 	lds	r25, 0x0101	; 0x800101 <_edata+0x1>
     256:	01 96       	adiw	r24, 0x01	; 1
     258:	90 93 01 01 	sts	0x0101, r25	; 0x800101 <_edata+0x1>
     25c:	80 93 00 01 	sts	0x0100, r24	; 0x800100 <_edata>
			RED_LED_ON;										// Red LED)
			GREEN_LED_OFF;											// Off Green Led
			break;
		}
		
		C_compare = EEPROM_read(Eeprom_addres);
     260:	0e 94 6a 00 	call	0xd4	; 0xd4 <EEPROM_read>
		if (C == C_compare)
     264:	90 91 03 01 	lds	r25, 0x0103	; 0x800103 <C>
     268:	89 13       	cpse	r24, r25
     26a:	1f c0       	rjmp	.+62     	; 0x2aa <from_EEPROM+0x12e>
     26c:	09 c0       	rjmp	.+18     	; 0x280 <from_EEPROM+0x104>
			
		}
		
		else
		{
			RED_LED_ON;										// Red LED)
     26e:	e5 e6       	ldi	r30, 0x65	; 101
     270:	f0 e0       	ldi	r31, 0x00	; 0
     272:	80 81       	ld	r24, Z
     274:	88 60       	ori	r24, 0x08	; 8
     276:	80 83       	st	Z, r24
			GREEN_LED_OFF;											// Off Green Led
     278:	80 81       	ld	r24, Z
     27a:	8f 7e       	andi	r24, 0xEF	; 239
     27c:	80 83       	st	Z, r24
			break;
     27e:	08 95       	ret
		}
		
		C_compare = EEPROM_read(Eeprom_addres);
		if (C == C_compare)
		{
			GREEN_LED_ON;										// Green LED
     280:	e5 e6       	ldi	r30, 0x65	; 101
     282:	f0 e0       	ldi	r31, 0x00	; 0
     284:	80 81       	ld	r24, Z
     286:	80 61       	ori	r24, 0x10	; 16
     288:	80 83       	st	Z, r24
			Eeprom_addres++;
     28a:	80 91 00 01 	lds	r24, 0x0100	; 0x800100 <_edata>
     28e:	90 91 01 01 	lds	r25, 0x0101	; 0x800101 <_edata+0x1>
     292:	01 96       	adiw	r24, 0x01	; 1
     294:	90 93 01 01 	sts	0x0101, r25	; 0x800101 <_edata+0x1>
     298:	80 93 00 01 	sts	0x0100, r24	; 0x800100 <_edata>
			RED_LED_ON;										// Red LED)
			GREEN_LED_OFF;											// Off Green Led
			break;
		}
		
		A_compare = EEPROM_read(Eeprom_addres);
     29c:	0e 94 6a 00 	call	0xd4	; 0xd4 <EEPROM_read>
		if (A == A_compare)
     2a0:	90 91 02 01 	lds	r25, 0x0102	; 0x800102 <A>
     2a4:	89 13       	cpse	r24, r25
     2a6:	19 c0       	rjmp	.+50     	; 0x2da <from_EEPROM+0x15e>
     2a8:	09 c0       	rjmp	.+18     	; 0x2bc <from_EEPROM+0x140>
			
		}
		
		else
		{
			RED_LED_ON;										// Red LED)
     2aa:	e5 e6       	ldi	r30, 0x65	; 101
     2ac:	f0 e0       	ldi	r31, 0x00	; 0
     2ae:	80 81       	ld	r24, Z
     2b0:	88 60       	ori	r24, 0x08	; 8
     2b2:	80 83       	st	Z, r24
			GREEN_LED_OFF;											// Off Green Led
     2b4:	80 81       	ld	r24, Z
     2b6:	8f 7e       	andi	r24, 0xEF	; 239
     2b8:	80 83       	st	Z, r24
			break;
     2ba:	08 95       	ret
		}
		
		A_compare = EEPROM_read(Eeprom_addres);
		if (A == A_compare)
		{
			GREEN_LED_ON;										// Green LED
     2bc:	e5 e6       	ldi	r30, 0x65	; 101
     2be:	f0 e0       	ldi	r31, 0x00	; 0
     2c0:	80 81       	ld	r24, Z
     2c2:	80 61       	ori	r24, 0x10	; 16
     2c4:	80 83       	st	Z, r24
			Eeprom_addres++;
     2c6:	80 91 00 01 	lds	r24, 0x0100	; 0x800100 <_edata>
     2ca:	90 91 01 01 	lds	r25, 0x0101	; 0x800101 <_edata+0x1>
     2ce:	01 96       	adiw	r24, 0x01	; 1
     2d0:	90 93 01 01 	sts	0x0101, r25	; 0x800101 <_edata+0x1>
     2d4:	80 93 00 01 	sts	0x0100, r24	; 0x800100 <_edata>
		{
			RED_LED_ON;										// Red LED)
			GREEN_LED_OFF;											// Off Green Led
			break;
		}
		break;
     2d8:	08 95       	ret
			Eeprom_addres++;
			
		}
		else
		{
			RED_LED_ON;										// Red LED)
     2da:	e5 e6       	ldi	r30, 0x65	; 101
     2dc:	f0 e0       	ldi	r31, 0x00	; 0
     2de:	80 81       	ld	r24, Z
     2e0:	88 60       	ori	r24, 0x08	; 8
     2e2:	80 83       	st	Z, r24
			GREEN_LED_OFF;											// Off Green Led
     2e4:	80 81       	ld	r24, Z
     2e6:	8f 7e       	andi	r24, 0xEF	; 239
     2e8:	80 83       	st	Z, r24
     2ea:	08 95       	ret

000002ec <Scan_and_write_read_EEPROM>:
	Eeprom_addres++;
}

 void Scan_and_write_read_EEPROM(void)
{		
		CLEAR_TCNT1;			
     2ec:	1d bc       	out	0x2d, r1	; 45
     2ee:	1c bc       	out	0x2c, r1	; 44
		Eeprom_addres = cell_addres;			
     2f0:	80 91 0c 01 	lds	r24, 0x010C	; 0x80010c <cell_addres>
     2f4:	90 91 0d 01 	lds	r25, 0x010D	; 0x80010d <cell_addres+0x1>
     2f8:	90 93 01 01 	sts	0x0101, r25	; 0x800101 <_edata+0x1>
     2fc:	80 93 00 01 	sts	0x0100, r24	; 0x800100 <_edata>
	//*********************************************************************************************** Выставляем 1 на пин 3 порта F
		DDRF |=	1 << 3;
     300:	e1 e6       	ldi	r30, 0x61	; 97
     302:	f0 e0       	ldi	r31, 0x00	; 0
     304:	80 81       	ld	r24, Z
     306:	88 60       	ori	r24, 0x08	; 8
     308:	80 83       	st	Z, r24
		PORTF |= 1 << 3;
     30a:	e2 e6       	ldi	r30, 0x62	; 98
     30c:	f0 e0       	ldi	r31, 0x00	; 0
     30e:	80 81       	ld	r24, Z
     310:	88 60       	ori	r24, 0x08	; 8
     312:	80 83       	st	Z, r24
		Toogle_blue_LED();
     314:	0e 94 c0 06 	call	0xd80	; 0xd80 <Toogle_blue_LED>
	#else
		//round up by default
		__ticks_dc = (uint32_t)(ceil(fabs(__tmp)));
	#endif

	__builtin_avr_delay_cycles(__ticks_dc);
     318:	8f e3       	ldi	r24, 0x3F	; 63
     31a:	9c e9       	ldi	r25, 0x9C	; 156
     31c:	01 97       	sbiw	r24, 0x01	; 1
     31e:	f1 f7       	brne	.-4      	; 0x31c <Scan_and_write_read_EEPROM+0x30>
     320:	00 c0       	rjmp	.+0      	; 0x322 <Scan_and_write_read_EEPROM+0x36>
     322:	00 00       	nop
		_delay_ms(RC_DELAY);
		corret_bytes();
     324:	0e 94 71 00 	call	0xe2	; 0xe2 <corret_bytes>
	
		if (Mode == EEPROM_READ_MODE)	from_EEPROM();
     328:	80 91 0e 01 	lds	r24, 0x010E	; 0x80010e <Mode>
     32c:	82 30       	cpi	r24, 0x02	; 2
     32e:	19 f4       	brne	.+6      	; 0x336 <Scan_and_write_read_EEPROM+0x4a>
     330:	0e 94 be 00 	call	0x17c	; 0x17c <from_EEPROM>
     334:	04 c0       	rjmp	.+8      	; 0x33e <Scan_and_write_read_EEPROM+0x52>
		else if(Mode == EEPROM_WRITE_MODE)	to_EEPROM();
     336:	83 30       	cpi	r24, 0x03	; 3
     338:	11 f4       	brne	.+4      	; 0x33e <Scan_and_write_read_EEPROM+0x52>
     33a:	0e 94 8d 00 	call	0x11a	; 0x11a <to_EEPROM>
		
		DDRF &= ~(1 << 3);			// Убираем 1 с пина
     33e:	a1 e6       	ldi	r26, 0x61	; 97
     340:	b0 e0       	ldi	r27, 0x00	; 0
     342:	8c 91       	ld	r24, X
     344:	87 7f       	andi	r24, 0xF7	; 247
     346:	8c 93       	st	X, r24
		PORTF &= ~(1 << 3);
     348:	e2 e6       	ldi	r30, 0x62	; 98
     34a:	f0 e0       	ldi	r31, 0x00	; 0
     34c:	80 81       	ld	r24, Z
     34e:	87 7f       	andi	r24, 0xF7	; 247
     350:	80 83       	st	Z, r24
	//*********************************************************************************************** Выставляем 1 на пин 2 порта F	
		DDRF |=	1 << 2;
     352:	8c 91       	ld	r24, X
     354:	84 60       	ori	r24, 0x04	; 4
     356:	8c 93       	st	X, r24
		PORTF |= 1 << 2;
     358:	80 81       	ld	r24, Z
     35a:	84 60       	ori	r24, 0x04	; 4
     35c:	80 83       	st	Z, r24
     35e:	8f e3       	ldi	r24, 0x3F	; 63
     360:	9c e9       	ldi	r25, 0x9C	; 156
     362:	01 97       	sbiw	r24, 0x01	; 1
     364:	f1 f7       	brne	.-4      	; 0x362 <Scan_and_write_read_EEPROM+0x76>
     366:	00 c0       	rjmp	.+0      	; 0x368 <Scan_and_write_read_EEPROM+0x7c>
     368:	00 00       	nop
		_delay_ms(RC_DELAY);
		corret_bytes();
     36a:	0e 94 71 00 	call	0xe2	; 0xe2 <corret_bytes>
	
		if (Mode == EEPROM_READ_MODE)	from_EEPROM();
     36e:	80 91 0e 01 	lds	r24, 0x010E	; 0x80010e <Mode>
     372:	82 30       	cpi	r24, 0x02	; 2
     374:	19 f4       	brne	.+6      	; 0x37c <Scan_and_write_read_EEPROM+0x90>
     376:	0e 94 be 00 	call	0x17c	; 0x17c <from_EEPROM>
     37a:	04 c0       	rjmp	.+8      	; 0x384 <Scan_and_write_read_EEPROM+0x98>
		else if(Mode == EEPROM_WRITE_MODE)	to_EEPROM();
     37c:	83 30       	cpi	r24, 0x03	; 3
     37e:	11 f4       	brne	.+4      	; 0x384 <Scan_and_write_read_EEPROM+0x98>
     380:	0e 94 8d 00 	call	0x11a	; 0x11a <to_EEPROM>
	
		DDRF &= ~(1 << 2);			// Убираем 1 с пина
     384:	a1 e6       	ldi	r26, 0x61	; 97
     386:	b0 e0       	ldi	r27, 0x00	; 0
     388:	8c 91       	ld	r24, X
     38a:	8b 7f       	andi	r24, 0xFB	; 251
     38c:	8c 93       	st	X, r24
		PORTF &= ~(1 << 2);
     38e:	e2 e6       	ldi	r30, 0x62	; 98
     390:	f0 e0       	ldi	r31, 0x00	; 0
     392:	80 81       	ld	r24, Z
     394:	8b 7f       	andi	r24, 0xFB	; 251
     396:	80 83       	st	Z, r24
	//*********************************************************************************************** Выставляем 1 на пин 1 порта F	
		DDRF |=	1 << 1;
     398:	8c 91       	ld	r24, X
     39a:	82 60       	ori	r24, 0x02	; 2
     39c:	8c 93       	st	X, r24
		PORTF |= 1 << 1;
     39e:	80 81       	ld	r24, Z
     3a0:	82 60       	ori	r24, 0x02	; 2
     3a2:	80 83       	st	Z, r24
     3a4:	8f e3       	ldi	r24, 0x3F	; 63
     3a6:	9c e9       	ldi	r25, 0x9C	; 156
     3a8:	01 97       	sbiw	r24, 0x01	; 1
     3aa:	f1 f7       	brne	.-4      	; 0x3a8 <Scan_and_write_read_EEPROM+0xbc>
     3ac:	00 c0       	rjmp	.+0      	; 0x3ae <Scan_and_write_read_EEPROM+0xc2>
     3ae:	00 00       	nop
		_delay_ms(RC_DELAY);
		corret_bytes();
     3b0:	0e 94 71 00 	call	0xe2	; 0xe2 <corret_bytes>
	
		if (Mode == EEPROM_READ_MODE)	from_EEPROM();
     3b4:	80 91 0e 01 	lds	r24, 0x010E	; 0x80010e <Mode>
     3b8:	82 30       	cpi	r24, 0x02	; 2
     3ba:	19 f4       	brne	.+6      	; 0x3c2 <Scan_and_write_read_EEPROM+0xd6>
     3bc:	0e 94 be 00 	call	0x17c	; 0x17c <from_EEPROM>
     3c0:	04 c0       	rjmp	.+8      	; 0x3ca <Scan_and_write_read_EEPROM+0xde>
		else if(Mode == EEPROM_WRITE_MODE)	to_EEPROM();
     3c2:	83 30       	cpi	r24, 0x03	; 3
     3c4:	11 f4       	brne	.+4      	; 0x3ca <Scan_and_write_read_EEPROM+0xde>
     3c6:	0e 94 8d 00 	call	0x11a	; 0x11a <to_EEPROM>
	
		DDRF &= ~(1 << 1);			// Убираем 1 с пина
     3ca:	a1 e6       	ldi	r26, 0x61	; 97
     3cc:	b0 e0       	ldi	r27, 0x00	; 0
     3ce:	8c 91       	ld	r24, X
     3d0:	8d 7f       	andi	r24, 0xFD	; 253
     3d2:	8c 93       	st	X, r24
		PORTF &= ~(1 << 1);
     3d4:	e2 e6       	ldi	r30, 0x62	; 98
     3d6:	f0 e0       	ldi	r31, 0x00	; 0
     3d8:	80 81       	ld	r24, Z
     3da:	8d 7f       	andi	r24, 0xFD	; 253
     3dc:	80 83       	st	Z, r24
	
	//*********************************************************************************************** Выставляем 1 на пин 0 порта F	
		DDRF |=	1 << 0;
     3de:	8c 91       	ld	r24, X
     3e0:	81 60       	ori	r24, 0x01	; 1
     3e2:	8c 93       	st	X, r24
		PORTF |= 1 << 0;
     3e4:	80 81       	ld	r24, Z
     3e6:	81 60       	ori	r24, 0x01	; 1
     3e8:	80 83       	st	Z, r24
     3ea:	8f e3       	ldi	r24, 0x3F	; 63
     3ec:	9c e9       	ldi	r25, 0x9C	; 156
     3ee:	01 97       	sbiw	r24, 0x01	; 1
     3f0:	f1 f7       	brne	.-4      	; 0x3ee <Scan_and_write_read_EEPROM+0x102>
     3f2:	00 c0       	rjmp	.+0      	; 0x3f4 <Scan_and_write_read_EEPROM+0x108>
     3f4:	00 00       	nop
		_delay_ms(RC_DELAY);
		corret_bytes();
     3f6:	0e 94 71 00 	call	0xe2	; 0xe2 <corret_bytes>
	
		if (Mode == EEPROM_READ_MODE)	from_EEPROM();
     3fa:	80 91 0e 01 	lds	r24, 0x010E	; 0x80010e <Mode>
     3fe:	82 30       	cpi	r24, 0x02	; 2
     400:	19 f4       	brne	.+6      	; 0x408 <__LOCK_REGION_LENGTH__+0x8>
     402:	0e 94 be 00 	call	0x17c	; 0x17c <from_EEPROM>
     406:	04 c0       	rjmp	.+8      	; 0x410 <__LOCK_REGION_LENGTH__+0x10>
		else if(Mode == EEPROM_WRITE_MODE)	to_EEPROM();
     408:	83 30       	cpi	r24, 0x03	; 3
     40a:	11 f4       	brne	.+4      	; 0x410 <__LOCK_REGION_LENGTH__+0x10>
     40c:	0e 94 8d 00 	call	0x11a	; 0x11a <to_EEPROM>
	
		DDRF &= ~(1 << 0);			// Убираем 1 с пина
     410:	e1 e6       	ldi	r30, 0x61	; 97
     412:	f0 e0       	ldi	r31, 0x00	; 0
     414:	80 81       	ld	r24, Z
     416:	8e 7f       	andi	r24, 0xFE	; 254
     418:	80 83       	st	Z, r24
		PORTF &= ~(1 << 0);
     41a:	e2 e6       	ldi	r30, 0x62	; 98
     41c:	f0 e0       	ldi	r31, 0x00	; 0
     41e:	80 81       	ld	r24, Z
     420:	8e 7f       	andi	r24, 0xFE	; 254
     422:	80 83       	st	Z, r24
	
	//*********************************************************************************************** Выставляем 1 на пин 2 порта E	
		DDRE |=	1 << 2;
     424:	12 9a       	sbi	0x02, 2	; 2
		PORTE |= 1 << 2;
     426:	1a 9a       	sbi	0x03, 2	; 3
		Toogle_blue_LED();
     428:	0e 94 c0 06 	call	0xd80	; 0xd80 <Toogle_blue_LED>
     42c:	8f e3       	ldi	r24, 0x3F	; 63
     42e:	9c e9       	ldi	r25, 0x9C	; 156
     430:	01 97       	sbiw	r24, 0x01	; 1
     432:	f1 f7       	brne	.-4      	; 0x430 <__LOCK_REGION_LENGTH__+0x30>
     434:	00 c0       	rjmp	.+0      	; 0x436 <__LOCK_REGION_LENGTH__+0x36>
     436:	00 00       	nop
		_delay_ms(RC_DELAY);
		corret_bytes();
     438:	0e 94 71 00 	call	0xe2	; 0xe2 <corret_bytes>
	
		if (Mode == EEPROM_READ_MODE)	from_EEPROM();
     43c:	80 91 0e 01 	lds	r24, 0x010E	; 0x80010e <Mode>
     440:	82 30       	cpi	r24, 0x02	; 2
     442:	19 f4       	brne	.+6      	; 0x44a <__LOCK_REGION_LENGTH__+0x4a>
     444:	0e 94 be 00 	call	0x17c	; 0x17c <from_EEPROM>
     448:	04 c0       	rjmp	.+8      	; 0x452 <__LOCK_REGION_LENGTH__+0x52>
		else if(Mode == EEPROM_WRITE_MODE)	to_EEPROM();
     44a:	83 30       	cpi	r24, 0x03	; 3
     44c:	11 f4       	brne	.+4      	; 0x452 <__LOCK_REGION_LENGTH__+0x52>
     44e:	0e 94 8d 00 	call	0x11a	; 0x11a <to_EEPROM>
	
		DDRE &= ~(1 << 2);			// Убираем 1 с пина
     452:	12 98       	cbi	0x02, 2	; 2
		PORTE &= ~(1 << 2);
     454:	1a 98       	cbi	0x03, 2	; 3
	//*********************************************************************************************** Выставляем 1 на пин 3 порта E	
	
		DDRE |=	1 << 3;
     456:	13 9a       	sbi	0x02, 3	; 2
		PORTE |= 1 << 3;
     458:	1b 9a       	sbi	0x03, 3	; 3
     45a:	8f e3       	ldi	r24, 0x3F	; 63
     45c:	9c e9       	ldi	r25, 0x9C	; 156
     45e:	01 97       	sbiw	r24, 0x01	; 1
     460:	f1 f7       	brne	.-4      	; 0x45e <__LOCK_REGION_LENGTH__+0x5e>
     462:	00 c0       	rjmp	.+0      	; 0x464 <__LOCK_REGION_LENGTH__+0x64>
     464:	00 00       	nop
		_delay_ms(RC_DELAY);
		corret_bytes();
     466:	0e 94 71 00 	call	0xe2	; 0xe2 <corret_bytes>
	
		if (Mode == EEPROM_READ_MODE)	from_EEPROM();
     46a:	80 91 0e 01 	lds	r24, 0x010E	; 0x80010e <Mode>
     46e:	82 30       	cpi	r24, 0x02	; 2
     470:	19 f4       	brne	.+6      	; 0x478 <__LOCK_REGION_LENGTH__+0x78>
     472:	0e 94 be 00 	call	0x17c	; 0x17c <from_EEPROM>
     476:	04 c0       	rjmp	.+8      	; 0x480 <__LOCK_REGION_LENGTH__+0x80>
		else if(Mode == EEPROM_WRITE_MODE)	to_EEPROM();
     478:	83 30       	cpi	r24, 0x03	; 3
     47a:	11 f4       	brne	.+4      	; 0x480 <__LOCK_REGION_LENGTH__+0x80>
     47c:	0e 94 8d 00 	call	0x11a	; 0x11a <to_EEPROM>
	
		DDRE &= ~(1 << 3);			// Убираем 1 с пина
     480:	13 98       	cbi	0x02, 3	; 2
		PORTE &= ~(1 << 3);
     482:	1b 98       	cbi	0x03, 3	; 3
	//*********************************************************************************************** Выставляем 1 на пин 4 порта E	
	
		DDRE |=	1 << 4;
     484:	14 9a       	sbi	0x02, 4	; 2
		PORTE |= 1 << 4;
     486:	1c 9a       	sbi	0x03, 4	; 3
     488:	8f e3       	ldi	r24, 0x3F	; 63
     48a:	9c e9       	ldi	r25, 0x9C	; 156
     48c:	01 97       	sbiw	r24, 0x01	; 1
     48e:	f1 f7       	brne	.-4      	; 0x48c <__LOCK_REGION_LENGTH__+0x8c>
     490:	00 c0       	rjmp	.+0      	; 0x492 <__LOCK_REGION_LENGTH__+0x92>
     492:	00 00       	nop
		_delay_ms(RC_DELAY);
		corret_bytes();
     494:	0e 94 71 00 	call	0xe2	; 0xe2 <corret_bytes>
	
		if (Mode == EEPROM_READ_MODE)	from_EEPROM();
     498:	80 91 0e 01 	lds	r24, 0x010E	; 0x80010e <Mode>
     49c:	82 30       	cpi	r24, 0x02	; 2
     49e:	19 f4       	brne	.+6      	; 0x4a6 <__LOCK_REGION_LENGTH__+0xa6>
     4a0:	0e 94 be 00 	call	0x17c	; 0x17c <from_EEPROM>
     4a4:	04 c0       	rjmp	.+8      	; 0x4ae <__LOCK_REGION_LENGTH__+0xae>
		else if(Mode == EEPROM_WRITE_MODE)	to_EEPROM();
     4a6:	83 30       	cpi	r24, 0x03	; 3
     4a8:	11 f4       	brne	.+4      	; 0x4ae <__LOCK_REGION_LENGTH__+0xae>
     4aa:	0e 94 8d 00 	call	0x11a	; 0x11a <to_EEPROM>
	
		DDRE &= ~(1 << 4);			// Убираем 1 с пина
     4ae:	14 98       	cbi	0x02, 4	; 2
		PORTE &= ~(1 << 4);
     4b0:	1c 98       	cbi	0x03, 4	; 3
	//*********************************************************************************************** Выставляем 1 на пин 5 порта E	
	
		DDRE |=	1 << 5;
     4b2:	15 9a       	sbi	0x02, 5	; 2
		PORTE |= 1 << 5;
     4b4:	1d 9a       	sbi	0x03, 5	; 3
     4b6:	8f e3       	ldi	r24, 0x3F	; 63
     4b8:	9c e9       	ldi	r25, 0x9C	; 156
     4ba:	01 97       	sbiw	r24, 0x01	; 1
     4bc:	f1 f7       	brne	.-4      	; 0x4ba <__LOCK_REGION_LENGTH__+0xba>
     4be:	00 c0       	rjmp	.+0      	; 0x4c0 <__LOCK_REGION_LENGTH__+0xc0>
     4c0:	00 00       	nop
		_delay_ms(RC_DELAY);
		corret_bytes();
     4c2:	0e 94 71 00 	call	0xe2	; 0xe2 <corret_bytes>
	
		if (Mode == EEPROM_READ_MODE)	from_EEPROM();
     4c6:	80 91 0e 01 	lds	r24, 0x010E	; 0x80010e <Mode>
     4ca:	82 30       	cpi	r24, 0x02	; 2
     4cc:	19 f4       	brne	.+6      	; 0x4d4 <__LOCK_REGION_LENGTH__+0xd4>
     4ce:	0e 94 be 00 	call	0x17c	; 0x17c <from_EEPROM>
     4d2:	04 c0       	rjmp	.+8      	; 0x4dc <__LOCK_REGION_LENGTH__+0xdc>
		else if(Mode == EEPROM_WRITE_MODE)	to_EEPROM();
     4d4:	83 30       	cpi	r24, 0x03	; 3
     4d6:	11 f4       	brne	.+4      	; 0x4dc <__LOCK_REGION_LENGTH__+0xdc>
     4d8:	0e 94 8d 00 	call	0x11a	; 0x11a <to_EEPROM>
	
		DDRE &= ~(1 << 5);			// Убираем 1 с пина
     4dc:	15 98       	cbi	0x02, 5	; 2
		PORTE &= ~(1 << 5);
     4de:	1d 98       	cbi	0x03, 5	; 3
	//*********************************************************************************************** Выставляем 1 на пин 6 порта E	
	
		DDRE |=	1 << 6;
     4e0:	16 9a       	sbi	0x02, 6	; 2
		PORTE |= 1 << 6;
     4e2:	1e 9a       	sbi	0x03, 6	; 3
     4e4:	8f e3       	ldi	r24, 0x3F	; 63
     4e6:	9c e9       	ldi	r25, 0x9C	; 156
     4e8:	01 97       	sbiw	r24, 0x01	; 1
     4ea:	f1 f7       	brne	.-4      	; 0x4e8 <__LOCK_REGION_LENGTH__+0xe8>
     4ec:	00 c0       	rjmp	.+0      	; 0x4ee <__LOCK_REGION_LENGTH__+0xee>
     4ee:	00 00       	nop
		_delay_ms(RC_DELAY);
		corret_bytes();
     4f0:	0e 94 71 00 	call	0xe2	; 0xe2 <corret_bytes>
	
		if (Mode == EEPROM_READ_MODE)	from_EEPROM();
     4f4:	80 91 0e 01 	lds	r24, 0x010E	; 0x80010e <Mode>
     4f8:	82 30       	cpi	r24, 0x02	; 2
     4fa:	19 f4       	brne	.+6      	; 0x502 <__LOCK_REGION_LENGTH__+0x102>
     4fc:	0e 94 be 00 	call	0x17c	; 0x17c <from_EEPROM>
     500:	04 c0       	rjmp	.+8      	; 0x50a <__LOCK_REGION_LENGTH__+0x10a>
		else if(Mode == EEPROM_WRITE_MODE)	to_EEPROM();
     502:	83 30       	cpi	r24, 0x03	; 3
     504:	11 f4       	brne	.+4      	; 0x50a <__LOCK_REGION_LENGTH__+0x10a>
     506:	0e 94 8d 00 	call	0x11a	; 0x11a <to_EEPROM>
	
		DDRE &= ~(1 << 6);			// Убираем 1 с пина
     50a:	16 98       	cbi	0x02, 6	; 2
		PORTE &= ~(1 << 6);
     50c:	1e 98       	cbi	0x03, 6	; 3
		//*********************************************************************************************** Выставляем 1 на пин 7 порта E	
	
		DDRE |=	1 << 7;
     50e:	17 9a       	sbi	0x02, 7	; 2
		PORTE |= 1 << 7;
     510:	1f 9a       	sbi	0x03, 7	; 3
     512:	8f e3       	ldi	r24, 0x3F	; 63
     514:	9c e9       	ldi	r25, 0x9C	; 156
     516:	01 97       	sbiw	r24, 0x01	; 1
     518:	f1 f7       	brne	.-4      	; 0x516 <__LOCK_REGION_LENGTH__+0x116>
     51a:	00 c0       	rjmp	.+0      	; 0x51c <__LOCK_REGION_LENGTH__+0x11c>
     51c:	00 00       	nop
		_delay_ms(RC_DELAY);
		corret_bytes();
     51e:	0e 94 71 00 	call	0xe2	; 0xe2 <corret_bytes>
	
		if (Mode == EEPROM_READ_MODE)	from_EEPROM();
     522:	80 91 0e 01 	lds	r24, 0x010E	; 0x80010e <Mode>
     526:	82 30       	cpi	r24, 0x02	; 2
     528:	19 f4       	brne	.+6      	; 0x530 <__LOCK_REGION_LENGTH__+0x130>
     52a:	0e 94 be 00 	call	0x17c	; 0x17c <from_EEPROM>
     52e:	04 c0       	rjmp	.+8      	; 0x538 <__LOCK_REGION_LENGTH__+0x138>
		else if(Mode == EEPROM_WRITE_MODE)	to_EEPROM();
     530:	83 30       	cpi	r24, 0x03	; 3
     532:	11 f4       	brne	.+4      	; 0x538 <__LOCK_REGION_LENGTH__+0x138>
     534:	0e 94 8d 00 	call	0x11a	; 0x11a <to_EEPROM>
	
		DDRE &= ~(1 << 7);			// Убираем 1 с пина
     538:	17 98       	cbi	0x02, 7	; 2
		PORTE &= ~(1 << 7);
     53a:	1f 98       	cbi	0x03, 7	; 3
	//*********************************************************************************************** Выставляем 1 на пин 0 порта B	
		DDRB |=	1 << 0;
     53c:	b8 9a       	sbi	0x17, 0	; 23
		PORTB |= 1 << 0;
     53e:	c0 9a       	sbi	0x18, 0	; 24
		Toogle_blue_LED();
     540:	0e 94 c0 06 	call	0xd80	; 0xd80 <Toogle_blue_LED>
     544:	8f e3       	ldi	r24, 0x3F	; 63
     546:	9c e9       	ldi	r25, 0x9C	; 156
     548:	01 97       	sbiw	r24, 0x01	; 1
     54a:	f1 f7       	brne	.-4      	; 0x548 <__LOCK_REGION_LENGTH__+0x148>
     54c:	00 c0       	rjmp	.+0      	; 0x54e <__LOCK_REGION_LENGTH__+0x14e>
     54e:	00 00       	nop
		_delay_ms(RC_DELAY);
		corret_bytes();
     550:	0e 94 71 00 	call	0xe2	; 0xe2 <corret_bytes>
	
		if (Mode == EEPROM_READ_MODE)	from_EEPROM();
     554:	80 91 0e 01 	lds	r24, 0x010E	; 0x80010e <Mode>
     558:	82 30       	cpi	r24, 0x02	; 2
     55a:	19 f4       	brne	.+6      	; 0x562 <__LOCK_REGION_LENGTH__+0x162>
     55c:	0e 94 be 00 	call	0x17c	; 0x17c <from_EEPROM>
     560:	04 c0       	rjmp	.+8      	; 0x56a <__LOCK_REGION_LENGTH__+0x16a>
		else if(Mode == EEPROM_WRITE_MODE)	to_EEPROM();
     562:	83 30       	cpi	r24, 0x03	; 3
     564:	11 f4       	brne	.+4      	; 0x56a <__LOCK_REGION_LENGTH__+0x16a>
     566:	0e 94 8d 00 	call	0x11a	; 0x11a <to_EEPROM>
	
		DDRB &= ~(1 << 0);			// Убираем 1 с пина
     56a:	b8 98       	cbi	0x17, 0	; 23
		PORTB &= ~(1 << 0);
     56c:	c0 98       	cbi	0x18, 0	; 24
	//*********************************************************************************************** Выставляем 1 на пин 1 порта B	
		DDRB |=	1 << 1;
     56e:	b9 9a       	sbi	0x17, 1	; 23
		PORTB |= 1 << 1;
     570:	c1 9a       	sbi	0x18, 1	; 24
     572:	8f e3       	ldi	r24, 0x3F	; 63
     574:	9c e9       	ldi	r25, 0x9C	; 156
     576:	01 97       	sbiw	r24, 0x01	; 1
     578:	f1 f7       	brne	.-4      	; 0x576 <__LOCK_REGION_LENGTH__+0x176>
     57a:	00 c0       	rjmp	.+0      	; 0x57c <__LOCK_REGION_LENGTH__+0x17c>
     57c:	00 00       	nop
		_delay_ms(RC_DELAY);
		corret_bytes();
     57e:	0e 94 71 00 	call	0xe2	; 0xe2 <corret_bytes>
	
		if (Mode == EEPROM_READ_MODE)	from_EEPROM();
     582:	80 91 0e 01 	lds	r24, 0x010E	; 0x80010e <Mode>
     586:	82 30       	cpi	r24, 0x02	; 2
     588:	19 f4       	brne	.+6      	; 0x590 <__LOCK_REGION_LENGTH__+0x190>
     58a:	0e 94 be 00 	call	0x17c	; 0x17c <from_EEPROM>
     58e:	04 c0       	rjmp	.+8      	; 0x598 <__LOCK_REGION_LENGTH__+0x198>
		else if(Mode == EEPROM_WRITE_MODE)	to_EEPROM();
     590:	83 30       	cpi	r24, 0x03	; 3
     592:	11 f4       	brne	.+4      	; 0x598 <__LOCK_REGION_LENGTH__+0x198>
     594:	0e 94 8d 00 	call	0x11a	; 0x11a <to_EEPROM>
	
		DDRB &= ~(1 << 1);			// Убираем 1 с пина
     598:	b9 98       	cbi	0x17, 1	; 23
		PORTB &= ~(1 << 1);	
     59a:	c1 98       	cbi	0x18, 1	; 24
	//*********************************************************************************************** Выставляем 1 на пин 2 порта B	
		DDRB |=	1 << 2;
     59c:	ba 9a       	sbi	0x17, 2	; 23
		PORTB |= 1 << 2;
     59e:	c2 9a       	sbi	0x18, 2	; 24
     5a0:	8f e3       	ldi	r24, 0x3F	; 63
     5a2:	9c e9       	ldi	r25, 0x9C	; 156
     5a4:	01 97       	sbiw	r24, 0x01	; 1
     5a6:	f1 f7       	brne	.-4      	; 0x5a4 <__LOCK_REGION_LENGTH__+0x1a4>
     5a8:	00 c0       	rjmp	.+0      	; 0x5aa <__LOCK_REGION_LENGTH__+0x1aa>
     5aa:	00 00       	nop
		_delay_ms(RC_DELAY);
		corret_bytes();
     5ac:	0e 94 71 00 	call	0xe2	; 0xe2 <corret_bytes>
	
		if (Mode == EEPROM_READ_MODE)	from_EEPROM();
     5b0:	80 91 0e 01 	lds	r24, 0x010E	; 0x80010e <Mode>
     5b4:	82 30       	cpi	r24, 0x02	; 2
     5b6:	19 f4       	brne	.+6      	; 0x5be <__LOCK_REGION_LENGTH__+0x1be>
     5b8:	0e 94 be 00 	call	0x17c	; 0x17c <from_EEPROM>
     5bc:	04 c0       	rjmp	.+8      	; 0x5c6 <__LOCK_REGION_LENGTH__+0x1c6>
		else if(Mode == EEPROM_WRITE_MODE)	to_EEPROM();
     5be:	83 30       	cpi	r24, 0x03	; 3
     5c0:	11 f4       	brne	.+4      	; 0x5c6 <__LOCK_REGION_LENGTH__+0x1c6>
     5c2:	0e 94 8d 00 	call	0x11a	; 0x11a <to_EEPROM>
	
		DDRB &= ~(1 << 2);			// Убираем 1 с пина
     5c6:	ba 98       	cbi	0x17, 2	; 23
		PORTB &= ~(1 << 2);
     5c8:	c2 98       	cbi	0x18, 2	; 24
	//*********************************************************************************************** Выставляем 1 на пин 3 порта B	
	
		DDRB |=	1 << 3;
     5ca:	bb 9a       	sbi	0x17, 3	; 23
		PORTB |= 1 << 3;
     5cc:	c3 9a       	sbi	0x18, 3	; 24
     5ce:	8f e3       	ldi	r24, 0x3F	; 63
     5d0:	9c e9       	ldi	r25, 0x9C	; 156
     5d2:	01 97       	sbiw	r24, 0x01	; 1
     5d4:	f1 f7       	brne	.-4      	; 0x5d2 <__LOCK_REGION_LENGTH__+0x1d2>
     5d6:	00 c0       	rjmp	.+0      	; 0x5d8 <__LOCK_REGION_LENGTH__+0x1d8>
     5d8:	00 00       	nop
		_delay_ms(RC_DELAY);
		corret_bytes();
     5da:	0e 94 71 00 	call	0xe2	; 0xe2 <corret_bytes>
	
		if (Mode == EEPROM_READ_MODE)	from_EEPROM();
     5de:	80 91 0e 01 	lds	r24, 0x010E	; 0x80010e <Mode>
     5e2:	82 30       	cpi	r24, 0x02	; 2
     5e4:	19 f4       	brne	.+6      	; 0x5ec <__LOCK_REGION_LENGTH__+0x1ec>
     5e6:	0e 94 be 00 	call	0x17c	; 0x17c <from_EEPROM>
     5ea:	04 c0       	rjmp	.+8      	; 0x5f4 <__LOCK_REGION_LENGTH__+0x1f4>
		else if(Mode == EEPROM_WRITE_MODE)	to_EEPROM();
     5ec:	83 30       	cpi	r24, 0x03	; 3
     5ee:	11 f4       	brne	.+4      	; 0x5f4 <__LOCK_REGION_LENGTH__+0x1f4>
     5f0:	0e 94 8d 00 	call	0x11a	; 0x11a <to_EEPROM>
	
		DDRB &= ~(1 << 3);			// Убираем 1 с пина
     5f4:	bb 98       	cbi	0x17, 3	; 23
		PORTB &= ~(1 << 3);
     5f6:	c3 98       	cbi	0x18, 3	; 24
	//*********************************************************************************************** Выставляем 1 на пин 4 порта B	
	
		DDRB |=	1 << 4;
     5f8:	bc 9a       	sbi	0x17, 4	; 23
		PORTB |= 1 << 4;
     5fa:	c4 9a       	sbi	0x18, 4	; 24
     5fc:	8f e3       	ldi	r24, 0x3F	; 63
     5fe:	9c e9       	ldi	r25, 0x9C	; 156
     600:	01 97       	sbiw	r24, 0x01	; 1
     602:	f1 f7       	brne	.-4      	; 0x600 <__LOCK_REGION_LENGTH__+0x200>
     604:	00 c0       	rjmp	.+0      	; 0x606 <__LOCK_REGION_LENGTH__+0x206>
     606:	00 00       	nop
		_delay_ms(RC_DELAY);
		corret_bytes();
     608:	0e 94 71 00 	call	0xe2	; 0xe2 <corret_bytes>
	
		if (Mode == EEPROM_READ_MODE)	from_EEPROM();
     60c:	80 91 0e 01 	lds	r24, 0x010E	; 0x80010e <Mode>
     610:	82 30       	cpi	r24, 0x02	; 2
     612:	19 f4       	brne	.+6      	; 0x61a <__LOCK_REGION_LENGTH__+0x21a>
     614:	0e 94 be 00 	call	0x17c	; 0x17c <from_EEPROM>
     618:	04 c0       	rjmp	.+8      	; 0x622 <__LOCK_REGION_LENGTH__+0x222>
		else if(Mode == EEPROM_WRITE_MODE)	to_EEPROM();
     61a:	83 30       	cpi	r24, 0x03	; 3
     61c:	11 f4       	brne	.+4      	; 0x622 <__LOCK_REGION_LENGTH__+0x222>
     61e:	0e 94 8d 00 	call	0x11a	; 0x11a <to_EEPROM>
	
		DDRB &= ~(1 << 4);			// Убираем 1 с пина
     622:	bc 98       	cbi	0x17, 4	; 23
		PORTB &= ~(1 << 4);
     624:	c4 98       	cbi	0x18, 4	; 24
	//*********************************************************************************************** Выставляем 1 на пин 5 порта B	
	
		DDRB |=	1 << 5;
     626:	bd 9a       	sbi	0x17, 5	; 23
		PORTB |= 1 << 5;
     628:	c5 9a       	sbi	0x18, 5	; 24
     62a:	8f e3       	ldi	r24, 0x3F	; 63
     62c:	9c e9       	ldi	r25, 0x9C	; 156
     62e:	01 97       	sbiw	r24, 0x01	; 1
     630:	f1 f7       	brne	.-4      	; 0x62e <__LOCK_REGION_LENGTH__+0x22e>
     632:	00 c0       	rjmp	.+0      	; 0x634 <__LOCK_REGION_LENGTH__+0x234>
     634:	00 00       	nop
		_delay_ms(RC_DELAY);
		corret_bytes();
     636:	0e 94 71 00 	call	0xe2	; 0xe2 <corret_bytes>
	
		if (Mode == EEPROM_READ_MODE)	from_EEPROM();
     63a:	80 91 0e 01 	lds	r24, 0x010E	; 0x80010e <Mode>
     63e:	82 30       	cpi	r24, 0x02	; 2
     640:	19 f4       	brne	.+6      	; 0x648 <__LOCK_REGION_LENGTH__+0x248>
     642:	0e 94 be 00 	call	0x17c	; 0x17c <from_EEPROM>
     646:	04 c0       	rjmp	.+8      	; 0x650 <__LOCK_REGION_LENGTH__+0x250>
		else if(Mode == EEPROM_WRITE_MODE)	to_EEPROM();
     648:	83 30       	cpi	r24, 0x03	; 3
     64a:	11 f4       	brne	.+4      	; 0x650 <__LOCK_REGION_LENGTH__+0x250>
     64c:	0e 94 8d 00 	call	0x11a	; 0x11a <to_EEPROM>
	
		DDRB &= ~(1 << 5);			// Убираем 1 с пина
     650:	bd 98       	cbi	0x17, 5	; 23
		PORTB &= ~(1 << 5);
     652:	c5 98       	cbi	0x18, 5	; 24
	//*********************************************************************************************** Выставляем 1 на пин 6 порта B	
	
		DDRB |=	1 << 6;
     654:	be 9a       	sbi	0x17, 6	; 23
		PORTB |= 1 << 6;
     656:	c6 9a       	sbi	0x18, 6	; 24
     658:	8f e3       	ldi	r24, 0x3F	; 63
     65a:	9c e9       	ldi	r25, 0x9C	; 156
     65c:	01 97       	sbiw	r24, 0x01	; 1
     65e:	f1 f7       	brne	.-4      	; 0x65c <__LOCK_REGION_LENGTH__+0x25c>
     660:	00 c0       	rjmp	.+0      	; 0x662 <__LOCK_REGION_LENGTH__+0x262>
     662:	00 00       	nop
		_delay_ms(RC_DELAY);
		corret_bytes();
     664:	0e 94 71 00 	call	0xe2	; 0xe2 <corret_bytes>
	
		if (Mode == EEPROM_READ_MODE)	from_EEPROM();
     668:	80 91 0e 01 	lds	r24, 0x010E	; 0x80010e <Mode>
     66c:	82 30       	cpi	r24, 0x02	; 2
     66e:	19 f4       	brne	.+6      	; 0x676 <__LOCK_REGION_LENGTH__+0x276>
     670:	0e 94 be 00 	call	0x17c	; 0x17c <from_EEPROM>
     674:	04 c0       	rjmp	.+8      	; 0x67e <__LOCK_REGION_LENGTH__+0x27e>
		else if(Mode == EEPROM_WRITE_MODE)	to_EEPROM();
     676:	83 30       	cpi	r24, 0x03	; 3
     678:	11 f4       	brne	.+4      	; 0x67e <__LOCK_REGION_LENGTH__+0x27e>
     67a:	0e 94 8d 00 	call	0x11a	; 0x11a <to_EEPROM>
	
		DDRB &= ~(1 << 6);			// Убираем 1 с пина
     67e:	be 98       	cbi	0x17, 6	; 23
		PORTB &= ~(1 << 6);
     680:	c6 98       	cbi	0x18, 6	; 24
		//*********************************************************************************************** Выставляем 1 на пин 7 порта B	
	
		DDRB |=	1 << 7;
     682:	bf 9a       	sbi	0x17, 7	; 23
		PORTB |= 1 << 7;
     684:	c7 9a       	sbi	0x18, 7	; 24
     686:	8f e3       	ldi	r24, 0x3F	; 63
     688:	9c e9       	ldi	r25, 0x9C	; 156
     68a:	01 97       	sbiw	r24, 0x01	; 1
     68c:	f1 f7       	brne	.-4      	; 0x68a <__LOCK_REGION_LENGTH__+0x28a>
     68e:	00 c0       	rjmp	.+0      	; 0x690 <__LOCK_REGION_LENGTH__+0x290>
     690:	00 00       	nop
		_delay_ms(RC_DELAY);
		corret_bytes();
     692:	0e 94 71 00 	call	0xe2	; 0xe2 <corret_bytes>
	
		if (Mode == EEPROM_READ_MODE)	from_EEPROM();
     696:	80 91 0e 01 	lds	r24, 0x010E	; 0x80010e <Mode>
     69a:	82 30       	cpi	r24, 0x02	; 2
     69c:	19 f4       	brne	.+6      	; 0x6a4 <__LOCK_REGION_LENGTH__+0x2a4>
     69e:	0e 94 be 00 	call	0x17c	; 0x17c <from_EEPROM>
     6a2:	04 c0       	rjmp	.+8      	; 0x6ac <__LOCK_REGION_LENGTH__+0x2ac>
		else if(Mode == EEPROM_WRITE_MODE)	to_EEPROM();
     6a4:	83 30       	cpi	r24, 0x03	; 3
     6a6:	11 f4       	brne	.+4      	; 0x6ac <__LOCK_REGION_LENGTH__+0x2ac>
     6a8:	0e 94 8d 00 	call	0x11a	; 0x11a <to_EEPROM>
	
		DDRB &= ~(1 << 7);			// Убираем 1 с пина
     6ac:	bf 98       	cbi	0x17, 7	; 23
		PORTB &= ~(1 << 7);
     6ae:	c7 98       	cbi	0x18, 7	; 24
	
	//*********************************************************************************************** Выставляем 1 на пин 0 порта D	
		DDRD |=	1 << 0;
     6b0:	88 9a       	sbi	0x11, 0	; 17
		PORTD |= 1 << 0;
     6b2:	90 9a       	sbi	0x12, 0	; 18
		Toogle_blue_LED();
     6b4:	0e 94 c0 06 	call	0xd80	; 0xd80 <Toogle_blue_LED>
     6b8:	8f e3       	ldi	r24, 0x3F	; 63
     6ba:	9c e9       	ldi	r25, 0x9C	; 156
     6bc:	01 97       	sbiw	r24, 0x01	; 1
     6be:	f1 f7       	brne	.-4      	; 0x6bc <__LOCK_REGION_LENGTH__+0x2bc>
     6c0:	00 c0       	rjmp	.+0      	; 0x6c2 <__LOCK_REGION_LENGTH__+0x2c2>
     6c2:	00 00       	nop
		_delay_ms(RC_DELAY);
		corret_bytes();
     6c4:	0e 94 71 00 	call	0xe2	; 0xe2 <corret_bytes>
	
		if (Mode == EEPROM_READ_MODE)	from_EEPROM();
     6c8:	80 91 0e 01 	lds	r24, 0x010E	; 0x80010e <Mode>
     6cc:	82 30       	cpi	r24, 0x02	; 2
     6ce:	19 f4       	brne	.+6      	; 0x6d6 <__LOCK_REGION_LENGTH__+0x2d6>
     6d0:	0e 94 be 00 	call	0x17c	; 0x17c <from_EEPROM>
     6d4:	04 c0       	rjmp	.+8      	; 0x6de <__LOCK_REGION_LENGTH__+0x2de>
		else if(Mode == EEPROM_WRITE_MODE)	to_EEPROM();
     6d6:	83 30       	cpi	r24, 0x03	; 3
     6d8:	11 f4       	brne	.+4      	; 0x6de <__LOCK_REGION_LENGTH__+0x2de>
     6da:	0e 94 8d 00 	call	0x11a	; 0x11a <to_EEPROM>
	
		DDRD &= ~(1 << 0);			// Убираем 1 с пина
     6de:	88 98       	cbi	0x11, 0	; 17
		PORTD &= ~(1 << 0);
     6e0:	90 98       	cbi	0x12, 0	; 18

	//*********************************************************************************************** Выставляем 1 на пин 5 порта D	
	
		DDRD |=	1 << 5;
     6e2:	8d 9a       	sbi	0x11, 5	; 17
		PORTD |= 1 << 5;
     6e4:	95 9a       	sbi	0x12, 5	; 18
     6e6:	8f e3       	ldi	r24, 0x3F	; 63
     6e8:	9c e9       	ldi	r25, 0x9C	; 156
     6ea:	01 97       	sbiw	r24, 0x01	; 1
     6ec:	f1 f7       	brne	.-4      	; 0x6ea <__LOCK_REGION_LENGTH__+0x2ea>
     6ee:	00 c0       	rjmp	.+0      	; 0x6f0 <__LOCK_REGION_LENGTH__+0x2f0>
     6f0:	00 00       	nop
		_delay_ms(RC_DELAY);
		corret_bytes();
     6f2:	0e 94 71 00 	call	0xe2	; 0xe2 <corret_bytes>
	
		if (Mode == EEPROM_READ_MODE)	from_EEPROM();
     6f6:	80 91 0e 01 	lds	r24, 0x010E	; 0x80010e <Mode>
     6fa:	82 30       	cpi	r24, 0x02	; 2
     6fc:	19 f4       	brne	.+6      	; 0x704 <__LOCK_REGION_LENGTH__+0x304>
     6fe:	0e 94 be 00 	call	0x17c	; 0x17c <from_EEPROM>
     702:	04 c0       	rjmp	.+8      	; 0x70c <__LOCK_REGION_LENGTH__+0x30c>
		else if(Mode == EEPROM_WRITE_MODE)	to_EEPROM();
     704:	83 30       	cpi	r24, 0x03	; 3
     706:	11 f4       	brne	.+4      	; 0x70c <__LOCK_REGION_LENGTH__+0x30c>
     708:	0e 94 8d 00 	call	0x11a	; 0x11a <to_EEPROM>
	
		DDRD &= ~(1 << 5);			// Убираем 1 с пина
     70c:	8d 98       	cbi	0x11, 5	; 17
		PORTD &= ~(1 << 5);
     70e:	95 98       	cbi	0x12, 5	; 18
	//*********************************************************************************************** Выставляем 1 на пин 6 порта D	
	
		DDRD |=	1 << 6;
     710:	8e 9a       	sbi	0x11, 6	; 17
		PORTD |= 1 << 6;
     712:	96 9a       	sbi	0x12, 6	; 18
     714:	8f e3       	ldi	r24, 0x3F	; 63
     716:	9c e9       	ldi	r25, 0x9C	; 156
     718:	01 97       	sbiw	r24, 0x01	; 1
     71a:	f1 f7       	brne	.-4      	; 0x718 <__LOCK_REGION_LENGTH__+0x318>
     71c:	00 c0       	rjmp	.+0      	; 0x71e <__LOCK_REGION_LENGTH__+0x31e>
     71e:	00 00       	nop
		_delay_ms(RC_DELAY);
		corret_bytes();
     720:	0e 94 71 00 	call	0xe2	; 0xe2 <corret_bytes>
	
		if (Mode == EEPROM_READ_MODE)	from_EEPROM();
     724:	80 91 0e 01 	lds	r24, 0x010E	; 0x80010e <Mode>
     728:	82 30       	cpi	r24, 0x02	; 2
     72a:	19 f4       	brne	.+6      	; 0x732 <__LOCK_REGION_LENGTH__+0x332>
     72c:	0e 94 be 00 	call	0x17c	; 0x17c <from_EEPROM>
     730:	04 c0       	rjmp	.+8      	; 0x73a <__LOCK_REGION_LENGTH__+0x33a>
		else if(Mode == EEPROM_WRITE_MODE)	to_EEPROM();
     732:	83 30       	cpi	r24, 0x03	; 3
     734:	11 f4       	brne	.+4      	; 0x73a <__LOCK_REGION_LENGTH__+0x33a>
     736:	0e 94 8d 00 	call	0x11a	; 0x11a <to_EEPROM>
	
		DDRD &= ~(1 << 6);			// Убираем 1 с пина
     73a:	8e 98       	cbi	0x11, 6	; 17
		PORTD &= ~(1 << 6);
     73c:	96 98       	cbi	0x12, 6	; 18
		//*********************************************************************************************** Выставляем 1 на пин 7 порта D	
	
		DDRD |=	1 << 7;
     73e:	8f 9a       	sbi	0x11, 7	; 17
		PORTD |= 1 << 7;
     740:	97 9a       	sbi	0x12, 7	; 18
     742:	8f e3       	ldi	r24, 0x3F	; 63
     744:	9c e9       	ldi	r25, 0x9C	; 156
     746:	01 97       	sbiw	r24, 0x01	; 1
     748:	f1 f7       	brne	.-4      	; 0x746 <__LOCK_REGION_LENGTH__+0x346>
     74a:	00 c0       	rjmp	.+0      	; 0x74c <__LOCK_REGION_LENGTH__+0x34c>
     74c:	00 00       	nop
		_delay_ms(RC_DELAY);
		corret_bytes();
     74e:	0e 94 71 00 	call	0xe2	; 0xe2 <corret_bytes>
	
		if (Mode == EEPROM_READ_MODE)	from_EEPROM();
     752:	80 91 0e 01 	lds	r24, 0x010E	; 0x80010e <Mode>
     756:	82 30       	cpi	r24, 0x02	; 2
     758:	19 f4       	brne	.+6      	; 0x760 <__LOCK_REGION_LENGTH__+0x360>
     75a:	0e 94 be 00 	call	0x17c	; 0x17c <from_EEPROM>
     75e:	04 c0       	rjmp	.+8      	; 0x768 <__LOCK_REGION_LENGTH__+0x368>
		else if(Mode == EEPROM_WRITE_MODE)	to_EEPROM();
     760:	83 30       	cpi	r24, 0x03	; 3
     762:	11 f4       	brne	.+4      	; 0x768 <__LOCK_REGION_LENGTH__+0x368>
     764:	0e 94 8d 00 	call	0x11a	; 0x11a <to_EEPROM>
	
		DDRD &= ~(1 << 7);			// Убираем 1 с пина
     768:	8f 98       	cbi	0x11, 7	; 17
		PORTD &= ~(1 << 7);
     76a:	97 98       	cbi	0x12, 7	; 18
	//*********************************************************************************************** Выставляем 1 на пин 0 порта C	
		DDRC |=	1 << 0;
     76c:	a0 9a       	sbi	0x14, 0	; 20
		PORTC |= 1 << 0;
     76e:	a8 9a       	sbi	0x15, 0	; 21
		Toogle_blue_LED();
     770:	0e 94 c0 06 	call	0xd80	; 0xd80 <Toogle_blue_LED>
     774:	8f e3       	ldi	r24, 0x3F	; 63
     776:	9c e9       	ldi	r25, 0x9C	; 156
     778:	01 97       	sbiw	r24, 0x01	; 1
     77a:	f1 f7       	brne	.-4      	; 0x778 <__LOCK_REGION_LENGTH__+0x378>
     77c:	00 c0       	rjmp	.+0      	; 0x77e <__LOCK_REGION_LENGTH__+0x37e>
     77e:	00 00       	nop
		_delay_ms(RC_DELAY);
		corret_bytes();
     780:	0e 94 71 00 	call	0xe2	; 0xe2 <corret_bytes>
	
		if (Mode == EEPROM_READ_MODE)	from_EEPROM();
     784:	80 91 0e 01 	lds	r24, 0x010E	; 0x80010e <Mode>
     788:	82 30       	cpi	r24, 0x02	; 2
     78a:	19 f4       	brne	.+6      	; 0x792 <__LOCK_REGION_LENGTH__+0x392>
     78c:	0e 94 be 00 	call	0x17c	; 0x17c <from_EEPROM>
     790:	04 c0       	rjmp	.+8      	; 0x79a <__LOCK_REGION_LENGTH__+0x39a>
		else if(Mode == EEPROM_WRITE_MODE)	to_EEPROM();
     792:	83 30       	cpi	r24, 0x03	; 3
     794:	11 f4       	brne	.+4      	; 0x79a <__LOCK_REGION_LENGTH__+0x39a>
     796:	0e 94 8d 00 	call	0x11a	; 0x11a <to_EEPROM>
	
		DDRC &= ~(1 << 0);			// Убираем 1 с пина
     79a:	a0 98       	cbi	0x14, 0	; 20
		PORTC &= ~(1 << 0);
     79c:	a8 98       	cbi	0x15, 0	; 21
	//*********************************************************************************************** Выставляем 1 на пин 1 порта C	
		DDRC |=	1 << 1;
     79e:	a1 9a       	sbi	0x14, 1	; 20
		PORTC |= 1 << 1;
     7a0:	a9 9a       	sbi	0x15, 1	; 21
     7a2:	8f e3       	ldi	r24, 0x3F	; 63
     7a4:	9c e9       	ldi	r25, 0x9C	; 156
     7a6:	01 97       	sbiw	r24, 0x01	; 1
     7a8:	f1 f7       	brne	.-4      	; 0x7a6 <__LOCK_REGION_LENGTH__+0x3a6>
     7aa:	00 c0       	rjmp	.+0      	; 0x7ac <__LOCK_REGION_LENGTH__+0x3ac>
     7ac:	00 00       	nop
		_delay_ms(RC_DELAY);
		corret_bytes();
     7ae:	0e 94 71 00 	call	0xe2	; 0xe2 <corret_bytes>
	
		if (Mode == EEPROM_READ_MODE)	from_EEPROM();
     7b2:	80 91 0e 01 	lds	r24, 0x010E	; 0x80010e <Mode>
     7b6:	82 30       	cpi	r24, 0x02	; 2
     7b8:	19 f4       	brne	.+6      	; 0x7c0 <__LOCK_REGION_LENGTH__+0x3c0>
     7ba:	0e 94 be 00 	call	0x17c	; 0x17c <from_EEPROM>
     7be:	04 c0       	rjmp	.+8      	; 0x7c8 <__LOCK_REGION_LENGTH__+0x3c8>
		else if(Mode == EEPROM_WRITE_MODE)	to_EEPROM();
     7c0:	83 30       	cpi	r24, 0x03	; 3
     7c2:	11 f4       	brne	.+4      	; 0x7c8 <__LOCK_REGION_LENGTH__+0x3c8>
     7c4:	0e 94 8d 00 	call	0x11a	; 0x11a <to_EEPROM>
	
		DDRC &= ~(1 << 1);			// Убираем 1 с пина
     7c8:	a1 98       	cbi	0x14, 1	; 20
		PORTC &= ~(1 << 1);	
     7ca:	a9 98       	cbi	0x15, 1	; 21
	//*********************************************************************************************** Выставляем 1 на пин 2 порта C	
		DDRC |=	1 << 2;
     7cc:	a2 9a       	sbi	0x14, 2	; 20
		PORTC |= 1 << 2;
     7ce:	aa 9a       	sbi	0x15, 2	; 21
     7d0:	8f e3       	ldi	r24, 0x3F	; 63
     7d2:	9c e9       	ldi	r25, 0x9C	; 156
     7d4:	01 97       	sbiw	r24, 0x01	; 1
     7d6:	f1 f7       	brne	.-4      	; 0x7d4 <__LOCK_REGION_LENGTH__+0x3d4>
     7d8:	00 c0       	rjmp	.+0      	; 0x7da <__LOCK_REGION_LENGTH__+0x3da>
     7da:	00 00       	nop
		_delay_ms(RC_DELAY);
		corret_bytes();
     7dc:	0e 94 71 00 	call	0xe2	; 0xe2 <corret_bytes>
	
		if (Mode == EEPROM_READ_MODE)	from_EEPROM();
     7e0:	80 91 0e 01 	lds	r24, 0x010E	; 0x80010e <Mode>
     7e4:	82 30       	cpi	r24, 0x02	; 2
     7e6:	19 f4       	brne	.+6      	; 0x7ee <__LOCK_REGION_LENGTH__+0x3ee>
     7e8:	0e 94 be 00 	call	0x17c	; 0x17c <from_EEPROM>
     7ec:	04 c0       	rjmp	.+8      	; 0x7f6 <__LOCK_REGION_LENGTH__+0x3f6>
		else if(Mode == EEPROM_WRITE_MODE)	to_EEPROM();
     7ee:	83 30       	cpi	r24, 0x03	; 3
     7f0:	11 f4       	brne	.+4      	; 0x7f6 <__LOCK_REGION_LENGTH__+0x3f6>
     7f2:	0e 94 8d 00 	call	0x11a	; 0x11a <to_EEPROM>
	
		DDRC &= ~(1 << 2);			// Убираем 1 с пина
     7f6:	a2 98       	cbi	0x14, 2	; 20
		PORTC &= ~(1 << 2);
     7f8:	aa 98       	cbi	0x15, 2	; 21
	//*********************************************************************************************** Выставляем 1 на пин 3 порта C	
		DDRC |=	1 << 3;
     7fa:	a3 9a       	sbi	0x14, 3	; 20
		PORTC |= 1 << 3;
     7fc:	ab 9a       	sbi	0x15, 3	; 21
     7fe:	8f e3       	ldi	r24, 0x3F	; 63
     800:	9c e9       	ldi	r25, 0x9C	; 156
     802:	01 97       	sbiw	r24, 0x01	; 1
     804:	f1 f7       	brne	.-4      	; 0x802 <__LOCK_REGION_LENGTH__+0x402>
     806:	00 c0       	rjmp	.+0      	; 0x808 <__LOCK_REGION_LENGTH__+0x408>
     808:	00 00       	nop
		_delay_ms(RC_DELAY);
		corret_bytes();
     80a:	0e 94 71 00 	call	0xe2	; 0xe2 <corret_bytes>
	
		if (Mode == EEPROM_READ_MODE)	from_EEPROM();
     80e:	80 91 0e 01 	lds	r24, 0x010E	; 0x80010e <Mode>
     812:	82 30       	cpi	r24, 0x02	; 2
     814:	19 f4       	brne	.+6      	; 0x81c <__LOCK_REGION_LENGTH__+0x41c>
     816:	0e 94 be 00 	call	0x17c	; 0x17c <from_EEPROM>
     81a:	04 c0       	rjmp	.+8      	; 0x824 <__LOCK_REGION_LENGTH__+0x424>
		else if(Mode == EEPROM_WRITE_MODE)	to_EEPROM();
     81c:	83 30       	cpi	r24, 0x03	; 3
     81e:	11 f4       	brne	.+4      	; 0x824 <__LOCK_REGION_LENGTH__+0x424>
     820:	0e 94 8d 00 	call	0x11a	; 0x11a <to_EEPROM>
	
		DDRC &= ~(1 << 3);			// Убираем 1 с пина
     824:	a3 98       	cbi	0x14, 3	; 20
		PORTC &= ~(1 << 3);
     826:	ab 98       	cbi	0x15, 3	; 21
	//*********************************************************************************************** Выставляем 1 на пин 4 порта C	
		DDRC |=	1 << 4;
     828:	a4 9a       	sbi	0x14, 4	; 20
		PORTC |= 1 << 4;
     82a:	ac 9a       	sbi	0x15, 4	; 21
     82c:	8f e3       	ldi	r24, 0x3F	; 63
     82e:	9c e9       	ldi	r25, 0x9C	; 156
     830:	01 97       	sbiw	r24, 0x01	; 1
     832:	f1 f7       	brne	.-4      	; 0x830 <__LOCK_REGION_LENGTH__+0x430>
     834:	00 c0       	rjmp	.+0      	; 0x836 <__LOCK_REGION_LENGTH__+0x436>
     836:	00 00       	nop
		_delay_ms(RC_DELAY);
		corret_bytes();
     838:	0e 94 71 00 	call	0xe2	; 0xe2 <corret_bytes>
	
		if (Mode == EEPROM_READ_MODE)	from_EEPROM();
     83c:	80 91 0e 01 	lds	r24, 0x010E	; 0x80010e <Mode>
     840:	82 30       	cpi	r24, 0x02	; 2
     842:	19 f4       	brne	.+6      	; 0x84a <__LOCK_REGION_LENGTH__+0x44a>
     844:	0e 94 be 00 	call	0x17c	; 0x17c <from_EEPROM>
     848:	04 c0       	rjmp	.+8      	; 0x852 <__LOCK_REGION_LENGTH__+0x452>
		else if(Mode == EEPROM_WRITE_MODE)	to_EEPROM();
     84a:	83 30       	cpi	r24, 0x03	; 3
     84c:	11 f4       	brne	.+4      	; 0x852 <__LOCK_REGION_LENGTH__+0x452>
     84e:	0e 94 8d 00 	call	0x11a	; 0x11a <to_EEPROM>
	
		DDRC &= ~(1 << 4);			// Убираем 1 с пина
     852:	a4 98       	cbi	0x14, 4	; 20
		PORTC &= ~(1 << 4);
     854:	ac 98       	cbi	0x15, 4	; 21
	//*********************************************************************************************** Выставляем 1 на пин 5 порта C	
		DDRC |=	1 << 5;
     856:	a5 9a       	sbi	0x14, 5	; 20
		PORTC |= 1 << 5;
     858:	ad 9a       	sbi	0x15, 5	; 21
     85a:	8f e3       	ldi	r24, 0x3F	; 63
     85c:	9c e9       	ldi	r25, 0x9C	; 156
     85e:	01 97       	sbiw	r24, 0x01	; 1
     860:	f1 f7       	brne	.-4      	; 0x85e <__LOCK_REGION_LENGTH__+0x45e>
     862:	00 c0       	rjmp	.+0      	; 0x864 <__LOCK_REGION_LENGTH__+0x464>
     864:	00 00       	nop
		_delay_ms(RC_DELAY);
		corret_bytes();
     866:	0e 94 71 00 	call	0xe2	; 0xe2 <corret_bytes>
	
		if (Mode == EEPROM_READ_MODE)	from_EEPROM();
     86a:	80 91 0e 01 	lds	r24, 0x010E	; 0x80010e <Mode>
     86e:	82 30       	cpi	r24, 0x02	; 2
     870:	19 f4       	brne	.+6      	; 0x878 <__LOCK_REGION_LENGTH__+0x478>
     872:	0e 94 be 00 	call	0x17c	; 0x17c <from_EEPROM>
     876:	04 c0       	rjmp	.+8      	; 0x880 <__LOCK_REGION_LENGTH__+0x480>
		else if(Mode == EEPROM_WRITE_MODE)	to_EEPROM();
     878:	83 30       	cpi	r24, 0x03	; 3
     87a:	11 f4       	brne	.+4      	; 0x880 <__LOCK_REGION_LENGTH__+0x480>
     87c:	0e 94 8d 00 	call	0x11a	; 0x11a <to_EEPROM>
	
		DDRC &= ~(1 << 5);			// Убираем 1 с пина
     880:	a5 98       	cbi	0x14, 5	; 20
		PORTC &= ~(1 << 5);
     882:	ad 98       	cbi	0x15, 5	; 21
	//*********************************************************************************************** Выставляем 1 на пин 6 порта C	
	
		DDRC |=	1 << 6;
     884:	a6 9a       	sbi	0x14, 6	; 20
		PORTC |= 1 << 6;
     886:	ae 9a       	sbi	0x15, 6	; 21
     888:	8f e3       	ldi	r24, 0x3F	; 63
     88a:	9c e9       	ldi	r25, 0x9C	; 156
     88c:	01 97       	sbiw	r24, 0x01	; 1
     88e:	f1 f7       	brne	.-4      	; 0x88c <__LOCK_REGION_LENGTH__+0x48c>
     890:	00 c0       	rjmp	.+0      	; 0x892 <__LOCK_REGION_LENGTH__+0x492>
     892:	00 00       	nop
		_delay_ms(RC_DELAY);
		corret_bytes();
     894:	0e 94 71 00 	call	0xe2	; 0xe2 <corret_bytes>
	
		if (Mode == EEPROM_READ_MODE)	from_EEPROM();
     898:	80 91 0e 01 	lds	r24, 0x010E	; 0x80010e <Mode>
     89c:	82 30       	cpi	r24, 0x02	; 2
     89e:	19 f4       	brne	.+6      	; 0x8a6 <__LOCK_REGION_LENGTH__+0x4a6>
     8a0:	0e 94 be 00 	call	0x17c	; 0x17c <from_EEPROM>
     8a4:	04 c0       	rjmp	.+8      	; 0x8ae <__LOCK_REGION_LENGTH__+0x4ae>
		else if(Mode == EEPROM_WRITE_MODE)	to_EEPROM();
     8a6:	83 30       	cpi	r24, 0x03	; 3
     8a8:	11 f4       	brne	.+4      	; 0x8ae <__LOCK_REGION_LENGTH__+0x4ae>
     8aa:	0e 94 8d 00 	call	0x11a	; 0x11a <to_EEPROM>
	
		DDRC &= ~(1 << 6);			// Убираем 1 с пина
     8ae:	a6 98       	cbi	0x14, 6	; 20
		PORTC &= ~(1 << 6);
     8b0:	ae 98       	cbi	0x15, 6	; 21
		//*********************************************************************************************** Выставляем 1 на пин 7 порта C	
	
		DDRC |=	1 << 7;
     8b2:	a7 9a       	sbi	0x14, 7	; 20
		PORTC |= 1 << 7;
     8b4:	af 9a       	sbi	0x15, 7	; 21
     8b6:	8f e3       	ldi	r24, 0x3F	; 63
     8b8:	9c e9       	ldi	r25, 0x9C	; 156
     8ba:	01 97       	sbiw	r24, 0x01	; 1
     8bc:	f1 f7       	brne	.-4      	; 0x8ba <__LOCK_REGION_LENGTH__+0x4ba>
     8be:	00 c0       	rjmp	.+0      	; 0x8c0 <__LOCK_REGION_LENGTH__+0x4c0>
     8c0:	00 00       	nop
		_delay_ms(RC_DELAY);
		corret_bytes();
     8c2:	0e 94 71 00 	call	0xe2	; 0xe2 <corret_bytes>
	
		if (Mode == EEPROM_READ_MODE)	from_EEPROM();
     8c6:	80 91 0e 01 	lds	r24, 0x010E	; 0x80010e <Mode>
     8ca:	82 30       	cpi	r24, 0x02	; 2
     8cc:	19 f4       	brne	.+6      	; 0x8d4 <__LOCK_REGION_LENGTH__+0x4d4>
     8ce:	0e 94 be 00 	call	0x17c	; 0x17c <from_EEPROM>
     8d2:	04 c0       	rjmp	.+8      	; 0x8dc <__LOCK_REGION_LENGTH__+0x4dc>
		else if(Mode == EEPROM_WRITE_MODE)	to_EEPROM();
     8d4:	83 30       	cpi	r24, 0x03	; 3
     8d6:	11 f4       	brne	.+4      	; 0x8dc <__LOCK_REGION_LENGTH__+0x4dc>
     8d8:	0e 94 8d 00 	call	0x11a	; 0x11a <to_EEPROM>
	
		DDRC &= ~(1 << 7);			// Убираем 1 с пина
     8dc:	a7 98       	cbi	0x14, 7	; 20
		PORTC &= ~(1 << 7);	
     8de:	af 98       	cbi	0x15, 7	; 21
	//*********************************************************************************************** Выставляем 1 на пин 0 порта A	
		DDRA |=	1 << 7;
     8e0:	d7 9a       	sbi	0x1a, 7	; 26
		PORTA |= 1 << 7;
     8e2:	df 9a       	sbi	0x1b, 7	; 27
		Toogle_blue_LED();
     8e4:	0e 94 c0 06 	call	0xd80	; 0xd80 <Toogle_blue_LED>
     8e8:	8f e3       	ldi	r24, 0x3F	; 63
     8ea:	9c e9       	ldi	r25, 0x9C	; 156
     8ec:	01 97       	sbiw	r24, 0x01	; 1
     8ee:	f1 f7       	brne	.-4      	; 0x8ec <__LOCK_REGION_LENGTH__+0x4ec>
     8f0:	00 c0       	rjmp	.+0      	; 0x8f2 <__LOCK_REGION_LENGTH__+0x4f2>
     8f2:	00 00       	nop
		_delay_ms(RC_DELAY);
		corret_bytes();
     8f4:	0e 94 71 00 	call	0xe2	; 0xe2 <corret_bytes>
	
		if (Mode == EEPROM_READ_MODE)	from_EEPROM();
     8f8:	80 91 0e 01 	lds	r24, 0x010E	; 0x80010e <Mode>
     8fc:	82 30       	cpi	r24, 0x02	; 2
     8fe:	19 f4       	brne	.+6      	; 0x906 <__LOCK_REGION_LENGTH__+0x506>
     900:	0e 94 be 00 	call	0x17c	; 0x17c <from_EEPROM>
     904:	04 c0       	rjmp	.+8      	; 0x90e <__LOCK_REGION_LENGTH__+0x50e>
		else if(Mode == EEPROM_WRITE_MODE)	to_EEPROM();
     906:	83 30       	cpi	r24, 0x03	; 3
     908:	11 f4       	brne	.+4      	; 0x90e <__LOCK_REGION_LENGTH__+0x50e>
     90a:	0e 94 8d 00 	call	0x11a	; 0x11a <to_EEPROM>
	
		DDRA &= ~(1 << 7);			// Убираем 1 с пина
     90e:	d7 98       	cbi	0x1a, 7	; 26
		PORTA &= ~(1 << 7);
     910:	df 98       	cbi	0x1b, 7	; 27
	//*********************************************************************************************** Выставляем 1 на пин 1 порта A	
		DDRA |=	1 << 6;
     912:	d6 9a       	sbi	0x1a, 6	; 26
		PORTA |= 1 << 6;
     914:	de 9a       	sbi	0x1b, 6	; 27
     916:	8f e3       	ldi	r24, 0x3F	; 63
     918:	9c e9       	ldi	r25, 0x9C	; 156
     91a:	01 97       	sbiw	r24, 0x01	; 1
     91c:	f1 f7       	brne	.-4      	; 0x91a <__LOCK_REGION_LENGTH__+0x51a>
     91e:	00 c0       	rjmp	.+0      	; 0x920 <__LOCK_REGION_LENGTH__+0x520>
     920:	00 00       	nop
		_delay_ms(RC_DELAY);
		corret_bytes();
     922:	0e 94 71 00 	call	0xe2	; 0xe2 <corret_bytes>
	
		if (Mode == EEPROM_READ_MODE)	from_EEPROM();
     926:	80 91 0e 01 	lds	r24, 0x010E	; 0x80010e <Mode>
     92a:	82 30       	cpi	r24, 0x02	; 2
     92c:	19 f4       	brne	.+6      	; 0x934 <__LOCK_REGION_LENGTH__+0x534>
     92e:	0e 94 be 00 	call	0x17c	; 0x17c <from_EEPROM>
     932:	04 c0       	rjmp	.+8      	; 0x93c <__LOCK_REGION_LENGTH__+0x53c>
		else if(Mode == EEPROM_WRITE_MODE)	to_EEPROM();
     934:	83 30       	cpi	r24, 0x03	; 3
     936:	11 f4       	brne	.+4      	; 0x93c <__LOCK_REGION_LENGTH__+0x53c>
     938:	0e 94 8d 00 	call	0x11a	; 0x11a <to_EEPROM>
	
		DDRA &= ~(1 << 6);			// Убираем 1 с пина
     93c:	d6 98       	cbi	0x1a, 6	; 26
		PORTA &= ~(1 << 6);	
     93e:	de 98       	cbi	0x1b, 6	; 27
	//*********************************************************************************************** Выставляем 1 на пин 2 порта A	
		DDRA |=	1 << 5;
     940:	d5 9a       	sbi	0x1a, 5	; 26
		PORTA |= 1 << 5;
     942:	dd 9a       	sbi	0x1b, 5	; 27
     944:	8f e3       	ldi	r24, 0x3F	; 63
     946:	9c e9       	ldi	r25, 0x9C	; 156
     948:	01 97       	sbiw	r24, 0x01	; 1
     94a:	f1 f7       	brne	.-4      	; 0x948 <__LOCK_REGION_LENGTH__+0x548>
     94c:	00 c0       	rjmp	.+0      	; 0x94e <__LOCK_REGION_LENGTH__+0x54e>
     94e:	00 00       	nop
		_delay_ms(RC_DELAY);
		corret_bytes();
     950:	0e 94 71 00 	call	0xe2	; 0xe2 <corret_bytes>
	
		if (Mode == EEPROM_READ_MODE)	from_EEPROM();
     954:	80 91 0e 01 	lds	r24, 0x010E	; 0x80010e <Mode>
     958:	82 30       	cpi	r24, 0x02	; 2
     95a:	19 f4       	brne	.+6      	; 0x962 <__LOCK_REGION_LENGTH__+0x562>
     95c:	0e 94 be 00 	call	0x17c	; 0x17c <from_EEPROM>
     960:	04 c0       	rjmp	.+8      	; 0x96a <__LOCK_REGION_LENGTH__+0x56a>
		else if(Mode == EEPROM_WRITE_MODE)	to_EEPROM();
     962:	83 30       	cpi	r24, 0x03	; 3
     964:	11 f4       	brne	.+4      	; 0x96a <__LOCK_REGION_LENGTH__+0x56a>
     966:	0e 94 8d 00 	call	0x11a	; 0x11a <to_EEPROM>
	
		DDRA &= ~(1 << 5);			// Убираем 1 с пина
     96a:	d5 98       	cbi	0x1a, 5	; 26
		PORTA &= ~(1 << 5);
     96c:	dd 98       	cbi	0x1b, 5	; 27
	//*********************************************************************************************** Выставляем 1 на пин 3 порта A	
		DDRA |=	1 << 4;
     96e:	d4 9a       	sbi	0x1a, 4	; 26
		PORTA |= 1 << 4;
     970:	dc 9a       	sbi	0x1b, 4	; 27
     972:	8f e3       	ldi	r24, 0x3F	; 63
     974:	9c e9       	ldi	r25, 0x9C	; 156
     976:	01 97       	sbiw	r24, 0x01	; 1
     978:	f1 f7       	brne	.-4      	; 0x976 <__LOCK_REGION_LENGTH__+0x576>
     97a:	00 c0       	rjmp	.+0      	; 0x97c <__LOCK_REGION_LENGTH__+0x57c>
     97c:	00 00       	nop
		_delay_ms(RC_DELAY);
		corret_bytes();
     97e:	0e 94 71 00 	call	0xe2	; 0xe2 <corret_bytes>
	
		if (Mode == EEPROM_READ_MODE)	from_EEPROM();
     982:	80 91 0e 01 	lds	r24, 0x010E	; 0x80010e <Mode>
     986:	82 30       	cpi	r24, 0x02	; 2
     988:	19 f4       	brne	.+6      	; 0x990 <__LOCK_REGION_LENGTH__+0x590>
     98a:	0e 94 be 00 	call	0x17c	; 0x17c <from_EEPROM>
     98e:	04 c0       	rjmp	.+8      	; 0x998 <__LOCK_REGION_LENGTH__+0x598>
		else if(Mode == EEPROM_WRITE_MODE)	to_EEPROM();
     990:	83 30       	cpi	r24, 0x03	; 3
     992:	11 f4       	brne	.+4      	; 0x998 <__LOCK_REGION_LENGTH__+0x598>
     994:	0e 94 8d 00 	call	0x11a	; 0x11a <to_EEPROM>
	
		DDRA &= ~(1 << 4);			// Убираем 1 с пина
     998:	d4 98       	cbi	0x1a, 4	; 26
		PORTA &= ~(1 << 4);
     99a:	dc 98       	cbi	0x1b, 4	; 27
	//*********************************************************************************************** Выставляем 1 на пин 4 порта A	
	
		DDRA |=	1 << 3;
     99c:	d3 9a       	sbi	0x1a, 3	; 26
		PORTA |= 1 << 3;
     99e:	db 9a       	sbi	0x1b, 3	; 27
     9a0:	8f e3       	ldi	r24, 0x3F	; 63
     9a2:	9c e9       	ldi	r25, 0x9C	; 156
     9a4:	01 97       	sbiw	r24, 0x01	; 1
     9a6:	f1 f7       	brne	.-4      	; 0x9a4 <__LOCK_REGION_LENGTH__+0x5a4>
     9a8:	00 c0       	rjmp	.+0      	; 0x9aa <__LOCK_REGION_LENGTH__+0x5aa>
     9aa:	00 00       	nop
		_delay_ms(RC_DELAY);
		corret_bytes();
     9ac:	0e 94 71 00 	call	0xe2	; 0xe2 <corret_bytes>
	
		if (Mode == EEPROM_READ_MODE)	from_EEPROM();
     9b0:	80 91 0e 01 	lds	r24, 0x010E	; 0x80010e <Mode>
     9b4:	82 30       	cpi	r24, 0x02	; 2
     9b6:	19 f4       	brne	.+6      	; 0x9be <__LOCK_REGION_LENGTH__+0x5be>
     9b8:	0e 94 be 00 	call	0x17c	; 0x17c <from_EEPROM>
     9bc:	04 c0       	rjmp	.+8      	; 0x9c6 <__LOCK_REGION_LENGTH__+0x5c6>
		else if(Mode == EEPROM_WRITE_MODE)	to_EEPROM();
     9be:	83 30       	cpi	r24, 0x03	; 3
     9c0:	11 f4       	brne	.+4      	; 0x9c6 <__LOCK_REGION_LENGTH__+0x5c6>
     9c2:	0e 94 8d 00 	call	0x11a	; 0x11a <to_EEPROM>
	
		DDRA &= ~(1 << 3);			// Убираем 1 с пина
     9c6:	d3 98       	cbi	0x1a, 3	; 26
		PORTA &= ~(1 << 3);
     9c8:	db 98       	cbi	0x1b, 3	; 27
	//*********************************************************************************************** Выставляем 1 на пин 5 порта A	
	
		DDRA |=	1 << 2;
     9ca:	d2 9a       	sbi	0x1a, 2	; 26
		PORTA |= 1 << 2;
     9cc:	da 9a       	sbi	0x1b, 2	; 27
     9ce:	8f e3       	ldi	r24, 0x3F	; 63
     9d0:	9c e9       	ldi	r25, 0x9C	; 156
     9d2:	01 97       	sbiw	r24, 0x01	; 1
     9d4:	f1 f7       	brne	.-4      	; 0x9d2 <__LOCK_REGION_LENGTH__+0x5d2>
     9d6:	00 c0       	rjmp	.+0      	; 0x9d8 <__LOCK_REGION_LENGTH__+0x5d8>
     9d8:	00 00       	nop
		_delay_ms(RC_DELAY);
		corret_bytes();
     9da:	0e 94 71 00 	call	0xe2	; 0xe2 <corret_bytes>
	
		if (Mode == EEPROM_READ_MODE)	from_EEPROM();
     9de:	80 91 0e 01 	lds	r24, 0x010E	; 0x80010e <Mode>
     9e2:	82 30       	cpi	r24, 0x02	; 2
     9e4:	19 f4       	brne	.+6      	; 0x9ec <__LOCK_REGION_LENGTH__+0x5ec>
     9e6:	0e 94 be 00 	call	0x17c	; 0x17c <from_EEPROM>
     9ea:	04 c0       	rjmp	.+8      	; 0x9f4 <__LOCK_REGION_LENGTH__+0x5f4>
		else if(Mode == EEPROM_WRITE_MODE)	to_EEPROM();
     9ec:	83 30       	cpi	r24, 0x03	; 3
     9ee:	11 f4       	brne	.+4      	; 0x9f4 <__LOCK_REGION_LENGTH__+0x5f4>
     9f0:	0e 94 8d 00 	call	0x11a	; 0x11a <to_EEPROM>
	
		DDRA &= ~(1 << 2);			// Убираем 1 с пина
     9f4:	d2 98       	cbi	0x1a, 2	; 26
		PORTA &= ~(1 << 2);
     9f6:	da 98       	cbi	0x1b, 2	; 27
	//*********************************************************************************************** Выставляем 1 на пин 6 порта A	
	
		DDRA |=	1 << 1;
     9f8:	d1 9a       	sbi	0x1a, 1	; 26
		PORTA |= 1 << 1;
     9fa:	d9 9a       	sbi	0x1b, 1	; 27
     9fc:	8f e3       	ldi	r24, 0x3F	; 63
     9fe:	9c e9       	ldi	r25, 0x9C	; 156
     a00:	01 97       	sbiw	r24, 0x01	; 1
     a02:	f1 f7       	brne	.-4      	; 0xa00 <__LOCK_REGION_LENGTH__+0x600>
     a04:	00 c0       	rjmp	.+0      	; 0xa06 <__LOCK_REGION_LENGTH__+0x606>
     a06:	00 00       	nop
		_delay_ms(RC_DELAY);
		corret_bytes();
     a08:	0e 94 71 00 	call	0xe2	; 0xe2 <corret_bytes>
	
		if (Mode == EEPROM_READ_MODE)	from_EEPROM();
     a0c:	80 91 0e 01 	lds	r24, 0x010E	; 0x80010e <Mode>
     a10:	82 30       	cpi	r24, 0x02	; 2
     a12:	19 f4       	brne	.+6      	; 0xa1a <__LOCK_REGION_LENGTH__+0x61a>
     a14:	0e 94 be 00 	call	0x17c	; 0x17c <from_EEPROM>
     a18:	04 c0       	rjmp	.+8      	; 0xa22 <__LOCK_REGION_LENGTH__+0x622>
		else if(Mode == EEPROM_WRITE_MODE)	to_EEPROM();
     a1a:	83 30       	cpi	r24, 0x03	; 3
     a1c:	11 f4       	brne	.+4      	; 0xa22 <__LOCK_REGION_LENGTH__+0x622>
     a1e:	0e 94 8d 00 	call	0x11a	; 0x11a <to_EEPROM>
	
		DDRA &= ~(1 << 1);			// Убираем 1 с пина
     a22:	d1 98       	cbi	0x1a, 1	; 26
		PORTA &= ~(1 << 1);
     a24:	d9 98       	cbi	0x1b, 1	; 27
		//*********************************************************************************************** Выставляем 1 на пин 7 порта A	
	
		DDRA |=	1 << 0;
     a26:	d0 9a       	sbi	0x1a, 0	; 26
		PORTA |= 1 << 0;
     a28:	d8 9a       	sbi	0x1b, 0	; 27
     a2a:	8f e3       	ldi	r24, 0x3F	; 63
     a2c:	9c e9       	ldi	r25, 0x9C	; 156
     a2e:	01 97       	sbiw	r24, 0x01	; 1
     a30:	f1 f7       	brne	.-4      	; 0xa2e <__LOCK_REGION_LENGTH__+0x62e>
     a32:	00 c0       	rjmp	.+0      	; 0xa34 <__LOCK_REGION_LENGTH__+0x634>
     a34:	00 00       	nop
		_delay_ms(RC_DELAY);
		corret_bytes();
     a36:	0e 94 71 00 	call	0xe2	; 0xe2 <corret_bytes>
	
		if (Mode == EEPROM_READ_MODE)	from_EEPROM();
     a3a:	80 91 0e 01 	lds	r24, 0x010E	; 0x80010e <Mode>
     a3e:	82 30       	cpi	r24, 0x02	; 2
     a40:	19 f4       	brne	.+6      	; 0xa48 <__LOCK_REGION_LENGTH__+0x648>
     a42:	0e 94 be 00 	call	0x17c	; 0x17c <from_EEPROM>
     a46:	04 c0       	rjmp	.+8      	; 0xa50 <__LOCK_REGION_LENGTH__+0x650>
		else if(Mode == EEPROM_WRITE_MODE)	to_EEPROM();
     a48:	83 30       	cpi	r24, 0x03	; 3
     a4a:	11 f4       	brne	.+4      	; 0xa50 <__LOCK_REGION_LENGTH__+0x650>
     a4c:	0e 94 8d 00 	call	0x11a	; 0x11a <to_EEPROM>
	
		DDRA &= ~(1 << 0);			// Убираем 1 с пина
     a50:	d0 98       	cbi	0x1a, 0	; 26
		PORTA &= ~(1 << 0);
     a52:	d8 98       	cbi	0x1b, 0	; 27
     a54:	08 95       	ret

00000a56 <ToEepromFromPC>:
	}	
}

void ToEepromFromPC(uint8_t data)
{
	EEPROM_write(ToEepromFromPC_cell_addres, data);
     a56:	68 2f       	mov	r22, r24
     a58:	80 91 0f 01 	lds	r24, 0x010F	; 0x80010f <ToEepromFromPC_cell_addres>
     a5c:	90 91 10 01 	lds	r25, 0x0110	; 0x800110 <ToEepromFromPC_cell_addres+0x1>
     a60:	0e 94 62 00 	call	0xc4	; 0xc4 <EEPROM_write>
	ToEepromFromPC_cell_addres++;
     a64:	80 91 0f 01 	lds	r24, 0x010F	; 0x80010f <ToEepromFromPC_cell_addres>
     a68:	90 91 10 01 	lds	r25, 0x0110	; 0x800110 <ToEepromFromPC_cell_addres+0x1>
     a6c:	01 96       	adiw	r24, 0x01	; 1
     a6e:	90 93 10 01 	sts	0x0110, r25	; 0x800110 <ToEepromFromPC_cell_addres+0x1>
     a72:	80 93 0f 01 	sts	0x010F, r24	; 0x80010f <ToEepromFromPC_cell_addres>
	if (ToEepromFromPC_cell_addres - cell_addres  == CELL_LENGH)
     a76:	20 91 0c 01 	lds	r18, 0x010C	; 0x80010c <cell_addres>
     a7a:	30 91 0d 01 	lds	r19, 0x010D	; 0x80010d <cell_addres+0x1>
     a7e:	82 1b       	sub	r24, r18
     a80:	93 0b       	sbc	r25, r19
     a82:	84 3e       	cpi	r24, 0xE4	; 228
     a84:	91 05       	cpc	r25, r1
     a86:	59 f4       	brne	.+22     	; 0xa9e <ToEepromFromPC+0x48>
	{
		Mode = EEPROM_READ_MODE;
     a88:	82 e0       	ldi	r24, 0x02	; 2
     a8a:	80 93 0e 01 	sts	0x010E, r24	; 0x80010e <Mode>
		BLUE_LED_OFF;
     a8e:	e5 e6       	ldi	r30, 0x65	; 101
     a90:	f0 e0       	ldi	r31, 0x00	; 0
     a92:	80 81       	ld	r24, Z
     a94:	8b 7f       	andi	r24, 0xFB	; 251
     a96:	80 83       	st	Z, r24
		Buttons_ints_ENABLE();
     a98:	0e 94 72 05 	call	0xae4	; 0xae4 <Buttons_ints_ENABLE>
     a9c:	08 95       	ret
	}
	else
	{
		CLEAR_TCNT1;
     a9e:	1d bc       	out	0x2d, r1	; 45
     aa0:	1c bc       	out	0x2c, r1	; 44
		Toogle_blue_LED();
     aa2:	0e 94 c0 06 	call	0xd80	; 0xd80 <Toogle_blue_LED>
		while ( !( UCSR0A & (1<<UDRE0)) );
     aa6:	5d 9b       	sbis	0x0b, 5	; 11
     aa8:	fe cf       	rjmp	.-4      	; 0xaa6 <ToEepromFromPC+0x50>
		UDR0 = 'r';
     aaa:	82 e7       	ldi	r24, 0x72	; 114
     aac:	8c b9       	out	0x0c, r24	; 12
		while ( !( UCSR0A & (1<<UDRE0)) );
     aae:	5d 9b       	sbis	0x0b, 5	; 11
     ab0:	fe cf       	rjmp	.-4      	; 0xaae <ToEepromFromPC+0x58>
		UDR0 = 'n';
     ab2:	8e e6       	ldi	r24, 0x6E	; 110
     ab4:	8c b9       	out	0x0c, r24	; 12
		while ( !( UCSR0A & (1<<UDRE0)) );
     ab6:	5d 9b       	sbis	0x0b, 5	; 11
     ab8:	fe cf       	rjmp	.-4      	; 0xab6 <ToEepromFromPC+0x60>
		UDR0 = '\n';
     aba:	8a e0       	ldi	r24, 0x0A	; 10
     abc:	8c b9       	out	0x0c, r24	; 12
     abe:	08 95       	ret

00000ac0 <Buttons_int_init>:
 */ 
#include "Interrupts.h"

void Buttons_int_init()
{														   // Int1 and Int2 init to falling front
	PORTD |= 1 << 1;									   // Interrupt pins PULL UP
     ac0:	91 9a       	sbi	0x12, 1	; 18
	PORTD |= 1 << 2;
     ac2:	92 9a       	sbi	0x12, 2	; 18
	
	EICRA |= (1 << ISC01);								   // Int1 and Int2 to falling front
     ac4:	ea e6       	ldi	r30, 0x6A	; 106
     ac6:	f0 e0       	ldi	r31, 0x00	; 0
     ac8:	80 81       	ld	r24, Z
     aca:	82 60       	ori	r24, 0x02	; 2
     acc:	80 83       	st	Z, r24
	EIMSK |= (1 << INT1)|(1 << INT2);					   // Int1 and Int2 enable
     ace:	89 b7       	in	r24, 0x39	; 57
     ad0:	86 60       	ori	r24, 0x06	; 6
     ad2:	89 bf       	out	0x39, r24	; 57
     ad4:	08 95       	ret

00000ad6 <Buttons_ints_DISABLE>:
	
}

void Buttons_ints_DISABLE(void)
{
	EIMSK &= ~(1 << INT1);
     ad6:	89 b7       	in	r24, 0x39	; 57
     ad8:	8d 7f       	andi	r24, 0xFD	; 253
     ada:	89 bf       	out	0x39, r24	; 57
	EIMSK &= ~(1 << INT2);											  
     adc:	89 b7       	in	r24, 0x39	; 57
     ade:	8b 7f       	andi	r24, 0xFB	; 251
     ae0:	89 bf       	out	0x39, r24	; 57
     ae2:	08 95       	ret

00000ae4 <Buttons_ints_ENABLE>:
}

void Buttons_ints_ENABLE(void)
{
	EIFR |= (1 << INTF1) | (1 << INTF2);
     ae4:	88 b7       	in	r24, 0x38	; 56
     ae6:	86 60       	ori	r24, 0x06	; 6
     ae8:	88 bf       	out	0x38, r24	; 56
	EIMSK |= (1 << INT1)|(1 << INT2);					   // Int1 and Int2 enable
     aea:	89 b7       	in	r24, 0x39	; 57
     aec:	86 60       	ori	r24, 0x06	; 6
     aee:	89 bf       	out	0x39, r24	; 57
     af0:	08 95       	ret

00000af2 <__vector_2>:
}

ISR(INT1_vect)
{														   // Button 1(left button) interrupt vector
     af2:	1f 92       	push	r1
     af4:	0f 92       	push	r0
     af6:	0f b6       	in	r0, 0x3f	; 63
     af8:	0f 92       	push	r0
     afa:	11 24       	eor	r1, r1
     afc:	2f 93       	push	r18
     afe:	3f 93       	push	r19
     b00:	4f 93       	push	r20
     b02:	5f 93       	push	r21
     b04:	6f 93       	push	r22
     b06:	7f 93       	push	r23
     b08:	8f 93       	push	r24
     b0a:	9f 93       	push	r25
     b0c:	af 93       	push	r26
     b0e:	bf 93       	push	r27
     b10:	ef 93       	push	r30
     b12:	ff 93       	push	r31
	GREEN_LED_OFF;
     b14:	e5 e6       	ldi	r30, 0x65	; 101
     b16:	f0 e0       	ldi	r31, 0x00	; 0
     b18:	80 81       	ld	r24, Z
     b1a:	8f 7e       	andi	r24, 0xEF	; 239
     b1c:	80 83       	st	Z, r24
	RED_LED_OFF;
     b1e:	80 81       	ld	r24, Z
     b20:	87 7f       	andi	r24, 0xF7	; 247
     b22:	80 83       	st	Z, r24
	
	switch(Mode)
     b24:	80 91 0e 01 	lds	r24, 0x010E	; 0x80010e <Mode>
     b28:	82 30       	cpi	r24, 0x02	; 2
     b2a:	59 f0       	breq	.+22     	; 0xb42 <__vector_2+0x50>
     b2c:	83 30       	cpi	r24, 0x03	; 3
     b2e:	19 f0       	breq	.+6      	; 0xb36 <__vector_2+0x44>
     b30:	81 30       	cpi	r24, 0x01	; 1
     b32:	39 f5       	brne	.+78     	; 0xb82 <__vector_2+0x90>
     b34:	03 c0       	rjmp	.+6      	; 0xb3c <__vector_2+0x4a>
		break;	
		
		case(EEPROM_WRITE_MODE):			
		for (uint8_t i = 10; i != 0; i--)
		{
			if(bit_is_clear(LED_INDICATOR_PIN_REGISTER, LEFT_BUTTON_PIN))
     b36:	81 9b       	sbis	0x10, 1	; 16
     b38:	19 c0       	rjmp	.+50     	; 0xb6c <__vector_2+0x7a>
     b3a:	13 c0       	rjmp	.+38     	; 0xb62 <__vector_2+0x70>
	RED_LED_OFF;
	
	switch(Mode)
	{
		case(STNDART_PC_MODE):
		Scan_USART_Transmit();		
     b3c:	0e 94 2b 09 	call	0x1256	; 0x1256 <Scan_USART_Transmit>
		break;													   
     b40:	20 c0       	rjmp	.+64     	; 0xb82 <__vector_2+0x90>
		
		case(EEPROM_READ_MODE):		
		Scan_and_write_read_EEPROM();				
     b42:	0e 94 76 01 	call	0x2ec	; 0x2ec <Scan_and_write_read_EEPROM>
		break;	
     b46:	1d c0       	rjmp	.+58     	; 0xb82 <__vector_2+0x90>
		
		case(EEPROM_WRITE_MODE):			
		for (uint8_t i = 10; i != 0; i--)
		{
			if(bit_is_clear(LED_INDICATOR_PIN_REGISTER, LEFT_BUTTON_PIN))
     b48:	81 99       	sbic	0x10, 1	; 16
     b4a:	0b c0       	rjmp	.+22     	; 0xb62 <__vector_2+0x70>
     b4c:	2f ef       	ldi	r18, 0xFF	; 255
     b4e:	31 ee       	ldi	r19, 0xE1	; 225
     b50:	94 e0       	ldi	r25, 0x04	; 4
     b52:	21 50       	subi	r18, 0x01	; 1
     b54:	30 40       	sbci	r19, 0x00	; 0
     b56:	90 40       	sbci	r25, 0x00	; 0
     b58:	e1 f7       	brne	.-8      	; 0xb52 <__vector_2+0x60>
     b5a:	00 c0       	rjmp	.+0      	; 0xb5c <__vector_2+0x6a>
     b5c:	00 00       	nop
     b5e:	81 50       	subi	r24, 0x01	; 1
		case(EEPROM_READ_MODE):		
		Scan_and_write_read_EEPROM();				
		break;	
		
		case(EEPROM_WRITE_MODE):			
		for (uint8_t i = 10; i != 0; i--)
     b60:	99 f7       	brne	.-26     	; 0xb48 <__vector_2+0x56>
			if(bit_is_clear(LED_INDICATOR_PIN_REGISTER, LEFT_BUTTON_PIN))
			_delay_ms(200);
			else break;
		}
											
		if(bit_is_clear(LED_INDICATOR_PIN_REGISTER, LEFT_BUTTON_PIN))	
     b62:	81 99       	sbic	0x10, 1	; 16
     b64:	0e c0       	rjmp	.+28     	; 0xb82 <__vector_2+0x90>
		Scan_and_write_read_EEPROM();
     b66:	0e 94 76 01 	call	0x2ec	; 0x2ec <Scan_and_write_read_EEPROM>
		break;
	}
}
     b6a:	0b c0       	rjmp	.+22     	; 0xb82 <__vector_2+0x90>
     b6c:	2f ef       	ldi	r18, 0xFF	; 255
     b6e:	31 ee       	ldi	r19, 0xE1	; 225
     b70:	84 e0       	ldi	r24, 0x04	; 4
     b72:	21 50       	subi	r18, 0x01	; 1
     b74:	30 40       	sbci	r19, 0x00	; 0
     b76:	80 40       	sbci	r24, 0x00	; 0
     b78:	e1 f7       	brne	.-8      	; 0xb72 <__vector_2+0x80>
     b7a:	00 c0       	rjmp	.+0      	; 0xb7c <__vector_2+0x8a>
     b7c:	00 00       	nop
     b7e:	89 e0       	ldi	r24, 0x09	; 9
     b80:	e3 cf       	rjmp	.-58     	; 0xb48 <__vector_2+0x56>
     b82:	ff 91       	pop	r31
     b84:	ef 91       	pop	r30
     b86:	bf 91       	pop	r27
     b88:	af 91       	pop	r26
     b8a:	9f 91       	pop	r25
     b8c:	8f 91       	pop	r24
     b8e:	7f 91       	pop	r23
     b90:	6f 91       	pop	r22
     b92:	5f 91       	pop	r21
     b94:	4f 91       	pop	r20
     b96:	3f 91       	pop	r19
     b98:	2f 91       	pop	r18
     b9a:	0f 90       	pop	r0
     b9c:	0f be       	out	0x3f, r0	; 63
     b9e:	0f 90       	pop	r0
     ba0:	1f 90       	pop	r1
     ba2:	18 95       	reti

00000ba4 <__vector_3>:

ISR(INT2_vect)
{														   // Button 2(right button) interrupt vector
     ba4:	1f 92       	push	r1
     ba6:	0f 92       	push	r0
     ba8:	0f b6       	in	r0, 0x3f	; 63
     baa:	0f 92       	push	r0
     bac:	11 24       	eor	r1, r1
     bae:	2f 93       	push	r18
     bb0:	3f 93       	push	r19
     bb2:	4f 93       	push	r20
     bb4:	5f 93       	push	r21
     bb6:	6f 93       	push	r22
     bb8:	7f 93       	push	r23
     bba:	8f 93       	push	r24
     bbc:	9f 93       	push	r25
     bbe:	af 93       	push	r26
     bc0:	bf 93       	push	r27
     bc2:	ef 93       	push	r30
     bc4:	ff 93       	push	r31
	GREEN_LED_OFF;
     bc6:	e5 e6       	ldi	r30, 0x65	; 101
     bc8:	f0 e0       	ldi	r31, 0x00	; 0
     bca:	80 81       	ld	r24, Z
     bcc:	8f 7e       	andi	r24, 0xEF	; 239
     bce:	80 83       	st	Z, r24
	RED_LED_OFF;
     bd0:	80 81       	ld	r24, Z
     bd2:	87 7f       	andi	r24, 0xF7	; 247
     bd4:	80 83       	st	Z, r24
	
	LED_INDICATOR_CELL_ADDRES(INCREMENT_EEPOM_CELL);	
     bd6:	8a e0       	ldi	r24, 0x0A	; 10
     bd8:	0e 94 ef 06 	call	0xdde	; 0xdde <LED_INDICATOR_CELL_ADDRES>
}
     bdc:	ff 91       	pop	r31
     bde:	ef 91       	pop	r30
     be0:	bf 91       	pop	r27
     be2:	af 91       	pop	r26
     be4:	9f 91       	pop	r25
     be6:	8f 91       	pop	r24
     be8:	7f 91       	pop	r23
     bea:	6f 91       	pop	r22
     bec:	5f 91       	pop	r21
     bee:	4f 91       	pop	r20
     bf0:	3f 91       	pop	r19
     bf2:	2f 91       	pop	r18
     bf4:	0f 90       	pop	r0
     bf6:	0f be       	out	0x3f, r0	; 63
     bf8:	0f 90       	pop	r0
     bfa:	1f 90       	pop	r1
     bfc:	18 95       	reti

00000bfe <__vector_18>:

ISR(USART0_RX_vect)
{		
     bfe:	1f 92       	push	r1
     c00:	0f 92       	push	r0
     c02:	0f b6       	in	r0, 0x3f	; 63
     c04:	0f 92       	push	r0
     c06:	11 24       	eor	r1, r1
     c08:	2f 93       	push	r18
     c0a:	3f 93       	push	r19
     c0c:	4f 93       	push	r20
     c0e:	5f 93       	push	r21
     c10:	6f 93       	push	r22
     c12:	7f 93       	push	r23
     c14:	8f 93       	push	r24
     c16:	9f 93       	push	r25
     c18:	af 93       	push	r26
     c1a:	bf 93       	push	r27
     c1c:	ef 93       	push	r30
     c1e:	ff 93       	push	r31
	if (Mode == EEPROM_WRITE_FROM_PC_MODE)
     c20:	80 91 0e 01 	lds	r24, 0x010E	; 0x80010e <Mode>
     c24:	84 30       	cpi	r24, 0x04	; 4
     c26:	29 f4       	brne	.+10     	; 0xc32 <__vector_18+0x34>
	{
		ToEepromFromPC(USART_Receive());		
     c28:	0e 94 74 16 	call	0x2ce8	; 0x2ce8 <USART_Receive>
     c2c:	0e 94 2b 05 	call	0xa56	; 0xa56 <ToEepromFromPC>
     c30:	06 c0       	rjmp	.+12     	; 0xc3e <__vector_18+0x40>
	}
	
	else
	{													  // USART RX complete interrupt vector
		Processing_RecivedByte(USART_Receive());
     c32:	0e 94 74 16 	call	0x2ce8	; 0x2ce8 <USART_Receive>
     c36:	0e 94 96 16 	call	0x2d2c	; 0x2d2c <Processing_RecivedByte>
		USART_Flush();
     c3a:	0e 94 78 16 	call	0x2cf0	; 0x2cf0 <USART_Flush>
	}
}
     c3e:	ff 91       	pop	r31
     c40:	ef 91       	pop	r30
     c42:	bf 91       	pop	r27
     c44:	af 91       	pop	r26
     c46:	9f 91       	pop	r25
     c48:	8f 91       	pop	r24
     c4a:	7f 91       	pop	r23
     c4c:	6f 91       	pop	r22
     c4e:	5f 91       	pop	r21
     c50:	4f 91       	pop	r20
     c52:	3f 91       	pop	r19
     c54:	2f 91       	pop	r18
     c56:	0f 90       	pop	r0
     c58:	0f be       	out	0x3f, r0	; 63
     c5a:	0f 90       	pop	r0
     c5c:	1f 90       	pop	r1
     c5e:	18 95       	reti

00000c60 <__vector_14>:

ISR (TIMER1_OVF_vect)
{
     c60:	1f 92       	push	r1
     c62:	0f 92       	push	r0
     c64:	0f b6       	in	r0, 0x3f	; 63
     c66:	0f 92       	push	r0
     c68:	11 24       	eor	r1, r1
     c6a:	2f 93       	push	r18
     c6c:	3f 93       	push	r19
     c6e:	4f 93       	push	r20
     c70:	5f 93       	push	r21
     c72:	6f 93       	push	r22
     c74:	7f 93       	push	r23
     c76:	8f 93       	push	r24
     c78:	9f 93       	push	r25
     c7a:	af 93       	push	r26
     c7c:	bf 93       	push	r27
     c7e:	ef 93       	push	r30
     c80:	ff 93       	push	r31
	static uint8_t count;			
	count++;
     c82:	80 91 08 01 	lds	r24, 0x0108	; 0x800108 <count.1840>
     c86:	8f 5f       	subi	r24, 0xFF	; 255
     c88:	80 93 08 01 	sts	0x0108, r24	; 0x800108 <count.1840>
	if (count == 3)
     c8c:	83 30       	cpi	r24, 0x03	; 3
     c8e:	91 f4       	brne	.+36     	; 0xcb4 <__vector_14+0x54>
	{
		Mode = STNDART_PC_MODE;
     c90:	81 e0       	ldi	r24, 0x01	; 1
     c92:	80 93 0e 01 	sts	0x010E, r24	; 0x80010e <Mode>
		BLUE_LED_OFF;
     c96:	e5 e6       	ldi	r30, 0x65	; 101
     c98:	f0 e0       	ldi	r31, 0x00	; 0
     c9a:	80 81       	ld	r24, Z
     c9c:	8b 7f       	andi	r24, 0xFB	; 251
     c9e:	80 83       	st	Z, r24
		UART_RX_int_ENABLE();
     ca0:	0e 94 d4 16 	call	0x2da8	; 0x2da8 <UART_RX_int_ENABLE>
		Timer_1_int_DISABLE();
     ca4:	0e 94 66 16 	call	0x2ccc	; 0x2ccc <Timer_1_int_DISABLE>
		Buttons_ints_ENABLE();	
     ca8:	0e 94 72 05 	call	0xae4	; 0xae4 <Buttons_ints_ENABLE>
		Led_Indicator_OFF();
     cac:	0e 94 d4 06 	call	0xda8	; 0xda8 <Led_Indicator_OFF>
		count = 0;
     cb0:	10 92 08 01 	sts	0x0108, r1	; 0x800108 <count.1840>
	}
	
}
     cb4:	ff 91       	pop	r31
     cb6:	ef 91       	pop	r30
     cb8:	bf 91       	pop	r27
     cba:	af 91       	pop	r26
     cbc:	9f 91       	pop	r25
     cbe:	8f 91       	pop	r24
     cc0:	7f 91       	pop	r23
     cc2:	6f 91       	pop	r22
     cc4:	5f 91       	pop	r21
     cc6:	4f 91       	pop	r20
     cc8:	3f 91       	pop	r19
     cca:	2f 91       	pop	r18
     ccc:	0f 90       	pop	r0
     cce:	0f be       	out	0x3f, r0	; 63
     cd0:	0f 90       	pop	r0
     cd2:	1f 90       	pop	r1
     cd4:	18 95       	reti

00000cd6 <main>:

#include "KabelTest_Board_3.h"

int main(void)
{   
	LEDs_init();
     cd6:	0e 94 7e 06 	call	0xcfc	; 0xcfc <LEDs_init>
	LED_INDICATOR_init();	
     cda:	0e 94 8a 06 	call	0xd14	; 0xd14 <LED_INDICATOR_init>
	LED_INDICATOR_reset();	
     cde:	0e 94 99 06 	call	0xd32	; 0xd32 <LED_INDICATOR_reset>
	Led_Indicator_OFF();	
     ce2:	0e 94 d4 06 	call	0xda8	; 0xda8 <Led_Indicator_OFF>
	Buttons_int_init();
     ce6:	0e 94 60 05 	call	0xac0	; 0xac0 <Buttons_int_init>
	USART_Init( MYUBRR );	
     cea:	89 e1       	ldi	r24, 0x19	; 25
     cec:	90 e0       	ldi	r25, 0x00	; 0
     cee:	0e 94 6b 16 	call	0x2cd6	; 0x2cd6 <USART_Init>
	Mode = STNDART_PC_MODE;	
     cf2:	81 e0       	ldi	r24, 0x01	; 1
     cf4:	80 93 0e 01 	sts	0x010E, r24	; 0x80010e <Mode>
		
	sei();
     cf8:	78 94       	sei
     cfa:	ff cf       	rjmp	.-2      	; 0xcfa <main+0x24>

00000cfc <LEDs_init>:
 */ 
#include "LEDs.h"

void LEDs_init()
{
	DDRG |= 1 << 2;										   // Blue LED pin to output
     cfc:	e4 e6       	ldi	r30, 0x64	; 100
     cfe:	f0 e0       	ldi	r31, 0x00	; 0
     d00:	80 81       	ld	r24, Z
     d02:	84 60       	ori	r24, 0x04	; 4
     d04:	80 83       	st	Z, r24
	DDRG |= 1 << 3;										   // Red LED pin to output
     d06:	80 81       	ld	r24, Z
     d08:	88 60       	ori	r24, 0x08	; 8
     d0a:	80 83       	st	Z, r24
	DDRG |= 1 << 4;										   // Green LED pin to output
     d0c:	80 81       	ld	r24, Z
     d0e:	80 61       	ori	r24, 0x10	; 16
     d10:	80 83       	st	Z, r24
     d12:	08 95       	ret

00000d14 <LED_INDICATOR_init>:
}

void LED_INDICATOR_init()
{
	DDRD |= 1 << 3;										   // LED 7-SEGMENTS INDICATOR init		
     d14:	8b 9a       	sbi	0x11, 3	; 17
	DDRG |= 1 << 1;										   // LED 7-SEGMENTS INDICATOR counter pin init	
     d16:	e4 e6       	ldi	r30, 0x64	; 100
     d18:	f0 e0       	ldi	r31, 0x00	; 0
     d1a:	80 81       	ld	r24, Z
     d1c:	82 60       	ori	r24, 0x02	; 2
     d1e:	80 83       	st	Z, r24
	DDRG |=	1 << 0;						   				   // LED 7-SEGMENTS INDICATOR reset pin init		
     d20:	80 81       	ld	r24, Z
     d22:	81 60       	ori	r24, 0x01	; 1
     d24:	80 83       	st	Z, r24
	LED_INDICATOR_RESET_PIN_LOW;	
     d26:	e5 e6       	ldi	r30, 0x65	; 101
     d28:	f0 e0       	ldi	r31, 0x00	; 0
     d2a:	80 81       	ld	r24, Z
     d2c:	8e 7f       	andi	r24, 0xFE	; 254
     d2e:	80 83       	st	Z, r24
     d30:	08 95       	ret

00000d32 <LED_INDICATOR_reset>:
}

void LED_INDICATOR_reset() 
{
	LED_INDICATOR_RESET;
     d32:	e5 e6       	ldi	r30, 0x65	; 101
     d34:	f0 e0       	ldi	r31, 0x00	; 0
     d36:	80 81       	ld	r24, Z
     d38:	81 60       	ori	r24, 0x01	; 1
     d3a:	80 83       	st	Z, r24
	LED_INDICATOR_RESET_PIN_LOW;
     d3c:	80 81       	ld	r24, Z
     d3e:	8e 7f       	andi	r24, 0xFE	; 254
     d40:	80 83       	st	Z, r24
     d42:	08 95       	ret

00000d44 <Blink_blueLED>:
		_delay_ms(1000);
	}				
}

void Blink_blueLED()
{																						 // Blue LED blink three time
     d44:	93 e0       	ldi	r25, 0x03	; 3
	for (uint8_t i = 3; i > 0; i--)
	{
		BLUE_LED_ON;
     d46:	e5 e6       	ldi	r30, 0x65	; 101
     d48:	f0 e0       	ldi	r31, 0x00	; 0
     d4a:	80 81       	ld	r24, Z
     d4c:	84 60       	ori	r24, 0x04	; 4
     d4e:	80 83       	st	Z, r24
     d50:	2f ef       	ldi	r18, 0xFF	; 255
     d52:	30 e7       	ldi	r19, 0x70	; 112
     d54:	82 e0       	ldi	r24, 0x02	; 2
     d56:	21 50       	subi	r18, 0x01	; 1
     d58:	30 40       	sbci	r19, 0x00	; 0
     d5a:	80 40       	sbci	r24, 0x00	; 0
     d5c:	e1 f7       	brne	.-8      	; 0xd56 <Blink_blueLED+0x12>
     d5e:	00 c0       	rjmp	.+0      	; 0xd60 <Blink_blueLED+0x1c>
     d60:	00 00       	nop
		_delay_ms(100);
		BLUE_LED_OFF;
     d62:	80 81       	ld	r24, Z
     d64:	8b 7f       	andi	r24, 0xFB	; 251
     d66:	80 83       	st	Z, r24
     d68:	2f ef       	ldi	r18, 0xFF	; 255
     d6a:	30 e7       	ldi	r19, 0x70	; 112
     d6c:	82 e0       	ldi	r24, 0x02	; 2
     d6e:	21 50       	subi	r18, 0x01	; 1
     d70:	30 40       	sbci	r19, 0x00	; 0
     d72:	80 40       	sbci	r24, 0x00	; 0
     d74:	e1 f7       	brne	.-8      	; 0xd6e <Blink_blueLED+0x2a>
     d76:	00 c0       	rjmp	.+0      	; 0xd78 <Blink_blueLED+0x34>
     d78:	00 00       	nop
     d7a:	91 50       	subi	r25, 0x01	; 1
	}				
}

void Blink_blueLED()
{																						 // Blue LED blink three time
	for (uint8_t i = 3; i > 0; i--)
     d7c:	31 f7       	brne	.-52     	; 0xd4a <Blink_blueLED+0x6>
		BLUE_LED_ON;
		_delay_ms(100);
		BLUE_LED_OFF;
		_delay_ms(100);
	}
}
     d7e:	08 95       	ret

00000d80 <Toogle_blue_LED>:

void Toogle_blue_LED()
{
	if (bit_is_set(BLUE_LED_PIN_REGISTER, BLUE_LED_PIN))
     d80:	80 91 63 00 	lds	r24, 0x0063	; 0x800063 <__TEXT_REGION_LENGTH__+0x7e0063>
     d84:	82 ff       	sbrs	r24, 2
     d86:	06 c0       	rjmp	.+12     	; 0xd94 <Toogle_blue_LED+0x14>
	{
		BLUE_LED_OFF;
     d88:	e5 e6       	ldi	r30, 0x65	; 101
     d8a:	f0 e0       	ldi	r31, 0x00	; 0
     d8c:	80 81       	ld	r24, Z
     d8e:	8b 7f       	andi	r24, 0xFB	; 251
     d90:	80 83       	st	Z, r24
     d92:	08 95       	ret
	}
	else if(bit_is_clear(BLUE_LED_PIN_REGISTER, BLUE_LED_PIN))
     d94:	80 91 63 00 	lds	r24, 0x0063	; 0x800063 <__TEXT_REGION_LENGTH__+0x7e0063>
     d98:	82 fd       	sbrc	r24, 2
     d9a:	05 c0       	rjmp	.+10     	; 0xda6 <Toogle_blue_LED+0x26>
	{
		BLUE_LED_ON;	
     d9c:	e5 e6       	ldi	r30, 0x65	; 101
     d9e:	f0 e0       	ldi	r31, 0x00	; 0
     da0:	80 81       	ld	r24, Z
     da2:	84 60       	ori	r24, 0x04	; 4
     da4:	80 83       	st	Z, r24
     da6:	08 95       	ret

00000da8 <Led_Indicator_OFF>:
	}
}

void Led_Indicator_OFF()
{
	LED_INDICATOR_OFF;
     da8:	93 98       	cbi	0x12, 3	; 18
	LED_INDICATOR_COUNTER_PIN_TO_INPUT;
     daa:	e4 e6       	ldi	r30, 0x64	; 100
     dac:	f0 e0       	ldi	r31, 0x00	; 0
     dae:	80 81       	ld	r24, Z
     db0:	8d 7f       	andi	r24, 0xFD	; 253
     db2:	80 83       	st	Z, r24
	LED_INDICATOR_RESET_PIN_TO_INPUT;
     db4:	80 81       	ld	r24, Z
     db6:	8e 7f       	andi	r24, 0xFE	; 254
     db8:	80 83       	st	Z, r24
	
	LED_INDICATOR_COUNTER_PIN_HIGH;
     dba:	e5 e6       	ldi	r30, 0x65	; 101
     dbc:	f0 e0       	ldi	r31, 0x00	; 0
     dbe:	80 81       	ld	r24, Z
     dc0:	82 60       	ori	r24, 0x02	; 2
     dc2:	80 83       	st	Z, r24
	LED_INDICATOR_RESET;
     dc4:	80 81       	ld	r24, Z
     dc6:	81 60       	ori	r24, 0x01	; 1
     dc8:	80 83       	st	Z, r24
     dca:	08 95       	ret

00000dcc <Led_Indicator_ON>:
}

void Led_Indicator_ON()
{
	LED_INDICATOR_init();
     dcc:	0e 94 8a 06 	call	0xd14	; 0xd14 <LED_INDICATOR_init>
	LED_INDICATOR_COUNTER_PIN_LOW;
     dd0:	e5 e6       	ldi	r30, 0x65	; 101
     dd2:	f0 e0       	ldi	r31, 0x00	; 0
     dd4:	80 81       	ld	r24, Z
     dd6:	8d 7f       	andi	r24, 0xFD	; 253
     dd8:	80 83       	st	Z, r24
	LED_INDICATOR_ON;
     dda:	93 9a       	sbi	0x12, 3	; 18
     ddc:	08 95       	ret

00000dde <LED_INDICATOR_CELL_ADDRES>:
}



void LED_INDICATOR_CELL_ADDRES(uint8_t arg_cell)
{																						 // LED 7-SEGMENTS INDICATOR show number cell
     dde:	cf 93       	push	r28
     de0:	c8 2f       	mov	r28, r24
	static char cell;	
		
	if (bit_is_clear(LED_INDICATOR_PIN_REGISTER, LED_INDICATOR_PIN))					 // If LED 7-SEGMENTS INDICATOR is off
     de2:	83 99       	sbic	0x10, 3	; 16
     de4:	0c c0       	rjmp	.+24     	; 0xdfe <LED_INDICATOR_CELL_ADDRES+0x20>
	{
		if(Mode == STNDART_PC_MODE)
     de6:	80 91 0e 01 	lds	r24, 0x010E	; 0x80010e <Mode>
     dea:	81 30       	cpi	r24, 0x01	; 1
     dec:	19 f4       	brne	.+6      	; 0xdf4 <LED_INDICATOR_CELL_ADDRES+0x16>
			Mode = EEPROM_READ_MODE;
     dee:	82 e0       	ldi	r24, 0x02	; 2
     df0:	80 93 0e 01 	sts	0x010E, r24	; 0x80010e <Mode>
		
		Led_Indicator_ON();
     df4:	0e 94 e6 06 	call	0xdcc	; 0xdcc <Led_Indicator_ON>
		cell = -1;
     df8:	8f ef       	ldi	r24, 0xFF	; 255
     dfa:	80 93 09 01 	sts	0x0109, r24	; 0x800109 <cell.1813>
	}
	
	if (arg_cell == INCREMENT_EEPOM_CELL)
     dfe:	ca 30       	cpi	r28, 0x0A	; 10
     e00:	19 f5       	brne	.+70     	; 0xe48 <LED_INDICATOR_CELL_ADDRES+0x6a>
	{
		cell++;
     e02:	80 91 09 01 	lds	r24, 0x0109	; 0x800109 <cell.1813>
     e06:	8f 5f       	subi	r24, 0xFF	; 255
     e08:	80 93 09 01 	sts	0x0109, r24	; 0x800109 <cell.1813>
		
		if(Mode == STNDART_PC_MODE)
     e0c:	90 91 0e 01 	lds	r25, 0x010E	; 0x80010e <Mode>
     e10:	91 30       	cpi	r25, 0x01	; 1
     e12:	19 f4       	brne	.+6      	; 0xe1a <LED_INDICATOR_CELL_ADDRES+0x3c>
			Mode = EEPROM_READ_MODE;
     e14:	92 e0       	ldi	r25, 0x02	; 2
     e16:	90 93 0e 01 	sts	0x010E, r25	; 0x80010e <Mode>
		
		if (cell == 8)																	 // 0 - 7 cells can write to 2 kByte Eeprom in ATMega64a
     e1a:	88 30       	cpi	r24, 0x08	; 8
     e1c:	f1 f4       	brne	.+60     	; 0xe5a <LED_INDICATOR_CELL_ADDRES+0x7c>
		{
			cell = 0;
     e1e:	10 92 09 01 	sts	0x0109, r1	; 0x800109 <cell.1813>
			if(Mode == EEPROM_READ_MODE)
     e22:	80 91 0e 01 	lds	r24, 0x010E	; 0x80010e <Mode>
     e26:	82 30       	cpi	r24, 0x02	; 2
     e28:	21 f5       	brne	.+72     	; 0xe72 <LED_INDICATOR_CELL_ADDRES+0x94>
			{
				Mode = STNDART_PC_MODE;
     e2a:	81 e0       	ldi	r24, 0x01	; 1
     e2c:	80 93 0e 01 	sts	0x010E, r24	; 0x80010e <Mode>
				Led_Indicator_OFF();
     e30:	0e 94 d4 06 	call	0xda8	; 0xda8 <Led_Indicator_OFF>
     e34:	2f ef       	ldi	r18, 0xFF	; 255
     e36:	84 e3       	ldi	r24, 0x34	; 52
     e38:	9c e0       	ldi	r25, 0x0C	; 12
     e3a:	21 50       	subi	r18, 0x01	; 1
     e3c:	80 40       	sbci	r24, 0x00	; 0
     e3e:	90 40       	sbci	r25, 0x00	; 0
     e40:	e1 f7       	brne	.-8      	; 0xe3a <LED_INDICATOR_CELL_ADDRES+0x5c>
     e42:	00 c0       	rjmp	.+0      	; 0xe44 <LED_INDICATOR_CELL_ADDRES+0x66>
     e44:	00 00       	nop
     e46:	09 c0       	rjmp	.+18     	; 0xe5a <LED_INDICATOR_CELL_ADDRES+0x7c>
		}
	}
			
	else
	{
		if(Mode == STNDART_PC_MODE)
     e48:	80 91 0e 01 	lds	r24, 0x010E	; 0x80010e <Mode>
     e4c:	81 30       	cpi	r24, 0x01	; 1
     e4e:	19 f4       	brne	.+6      	; 0xe56 <LED_INDICATOR_CELL_ADDRES+0x78>
			Mode = EEPROM_READ_MODE;
     e50:	82 e0       	ldi	r24, 0x02	; 2
     e52:	80 93 0e 01 	sts	0x010E, r24	; 0x80010e <Mode>
		
		cell = arg_cell;
     e56:	c0 93 09 01 	sts	0x0109, r28	; 0x800109 <cell.1813>
	}
	
	switch(cell)
     e5a:	c0 91 09 01 	lds	r28, 0x0109	; 0x800109 <cell.1813>
     e5e:	8c 2f       	mov	r24, r28
     e60:	90 e0       	ldi	r25, 0x00	; 0
     e62:	88 30       	cpi	r24, 0x08	; 8
     e64:	91 05       	cpc	r25, r1
     e66:	e0 f5       	brcc	.+120    	; 0xee0 <LED_INDICATOR_CELL_ADDRES+0x102>
     e68:	fc 01       	movw	r30, r24
     e6a:	ea 5b       	subi	r30, 0xBA	; 186
     e6c:	ff 4f       	sbci	r31, 0xFF	; 255
     e6e:	0c 94 d8 16 	jmp	0x2db0	; 0x2db0 <__tablejump2__>
	{
		case(0):
		cell_addres = EEPOM_CELL_ADDRES_0;
     e72:	10 92 0d 01 	sts	0x010D, r1	; 0x80010d <cell_addres+0x1>
     e76:	10 92 0c 01 	sts	0x010C, r1	; 0x80010c <cell_addres>
		break;
     e7a:	c0 e0       	ldi	r28, 0x00	; 0
     e7c:	85 c0       	rjmp	.+266    	; 0xf88 <LED_INDICATOR_CELL_ADDRES+0x1aa>
		
		case(1):
		cell_addres = EEPOM_CELL_ADDRES_1;
     e7e:	84 ee       	ldi	r24, 0xE4	; 228
     e80:	90 e0       	ldi	r25, 0x00	; 0
     e82:	90 93 0d 01 	sts	0x010D, r25	; 0x80010d <cell_addres+0x1>
     e86:	80 93 0c 01 	sts	0x010C, r24	; 0x80010c <cell_addres>
		break;
     e8a:	7e c0       	rjmp	.+252    	; 0xf88 <LED_INDICATOR_CELL_ADDRES+0x1aa>
		
		case(2):
		cell_addres = EEPOM_CELL_ADDRES_2;
     e8c:	88 ec       	ldi	r24, 0xC8	; 200
     e8e:	91 e0       	ldi	r25, 0x01	; 1
     e90:	90 93 0d 01 	sts	0x010D, r25	; 0x80010d <cell_addres+0x1>
     e94:	80 93 0c 01 	sts	0x010C, r24	; 0x80010c <cell_addres>
		break;
     e98:	77 c0       	rjmp	.+238    	; 0xf88 <LED_INDICATOR_CELL_ADDRES+0x1aa>
		
		case(3):
		cell_addres = EEPOM_CELL_ADDRES_3;
     e9a:	8c ea       	ldi	r24, 0xAC	; 172
     e9c:	92 e0       	ldi	r25, 0x02	; 2
     e9e:	90 93 0d 01 	sts	0x010D, r25	; 0x80010d <cell_addres+0x1>
     ea2:	80 93 0c 01 	sts	0x010C, r24	; 0x80010c <cell_addres>
		break;
     ea6:	70 c0       	rjmp	.+224    	; 0xf88 <LED_INDICATOR_CELL_ADDRES+0x1aa>
		
		case(4):
		cell_addres = EEPOM_CELL_ADDRES_4;
     ea8:	80 e9       	ldi	r24, 0x90	; 144
     eaa:	93 e0       	ldi	r25, 0x03	; 3
     eac:	90 93 0d 01 	sts	0x010D, r25	; 0x80010d <cell_addres+0x1>
     eb0:	80 93 0c 01 	sts	0x010C, r24	; 0x80010c <cell_addres>
		break;
     eb4:	69 c0       	rjmp	.+210    	; 0xf88 <LED_INDICATOR_CELL_ADDRES+0x1aa>
		
		case(5):
		cell_addres = EEPOM_CELL_ADDRES_5;
     eb6:	84 e7       	ldi	r24, 0x74	; 116
     eb8:	94 e0       	ldi	r25, 0x04	; 4
     eba:	90 93 0d 01 	sts	0x010D, r25	; 0x80010d <cell_addres+0x1>
     ebe:	80 93 0c 01 	sts	0x010C, r24	; 0x80010c <cell_addres>
		break;
     ec2:	62 c0       	rjmp	.+196    	; 0xf88 <LED_INDICATOR_CELL_ADDRES+0x1aa>
		
		case(6):
		cell_addres = EEPOM_CELL_ADDRES_6;
     ec4:	88 e5       	ldi	r24, 0x58	; 88
     ec6:	95 e0       	ldi	r25, 0x05	; 5
     ec8:	90 93 0d 01 	sts	0x010D, r25	; 0x80010d <cell_addres+0x1>
     ecc:	80 93 0c 01 	sts	0x010C, r24	; 0x80010c <cell_addres>
		break;
     ed0:	5b c0       	rjmp	.+182    	; 0xf88 <LED_INDICATOR_CELL_ADDRES+0x1aa>
		
		case(7):
		cell_addres = EEPOM_CELL_ADDRES_7;
     ed2:	8c e3       	ldi	r24, 0x3C	; 60
     ed4:	96 e0       	ldi	r25, 0x06	; 6
     ed6:	90 93 0d 01 	sts	0x010D, r25	; 0x80010d <cell_addres+0x1>
     eda:	80 93 0c 01 	sts	0x010C, r24	; 0x80010c <cell_addres>
		break;
     ede:	54 c0       	rjmp	.+168    	; 0xf88 <LED_INDICATOR_CELL_ADDRES+0x1aa>
	}
	LED_INDICATOR_reset();
     ee0:	0e 94 99 06 	call	0xd32	; 0xd32 <LED_INDICATOR_reset>
	for (uint8_t i = (cell + 1); i != 0; i--)
     ee4:	91 e0       	ldi	r25, 0x01	; 1
     ee6:	9c 0f       	add	r25, r28
     ee8:	51 f0       	breq	.+20     	; 0xefe <LED_INDICATOR_CELL_ADDRES+0x120>
	{																					 // Show eeprom cell with increase 1, (from 1 to 8 - eeprom addres from 0 to 0x063C)
		LED_INDICATOR_COUNTER_PIN_HIGH;
     eea:	e5 e6       	ldi	r30, 0x65	; 101
     eec:	f0 e0       	ldi	r31, 0x00	; 0
     eee:	80 81       	ld	r24, Z
     ef0:	82 60       	ori	r24, 0x02	; 2
     ef2:	80 83       	st	Z, r24
		LED_INDICATOR_COUNTER_PIN_LOW;
     ef4:	80 81       	ld	r24, Z
     ef6:	8d 7f       	andi	r24, 0xFD	; 253
     ef8:	80 83       	st	Z, r24
		case(7):
		cell_addres = EEPOM_CELL_ADDRES_7;
		break;
	}
	LED_INDICATOR_reset();
	for (uint8_t i = (cell + 1); i != 0; i--)
     efa:	91 50       	subi	r25, 0x01	; 1
     efc:	c1 f7       	brne	.-16     	; 0xeee <LED_INDICATOR_CELL_ADDRES+0x110>
     efe:	2f ef       	ldi	r18, 0xFF	; 255
     f00:	82 e5       	ldi	r24, 0x52	; 82
     f02:	97 e0       	ldi	r25, 0x07	; 7
     f04:	21 50       	subi	r18, 0x01	; 1
     f06:	80 40       	sbci	r24, 0x00	; 0
     f08:	90 40       	sbci	r25, 0x00	; 0
     f0a:	e1 f7       	brne	.-8      	; 0xf04 <LED_INDICATOR_CELL_ADDRES+0x126>
     f0c:	00 c0       	rjmp	.+0      	; 0xf0e <LED_INDICATOR_CELL_ADDRES+0x130>
     f0e:	00 00       	nop
		LED_INDICATOR_COUNTER_PIN_HIGH;
		LED_INDICATOR_COUNTER_PIN_LOW;
	}
	_delay_ms(300);	
	
	if(bit_is_clear(LED_INDICATOR_PIN_REGISTER, LEFT_BUTTON_PIN))
     f10:	81 99       	sbic	0x10, 1	; 16
     f12:	3f c0       	rjmp	.+126    	; 0xf92 <LED_INDICATOR_CELL_ADDRES+0x1b4>
     f14:	2f ef       	ldi	r18, 0xFF	; 255
     f16:	89 e6       	ldi	r24, 0x69	; 105
     f18:	98 e1       	ldi	r25, 0x18	; 24
     f1a:	21 50       	subi	r18, 0x01	; 1
     f1c:	80 40       	sbci	r24, 0x00	; 0
     f1e:	90 40       	sbci	r25, 0x00	; 0
     f20:	e1 f7       	brne	.-8      	; 0xf1a <LED_INDICATOR_CELL_ADDRES+0x13c>
     f22:	00 c0       	rjmp	.+0      	; 0xf24 <LED_INDICATOR_CELL_ADDRES+0x146>
     f24:	00 00       	nop
	{
		_delay_ms(1000);
		if(bit_is_clear(LED_INDICATOR_PIN_REGISTER, LEFT_BUTTON_PIN))
     f26:	81 99       	sbic	0x10, 1	; 16
     f28:	21 c0       	rjmp	.+66     	; 0xf6c <LED_INDICATOR_CELL_ADDRES+0x18e>
		{
			if(Mode == EEPROM_READ_MODE)
     f2a:	80 91 0e 01 	lds	r24, 0x010E	; 0x80010e <Mode>
     f2e:	82 30       	cpi	r24, 0x02	; 2
     f30:	79 f4       	brne	.+30     	; 0xf50 <LED_INDICATOR_CELL_ADDRES+0x172>
			{
				Mode = EEPROM_WRITE_MODE;
     f32:	83 e0       	ldi	r24, 0x03	; 3
     f34:	80 93 0e 01 	sts	0x010E, r24	; 0x80010e <Mode>
				Blink_blueLED();
     f38:	0e 94 a2 06 	call	0xd44	; 0xd44 <Blink_blueLED>
				BLUE_LED_ON;
     f3c:	e5 e6       	ldi	r30, 0x65	; 101
     f3e:	f0 e0       	ldi	r31, 0x00	; 0
     f40:	80 81       	ld	r24, Z
     f42:	84 60       	ori	r24, 0x04	; 4
     f44:	80 83       	st	Z, r24
				Timer_1_int_LONG();
     f46:	0e 94 50 16 	call	0x2ca0	; 0x2ca0 <Timer_1_int_LONG>
				UART_RX_int_DISABLE();
     f4a:	0e 94 d2 16 	call	0x2da4	; 0x2da4 <UART_RX_int_DISABLE>
     f4e:	0e c0       	rjmp	.+28     	; 0xf6c <LED_INDICATOR_CELL_ADDRES+0x18e>
			}
			else if (Mode == EEPROM_WRITE_MODE)
     f50:	83 30       	cpi	r24, 0x03	; 3
     f52:	61 f4       	brne	.+24     	; 0xf6c <LED_INDICATOR_CELL_ADDRES+0x18e>
			{
				Mode = EEPROM_READ_MODE;
     f54:	82 e0       	ldi	r24, 0x02	; 2
     f56:	80 93 0e 01 	sts	0x010E, r24	; 0x80010e <Mode>
				Blink_blueLED();
     f5a:	0e 94 a2 06 	call	0xd44	; 0xd44 <Blink_blueLED>
				BLUE_LED_OFF;
     f5e:	e5 e6       	ldi	r30, 0x65	; 101
     f60:	f0 e0       	ldi	r31, 0x00	; 0
     f62:	80 81       	ld	r24, Z
     f64:	8b 7f       	andi	r24, 0xFB	; 251
     f66:	80 83       	st	Z, r24
				UART_RX_int_ENABLE();
     f68:	0e 94 d4 16 	call	0x2da8	; 0x2da8 <UART_RX_int_ENABLE>
			}
		}
		while(bit_is_clear(LED_INDICATOR_PIN_REGISTER, LEFT_BUTTON_PIN) || bit_is_clear(LED_INDICATOR_PIN_REGISTER, RIGHT_BUTTON_PIN));		
     f6c:	81 9b       	sbis	0x10, 1	; 16
     f6e:	fe cf       	rjmp	.-4      	; 0xf6c <LED_INDICATOR_CELL_ADDRES+0x18e>
     f70:	82 9b       	sbis	0x10, 2	; 16
     f72:	fc cf       	rjmp	.-8      	; 0xf6c <LED_INDICATOR_CELL_ADDRES+0x18e>
     f74:	2f ef       	ldi	r18, 0xFF	; 255
     f76:	89 e6       	ldi	r24, 0x69	; 105
     f78:	98 e1       	ldi	r25, 0x18	; 24
     f7a:	21 50       	subi	r18, 0x01	; 1
     f7c:	80 40       	sbci	r24, 0x00	; 0
     f7e:	90 40       	sbci	r25, 0x00	; 0
     f80:	e1 f7       	brne	.-8      	; 0xf7a <LED_INDICATOR_CELL_ADDRES+0x19c>
     f82:	00 c0       	rjmp	.+0      	; 0xf84 <LED_INDICATOR_CELL_ADDRES+0x1a6>
     f84:	00 00       	nop
		_delay_ms(1000);
	}				
}
     f86:	05 c0       	rjmp	.+10     	; 0xf92 <LED_INDICATOR_CELL_ADDRES+0x1b4>
		
		case(7):
		cell_addres = EEPOM_CELL_ADDRES_7;
		break;
	}
	LED_INDICATOR_reset();
     f88:	0e 94 99 06 	call	0xd32	; 0xd32 <LED_INDICATOR_reset>
	for (uint8_t i = (cell + 1); i != 0; i--)
     f8c:	91 e0       	ldi	r25, 0x01	; 1
     f8e:	9c 0f       	add	r25, r28
     f90:	ac cf       	rjmp	.-168    	; 0xeea <LED_INDICATOR_CELL_ADDRES+0x10c>
			}
		}
		while(bit_is_clear(LED_INDICATOR_PIN_REGISTER, LEFT_BUTTON_PIN) || bit_is_clear(LED_INDICATOR_PIN_REGISTER, RIGHT_BUTTON_PIN));		
		_delay_ms(1000);
	}				
}
     f92:	cf 91       	pop	r28
     f94:	08 95       	ret

00000f96 <pull_PINF>:
static uint16_t Eeprom_addres_process;

//************************************** Опрос PINF-3 ************************************** PINF
void pull_PINF()
{	
	if (PINF & (1 << 3))
     f96:	03 9b       	sbis	0x00, 3	; 0
     f98:	05 c0       	rjmp	.+10     	; 0xfa4 <pull_PINF+0xe>
	{
		while ( !( UCSR0A & (1<<UDRE0)) );
     f9a:	5d 9b       	sbis	0x0b, 5	; 11
     f9c:	fe cf       	rjmp	.-4      	; 0xf9a <pull_PINF+0x4>
		UDR0 = '1';
     f9e:	81 e3       	ldi	r24, 0x31	; 49
     fa0:	8c b9       	out	0x0c, r24	; 12
     fa2:	02 c0       	rjmp	.+4      	; 0xfa8 <pull_PINF+0x12>
	}
	else USART_Transmit_0();
     fa4:	0e 94 87 16 	call	0x2d0e	; 0x2d0e <USART_Transmit_0>
	//************************************** Опрос PINF-2
	if (PINF & (1 << 2))
     fa8:	02 9b       	sbis	0x00, 2	; 0
     faa:	05 c0       	rjmp	.+10     	; 0xfb6 <pull_PINF+0x20>
	{
		while ( !( UCSR0A & (1<<UDRE0)) );
     fac:	5d 9b       	sbis	0x0b, 5	; 11
     fae:	fe cf       	rjmp	.-4      	; 0xfac <pull_PINF+0x16>
		UDR0 = '1';
     fb0:	81 e3       	ldi	r24, 0x31	; 49
     fb2:	8c b9       	out	0x0c, r24	; 12
     fb4:	02 c0       	rjmp	.+4      	; 0xfba <pull_PINF+0x24>
	}
	else USART_Transmit_0();
     fb6:	0e 94 87 16 	call	0x2d0e	; 0x2d0e <USART_Transmit_0>
	//************************************** Опрос PINF-1
	if (PINF & (1 << 1))
     fba:	01 9b       	sbis	0x00, 1	; 0
     fbc:	05 c0       	rjmp	.+10     	; 0xfc8 <pull_PINF+0x32>
	{
		while ( !( UCSR0A & (1<<UDRE0)) );
     fbe:	5d 9b       	sbis	0x0b, 5	; 11
     fc0:	fe cf       	rjmp	.-4      	; 0xfbe <pull_PINF+0x28>
		UDR0 = '1';
     fc2:	81 e3       	ldi	r24, 0x31	; 49
     fc4:	8c b9       	out	0x0c, r24	; 12
     fc6:	02 c0       	rjmp	.+4      	; 0xfcc <pull_PINF+0x36>
	}
	else USART_Transmit_0();
     fc8:	0e 94 87 16 	call	0x2d0e	; 0x2d0e <USART_Transmit_0>
	//************************************** Опрос PINF-0
	if (PINF & (1 << 0))
     fcc:	00 9b       	sbis	0x00, 0	; 0
     fce:	05 c0       	rjmp	.+10     	; 0xfda <pull_PINF+0x44>
	{
		while ( !( UCSR0A & (1<<UDRE0)) );
     fd0:	5d 9b       	sbis	0x0b, 5	; 11
     fd2:	fe cf       	rjmp	.-4      	; 0xfd0 <pull_PINF+0x3a>
		UDR0 = '1';
     fd4:	81 e3       	ldi	r24, 0x31	; 49
     fd6:	8c b9       	out	0x0c, r24	; 12
     fd8:	08 95       	ret
	}
	else USART_Transmit_0();
     fda:	0e 94 87 16 	call	0x2d0e	; 0x2d0e <USART_Transmit_0>
     fde:	08 95       	ret

00000fe0 <pull_PINE>:
}

//************************************** Опрос PINE-2 ************************************** PINE
void pull_PINE()
{
	if (PINE & (1 << 2))
     fe0:	0a 9b       	sbis	0x01, 2	; 1
     fe2:	05 c0       	rjmp	.+10     	; 0xfee <pull_PINE+0xe>
	{
		while ( !( UCSR0A & (1<<UDRE0)) );
     fe4:	5d 9b       	sbis	0x0b, 5	; 11
     fe6:	fe cf       	rjmp	.-4      	; 0xfe4 <pull_PINE+0x4>
		UDR0 = '1';
     fe8:	81 e3       	ldi	r24, 0x31	; 49
     fea:	8c b9       	out	0x0c, r24	; 12
     fec:	02 c0       	rjmp	.+4      	; 0xff2 <pull_PINE+0x12>
	}
	else USART_Transmit_0();
     fee:	0e 94 87 16 	call	0x2d0e	; 0x2d0e <USART_Transmit_0>
	//************************************** Опрос PINE-3
	if (PINE & (1 << 3))
     ff2:	0b 9b       	sbis	0x01, 3	; 1
     ff4:	05 c0       	rjmp	.+10     	; 0x1000 <pull_PINE+0x20>
	{
		while ( !( UCSR0A & (1<<UDRE0)) );
     ff6:	5d 9b       	sbis	0x0b, 5	; 11
     ff8:	fe cf       	rjmp	.-4      	; 0xff6 <pull_PINE+0x16>
		UDR0 = '1';
     ffa:	81 e3       	ldi	r24, 0x31	; 49
     ffc:	8c b9       	out	0x0c, r24	; 12
     ffe:	02 c0       	rjmp	.+4      	; 0x1004 <pull_PINE+0x24>
	}
	else USART_Transmit_0();
    1000:	0e 94 87 16 	call	0x2d0e	; 0x2d0e <USART_Transmit_0>
	//************************************** Опрос PINE-4
	if (PINE & (1 << 4))
    1004:	0c 9b       	sbis	0x01, 4	; 1
    1006:	05 c0       	rjmp	.+10     	; 0x1012 <pull_PINE+0x32>
	{
		while ( !( UCSR0A & (1<<UDRE0)) );
    1008:	5d 9b       	sbis	0x0b, 5	; 11
    100a:	fe cf       	rjmp	.-4      	; 0x1008 <pull_PINE+0x28>
		UDR0 = '1';
    100c:	81 e3       	ldi	r24, 0x31	; 49
    100e:	8c b9       	out	0x0c, r24	; 12
    1010:	02 c0       	rjmp	.+4      	; 0x1016 <pull_PINE+0x36>
	}
	else USART_Transmit_0();
    1012:	0e 94 87 16 	call	0x2d0e	; 0x2d0e <USART_Transmit_0>
	//************************************** Опрос PINE-5
	if (PINE & (1 << 5))
    1016:	0d 9b       	sbis	0x01, 5	; 1
    1018:	05 c0       	rjmp	.+10     	; 0x1024 <pull_PINE+0x44>
	{
		while ( !( UCSR0A & (1<<UDRE0)) );
    101a:	5d 9b       	sbis	0x0b, 5	; 11
    101c:	fe cf       	rjmp	.-4      	; 0x101a <pull_PINE+0x3a>
		UDR0 = '1';
    101e:	81 e3       	ldi	r24, 0x31	; 49
    1020:	8c b9       	out	0x0c, r24	; 12
    1022:	02 c0       	rjmp	.+4      	; 0x1028 <pull_PINE+0x48>
	}
	else USART_Transmit_0();
    1024:	0e 94 87 16 	call	0x2d0e	; 0x2d0e <USART_Transmit_0>
	//************************************** Опрос PINE-6
	if (PINE & (1 << 6))
    1028:	0e 9b       	sbis	0x01, 6	; 1
    102a:	05 c0       	rjmp	.+10     	; 0x1036 <pull_PINE+0x56>
	{
		while ( !( UCSR0A & (1<<UDRE0)) );
    102c:	5d 9b       	sbis	0x0b, 5	; 11
    102e:	fe cf       	rjmp	.-4      	; 0x102c <pull_PINE+0x4c>
		UDR0 = '1';
    1030:	81 e3       	ldi	r24, 0x31	; 49
    1032:	8c b9       	out	0x0c, r24	; 12
    1034:	02 c0       	rjmp	.+4      	; 0x103a <pull_PINE+0x5a>
	}
	else USART_Transmit_0();
    1036:	0e 94 87 16 	call	0x2d0e	; 0x2d0e <USART_Transmit_0>
	//************************************** Опрос PINE-7
	if (PINE & (1 << 7))
    103a:	0f 9b       	sbis	0x01, 7	; 1
    103c:	05 c0       	rjmp	.+10     	; 0x1048 <pull_PINE+0x68>
	{
		while ( !( UCSR0A & (1<<UDRE0)) );
    103e:	5d 9b       	sbis	0x0b, 5	; 11
    1040:	fe cf       	rjmp	.-4      	; 0x103e <pull_PINE+0x5e>
		UDR0 = '1';
    1042:	81 e3       	ldi	r24, 0x31	; 49
    1044:	8c b9       	out	0x0c, r24	; 12
    1046:	08 95       	ret
	}
	else USART_Transmit_0();
    1048:	0e 94 87 16 	call	0x2d0e	; 0x2d0e <USART_Transmit_0>
    104c:	08 95       	ret

0000104e <pull_PINB>:
}

//************************************** Опрос PINB-0 ************************************** PINB
void pull_PINB()
{
	if (PINB & (1 << 0))
    104e:	b0 9b       	sbis	0x16, 0	; 22
    1050:	05 c0       	rjmp	.+10     	; 0x105c <pull_PINB+0xe>
	{
		while ( !( UCSR0A & (1<<UDRE0)) );
    1052:	5d 9b       	sbis	0x0b, 5	; 11
    1054:	fe cf       	rjmp	.-4      	; 0x1052 <pull_PINB+0x4>
		UDR0 = '1';
    1056:	81 e3       	ldi	r24, 0x31	; 49
    1058:	8c b9       	out	0x0c, r24	; 12
    105a:	02 c0       	rjmp	.+4      	; 0x1060 <pull_PINB+0x12>
	}
	else USART_Transmit_0();
    105c:	0e 94 87 16 	call	0x2d0e	; 0x2d0e <USART_Transmit_0>
	//************************************** Опрос PINB-1
	if (PINB & (1 << 1))
    1060:	b1 9b       	sbis	0x16, 1	; 22
    1062:	05 c0       	rjmp	.+10     	; 0x106e <pull_PINB+0x20>
	{
		while ( !( UCSR0A & (1<<UDRE0)) );
    1064:	5d 9b       	sbis	0x0b, 5	; 11
    1066:	fe cf       	rjmp	.-4      	; 0x1064 <pull_PINB+0x16>
		UDR0 = '1';
    1068:	81 e3       	ldi	r24, 0x31	; 49
    106a:	8c b9       	out	0x0c, r24	; 12
    106c:	02 c0       	rjmp	.+4      	; 0x1072 <pull_PINB+0x24>
	}
	else USART_Transmit_0();
    106e:	0e 94 87 16 	call	0x2d0e	; 0x2d0e <USART_Transmit_0>
	//************************************** Опрос PINB-2
	if (PINB & (1 << 2))
    1072:	b2 9b       	sbis	0x16, 2	; 22
    1074:	05 c0       	rjmp	.+10     	; 0x1080 <pull_PINB+0x32>
	{
		while ( !( UCSR0A & (1<<UDRE0)) );
    1076:	5d 9b       	sbis	0x0b, 5	; 11
    1078:	fe cf       	rjmp	.-4      	; 0x1076 <pull_PINB+0x28>
		UDR0 = '1';
    107a:	81 e3       	ldi	r24, 0x31	; 49
    107c:	8c b9       	out	0x0c, r24	; 12
    107e:	02 c0       	rjmp	.+4      	; 0x1084 <pull_PINB+0x36>
	}
	else USART_Transmit_0();
    1080:	0e 94 87 16 	call	0x2d0e	; 0x2d0e <USART_Transmit_0>
	//************************************** Опрос PINB-3
	if (PINB & (1 << 3))
    1084:	b3 9b       	sbis	0x16, 3	; 22
    1086:	05 c0       	rjmp	.+10     	; 0x1092 <pull_PINB+0x44>
	{
		while ( !( UCSR0A & (1<<UDRE0)) );
    1088:	5d 9b       	sbis	0x0b, 5	; 11
    108a:	fe cf       	rjmp	.-4      	; 0x1088 <pull_PINB+0x3a>
		UDR0 = '1';
    108c:	81 e3       	ldi	r24, 0x31	; 49
    108e:	8c b9       	out	0x0c, r24	; 12
    1090:	02 c0       	rjmp	.+4      	; 0x1096 <pull_PINB+0x48>
	}
	else USART_Transmit_0();
    1092:	0e 94 87 16 	call	0x2d0e	; 0x2d0e <USART_Transmit_0>
	//************************************** Опрос PINB-4
	if (PINB & (1 << 4))
    1096:	b4 9b       	sbis	0x16, 4	; 22
    1098:	05 c0       	rjmp	.+10     	; 0x10a4 <pull_PINB+0x56>
	{
		while ( !( UCSR0A & (1<<UDRE0)) );
    109a:	5d 9b       	sbis	0x0b, 5	; 11
    109c:	fe cf       	rjmp	.-4      	; 0x109a <pull_PINB+0x4c>
		UDR0 = '1';
    109e:	81 e3       	ldi	r24, 0x31	; 49
    10a0:	8c b9       	out	0x0c, r24	; 12
    10a2:	02 c0       	rjmp	.+4      	; 0x10a8 <pull_PINB+0x5a>
	}
	else USART_Transmit_0();
    10a4:	0e 94 87 16 	call	0x2d0e	; 0x2d0e <USART_Transmit_0>
	//************************************** Опрос PINB-5
	if (PINB & (1 << 5))
    10a8:	b5 9b       	sbis	0x16, 5	; 22
    10aa:	05 c0       	rjmp	.+10     	; 0x10b6 <pull_PINB+0x68>
	{
		while ( !( UCSR0A & (1<<UDRE0)) );
    10ac:	5d 9b       	sbis	0x0b, 5	; 11
    10ae:	fe cf       	rjmp	.-4      	; 0x10ac <pull_PINB+0x5e>
		UDR0 = '1';
    10b0:	81 e3       	ldi	r24, 0x31	; 49
    10b2:	8c b9       	out	0x0c, r24	; 12
    10b4:	02 c0       	rjmp	.+4      	; 0x10ba <pull_PINB+0x6c>
	}
	else USART_Transmit_0();
    10b6:	0e 94 87 16 	call	0x2d0e	; 0x2d0e <USART_Transmit_0>
	//************************************** Опрос PINB-6
	if (PINB & (1 << 6))
    10ba:	b6 9b       	sbis	0x16, 6	; 22
    10bc:	05 c0       	rjmp	.+10     	; 0x10c8 <pull_PINB+0x7a>
	{
		while ( !( UCSR0A & (1<<UDRE0)) );
    10be:	5d 9b       	sbis	0x0b, 5	; 11
    10c0:	fe cf       	rjmp	.-4      	; 0x10be <pull_PINB+0x70>
		UDR0 = '1';
    10c2:	81 e3       	ldi	r24, 0x31	; 49
    10c4:	8c b9       	out	0x0c, r24	; 12
    10c6:	02 c0       	rjmp	.+4      	; 0x10cc <pull_PINB+0x7e>
	}
	else USART_Transmit_0();
    10c8:	0e 94 87 16 	call	0x2d0e	; 0x2d0e <USART_Transmit_0>
	//************************************** Опрос PINB-7
	if (PINB & (1 << 7))
    10cc:	b7 9b       	sbis	0x16, 7	; 22
    10ce:	05 c0       	rjmp	.+10     	; 0x10da <pull_PINB+0x8c>
	{
		while ( !( UCSR0A & (1<<UDRE0)) );
    10d0:	5d 9b       	sbis	0x0b, 5	; 11
    10d2:	fe cf       	rjmp	.-4      	; 0x10d0 <pull_PINB+0x82>
		UDR0 = '1';
    10d4:	81 e3       	ldi	r24, 0x31	; 49
    10d6:	8c b9       	out	0x0c, r24	; 12
    10d8:	08 95       	ret
	}
	else USART_Transmit_0();
    10da:	0e 94 87 16 	call	0x2d0e	; 0x2d0e <USART_Transmit_0>
    10de:	08 95       	ret

000010e0 <pull_PIND>:
}

//************************************** Опрос PIND-0 ************************************** PIND
void pull_PIND()
{
	if (PIND & (1 << 0))
    10e0:	80 9b       	sbis	0x10, 0	; 16
    10e2:	05 c0       	rjmp	.+10     	; 0x10ee <pull_PIND+0xe>
	{
		while ( !( UCSR0A & (1<<UDRE0)) );
    10e4:	5d 9b       	sbis	0x0b, 5	; 11
    10e6:	fe cf       	rjmp	.-4      	; 0x10e4 <pull_PIND+0x4>
		UDR0 = '1';
    10e8:	81 e3       	ldi	r24, 0x31	; 49
    10ea:	8c b9       	out	0x0c, r24	; 12
    10ec:	02 c0       	rjmp	.+4      	; 0x10f2 <pull_PIND+0x12>
	}
	else USART_Transmit_0();
    10ee:	0e 94 87 16 	call	0x2d0e	; 0x2d0e <USART_Transmit_0>
	//************************************** Передача пробела
		while ( !( UCSR0A & (1<<UDRE0)) );
    10f2:	5d 9b       	sbis	0x0b, 5	; 11
    10f4:	fe cf       	rjmp	.-4      	; 0x10f2 <pull_PIND+0x12>
		UDR0 = ' ';
    10f6:	80 e2       	ldi	r24, 0x20	; 32
    10f8:	8c b9       	out	0x0c, r24	; 12
	//************************************** Опрос PIND-5
	if (PIND & (1 << 5))
    10fa:	85 9b       	sbis	0x10, 5	; 16
    10fc:	05 c0       	rjmp	.+10     	; 0x1108 <__stack+0x9>
	{
		while ( !( UCSR0A & (1<<UDRE0)) );
    10fe:	5d 9b       	sbis	0x0b, 5	; 11
    1100:	fe cf       	rjmp	.-4      	; 0x10fe <pull_PIND+0x1e>
		UDR0 = '1';
    1102:	81 e3       	ldi	r24, 0x31	; 49
    1104:	8c b9       	out	0x0c, r24	; 12
    1106:	02 c0       	rjmp	.+4      	; 0x110c <__stack+0xd>
	}
	else USART_Transmit_0();
    1108:	0e 94 87 16 	call	0x2d0e	; 0x2d0e <USART_Transmit_0>
	//************************************** Опрос PIND-6
	if (PIND & (1 << 6))
    110c:	86 9b       	sbis	0x10, 6	; 16
    110e:	05 c0       	rjmp	.+10     	; 0x111a <__stack+0x1b>
	{
		while ( !( UCSR0A & (1<<UDRE0)) );
    1110:	5d 9b       	sbis	0x0b, 5	; 11
    1112:	fe cf       	rjmp	.-4      	; 0x1110 <__stack+0x11>
		UDR0 = '1';
    1114:	81 e3       	ldi	r24, 0x31	; 49
    1116:	8c b9       	out	0x0c, r24	; 12
    1118:	02 c0       	rjmp	.+4      	; 0x111e <__stack+0x1f>
	}
	else USART_Transmit_0();
    111a:	0e 94 87 16 	call	0x2d0e	; 0x2d0e <USART_Transmit_0>
	//************************************** Опрос PIND-7
	if (PIND & (1 << 7))
    111e:	87 9b       	sbis	0x10, 7	; 16
    1120:	05 c0       	rjmp	.+10     	; 0x112c <__stack+0x2d>
	{
		while ( !( UCSR0A & (1<<UDRE0)) );
    1122:	5d 9b       	sbis	0x0b, 5	; 11
    1124:	fe cf       	rjmp	.-4      	; 0x1122 <__stack+0x23>
		UDR0 = '1';
    1126:	81 e3       	ldi	r24, 0x31	; 49
    1128:	8c b9       	out	0x0c, r24	; 12
    112a:	08 95       	ret
	}
	else USART_Transmit_0();
    112c:	0e 94 87 16 	call	0x2d0e	; 0x2d0e <USART_Transmit_0>
    1130:	08 95       	ret

00001132 <pull_PINC>:
}

//************************************** Опрос PINC-0 ************************************** PINC
void pull_PINC()
{
	if (PINC & (1 << 0))
    1132:	98 9b       	sbis	0x13, 0	; 19
    1134:	05 c0       	rjmp	.+10     	; 0x1140 <pull_PINC+0xe>
	{
		while ( !( UCSR0A & (1<<UDRE0)) );
    1136:	5d 9b       	sbis	0x0b, 5	; 11
    1138:	fe cf       	rjmp	.-4      	; 0x1136 <pull_PINC+0x4>
		UDR0 = '1';
    113a:	81 e3       	ldi	r24, 0x31	; 49
    113c:	8c b9       	out	0x0c, r24	; 12
    113e:	02 c0       	rjmp	.+4      	; 0x1144 <pull_PINC+0x12>
	}
	else USART_Transmit_0();
    1140:	0e 94 87 16 	call	0x2d0e	; 0x2d0e <USART_Transmit_0>
	//************************************** Опрос PINC-1
	if (PINC & (1 << 1))
    1144:	99 9b       	sbis	0x13, 1	; 19
    1146:	05 c0       	rjmp	.+10     	; 0x1152 <pull_PINC+0x20>
	{
		while ( !( UCSR0A & (1<<UDRE0)) );
    1148:	5d 9b       	sbis	0x0b, 5	; 11
    114a:	fe cf       	rjmp	.-4      	; 0x1148 <pull_PINC+0x16>
		UDR0 = '1';
    114c:	81 e3       	ldi	r24, 0x31	; 49
    114e:	8c b9       	out	0x0c, r24	; 12
    1150:	02 c0       	rjmp	.+4      	; 0x1156 <pull_PINC+0x24>
	}
	else USART_Transmit_0();
    1152:	0e 94 87 16 	call	0x2d0e	; 0x2d0e <USART_Transmit_0>
	//************************************** Опрос PINC-2
	if (PINC & (1 << 2))
    1156:	9a 9b       	sbis	0x13, 2	; 19
    1158:	05 c0       	rjmp	.+10     	; 0x1164 <pull_PINC+0x32>
	{
		while ( !( UCSR0A & (1<<UDRE0)) );
    115a:	5d 9b       	sbis	0x0b, 5	; 11
    115c:	fe cf       	rjmp	.-4      	; 0x115a <pull_PINC+0x28>
		UDR0 = '1';
    115e:	81 e3       	ldi	r24, 0x31	; 49
    1160:	8c b9       	out	0x0c, r24	; 12
    1162:	02 c0       	rjmp	.+4      	; 0x1168 <pull_PINC+0x36>
	}
	else USART_Transmit_0();
    1164:	0e 94 87 16 	call	0x2d0e	; 0x2d0e <USART_Transmit_0>
	//************************************** Опрос PINC-3
	if (PINC & (1 << 3))
    1168:	9b 9b       	sbis	0x13, 3	; 19
    116a:	05 c0       	rjmp	.+10     	; 0x1176 <pull_PINC+0x44>
	{
		while ( !( UCSR0A & (1<<UDRE0)) );
    116c:	5d 9b       	sbis	0x0b, 5	; 11
    116e:	fe cf       	rjmp	.-4      	; 0x116c <pull_PINC+0x3a>
		UDR0 = '1';
    1170:	81 e3       	ldi	r24, 0x31	; 49
    1172:	8c b9       	out	0x0c, r24	; 12
    1174:	02 c0       	rjmp	.+4      	; 0x117a <pull_PINC+0x48>
	}
	else USART_Transmit_0();
    1176:	0e 94 87 16 	call	0x2d0e	; 0x2d0e <USART_Transmit_0>
	//************************************** Опрос PINC-4
	if (PINC & (1 << 4))
    117a:	9c 9b       	sbis	0x13, 4	; 19
    117c:	05 c0       	rjmp	.+10     	; 0x1188 <pull_PINC+0x56>
	{
		while ( !( UCSR0A & (1<<UDRE0)) );
    117e:	5d 9b       	sbis	0x0b, 5	; 11
    1180:	fe cf       	rjmp	.-4      	; 0x117e <pull_PINC+0x4c>
		UDR0 = '1';
    1182:	81 e3       	ldi	r24, 0x31	; 49
    1184:	8c b9       	out	0x0c, r24	; 12
    1186:	02 c0       	rjmp	.+4      	; 0x118c <pull_PINC+0x5a>
	}
	else USART_Transmit_0();
    1188:	0e 94 87 16 	call	0x2d0e	; 0x2d0e <USART_Transmit_0>
	//************************************** Опрос PINC-5
	if (PINC & (1 << 5))
    118c:	9d 9b       	sbis	0x13, 5	; 19
    118e:	05 c0       	rjmp	.+10     	; 0x119a <pull_PINC+0x68>
	{
		while ( !( UCSR0A & (1<<UDRE0)) );
    1190:	5d 9b       	sbis	0x0b, 5	; 11
    1192:	fe cf       	rjmp	.-4      	; 0x1190 <pull_PINC+0x5e>
		UDR0 = '1';
    1194:	81 e3       	ldi	r24, 0x31	; 49
    1196:	8c b9       	out	0x0c, r24	; 12
    1198:	02 c0       	rjmp	.+4      	; 0x119e <pull_PINC+0x6c>
	}
	else USART_Transmit_0();
    119a:	0e 94 87 16 	call	0x2d0e	; 0x2d0e <USART_Transmit_0>
	//************************************** Опрос PINC-6
	if (PINC & (1 << 6))
    119e:	9e 9b       	sbis	0x13, 6	; 19
    11a0:	05 c0       	rjmp	.+10     	; 0x11ac <pull_PINC+0x7a>
	{
		while ( !( UCSR0A & (1<<UDRE0)) );
    11a2:	5d 9b       	sbis	0x0b, 5	; 11
    11a4:	fe cf       	rjmp	.-4      	; 0x11a2 <pull_PINC+0x70>
		UDR0 = '1';
    11a6:	81 e3       	ldi	r24, 0x31	; 49
    11a8:	8c b9       	out	0x0c, r24	; 12
    11aa:	02 c0       	rjmp	.+4      	; 0x11b0 <pull_PINC+0x7e>
	}
	else USART_Transmit_0();
    11ac:	0e 94 87 16 	call	0x2d0e	; 0x2d0e <USART_Transmit_0>
	//************************************** Опрос PINC-7
	if (PINC & (1 << 7))
    11b0:	9f 9b       	sbis	0x13, 7	; 19
    11b2:	05 c0       	rjmp	.+10     	; 0x11be <pull_PINC+0x8c>
	{
		while ( !( UCSR0A & (1<<UDRE0)) );
    11b4:	5d 9b       	sbis	0x0b, 5	; 11
    11b6:	fe cf       	rjmp	.-4      	; 0x11b4 <pull_PINC+0x82>
		UDR0 = '1';
    11b8:	81 e3       	ldi	r24, 0x31	; 49
    11ba:	8c b9       	out	0x0c, r24	; 12
    11bc:	08 95       	ret
	}
	else USART_Transmit_0();
    11be:	0e 94 87 16 	call	0x2d0e	; 0x2d0e <USART_Transmit_0>
    11c2:	08 95       	ret

000011c4 <pull_PINA>:
}

//************************************** Опрос PINA-7 ************************************** PINA
void pull_PINA()
{
	if (PINA & (1 << 7))
    11c4:	cf 9b       	sbis	0x19, 7	; 25
    11c6:	05 c0       	rjmp	.+10     	; 0x11d2 <pull_PINA+0xe>
	{
		while ( !( UCSR0A & (1<<UDRE0)) );
    11c8:	5d 9b       	sbis	0x0b, 5	; 11
    11ca:	fe cf       	rjmp	.-4      	; 0x11c8 <pull_PINA+0x4>
		UDR0 = '1';
    11cc:	81 e3       	ldi	r24, 0x31	; 49
    11ce:	8c b9       	out	0x0c, r24	; 12
    11d0:	02 c0       	rjmp	.+4      	; 0x11d6 <pull_PINA+0x12>
	}
	else USART_Transmit_0();
    11d2:	0e 94 87 16 	call	0x2d0e	; 0x2d0e <USART_Transmit_0>
	//************************************** Опрос PINA-6
	if (PINA & (1 << 6))
    11d6:	ce 9b       	sbis	0x19, 6	; 25
    11d8:	05 c0       	rjmp	.+10     	; 0x11e4 <pull_PINA+0x20>
	{
		while ( !( UCSR0A & (1<<UDRE0)) );
    11da:	5d 9b       	sbis	0x0b, 5	; 11
    11dc:	fe cf       	rjmp	.-4      	; 0x11da <pull_PINA+0x16>
		UDR0 = '1';
    11de:	81 e3       	ldi	r24, 0x31	; 49
    11e0:	8c b9       	out	0x0c, r24	; 12
    11e2:	02 c0       	rjmp	.+4      	; 0x11e8 <pull_PINA+0x24>
	}
	else USART_Transmit_0();
    11e4:	0e 94 87 16 	call	0x2d0e	; 0x2d0e <USART_Transmit_0>
	//************************************** Опрос PINA-5
	if (PINA & (1 << 5))
    11e8:	cd 9b       	sbis	0x19, 5	; 25
    11ea:	05 c0       	rjmp	.+10     	; 0x11f6 <pull_PINA+0x32>
	{
		while ( !( UCSR0A & (1<<UDRE0)) );
    11ec:	5d 9b       	sbis	0x0b, 5	; 11
    11ee:	fe cf       	rjmp	.-4      	; 0x11ec <pull_PINA+0x28>
		UDR0 = '1';
    11f0:	81 e3       	ldi	r24, 0x31	; 49
    11f2:	8c b9       	out	0x0c, r24	; 12
    11f4:	02 c0       	rjmp	.+4      	; 0x11fa <pull_PINA+0x36>
	}
	else USART_Transmit_0();
    11f6:	0e 94 87 16 	call	0x2d0e	; 0x2d0e <USART_Transmit_0>
	//************************************** Опрос PINA-4
	if (PINA & (1 << 4))
    11fa:	cc 9b       	sbis	0x19, 4	; 25
    11fc:	05 c0       	rjmp	.+10     	; 0x1208 <pull_PINA+0x44>
	{
		while ( !( UCSR0A & (1<<UDRE0)) );
    11fe:	5d 9b       	sbis	0x0b, 5	; 11
    1200:	fe cf       	rjmp	.-4      	; 0x11fe <pull_PINA+0x3a>
		UDR0 = '1';
    1202:	81 e3       	ldi	r24, 0x31	; 49
    1204:	8c b9       	out	0x0c, r24	; 12
    1206:	02 c0       	rjmp	.+4      	; 0x120c <pull_PINA+0x48>
	}
	else USART_Transmit_0();
    1208:	0e 94 87 16 	call	0x2d0e	; 0x2d0e <USART_Transmit_0>
	//************************************** Опрос PINA-3
	if (PINA & (1 << 3))
    120c:	cb 9b       	sbis	0x19, 3	; 25
    120e:	05 c0       	rjmp	.+10     	; 0x121a <pull_PINA+0x56>
	{
		while ( !( UCSR0A & (1<<UDRE0)) );
    1210:	5d 9b       	sbis	0x0b, 5	; 11
    1212:	fe cf       	rjmp	.-4      	; 0x1210 <pull_PINA+0x4c>
		UDR0 = '1';
    1214:	81 e3       	ldi	r24, 0x31	; 49
    1216:	8c b9       	out	0x0c, r24	; 12
    1218:	02 c0       	rjmp	.+4      	; 0x121e <pull_PINA+0x5a>
	}
	else USART_Transmit_0();
    121a:	0e 94 87 16 	call	0x2d0e	; 0x2d0e <USART_Transmit_0>
	//************************************** Опрос PINA-2
	if (PINA & (1 << 2))
    121e:	ca 9b       	sbis	0x19, 2	; 25
    1220:	05 c0       	rjmp	.+10     	; 0x122c <pull_PINA+0x68>
	{
		while ( !( UCSR0A & (1<<UDRE0)) );
    1222:	5d 9b       	sbis	0x0b, 5	; 11
    1224:	fe cf       	rjmp	.-4      	; 0x1222 <pull_PINA+0x5e>
		UDR0 = '1';
    1226:	81 e3       	ldi	r24, 0x31	; 49
    1228:	8c b9       	out	0x0c, r24	; 12
    122a:	02 c0       	rjmp	.+4      	; 0x1230 <pull_PINA+0x6c>
	}
	else USART_Transmit_0();
    122c:	0e 94 87 16 	call	0x2d0e	; 0x2d0e <USART_Transmit_0>
	//************************************** Опрос PINA-1
	if (PINA & (1 << 1))
    1230:	c9 9b       	sbis	0x19, 1	; 25
    1232:	05 c0       	rjmp	.+10     	; 0x123e <pull_PINA+0x7a>
	{
		while ( !( UCSR0A & (1<<UDRE0)) );
    1234:	5d 9b       	sbis	0x0b, 5	; 11
    1236:	fe cf       	rjmp	.-4      	; 0x1234 <pull_PINA+0x70>
		UDR0 = '1';
    1238:	81 e3       	ldi	r24, 0x31	; 49
    123a:	8c b9       	out	0x0c, r24	; 12
    123c:	02 c0       	rjmp	.+4      	; 0x1242 <pull_PINA+0x7e>
	}
	else USART_Transmit_0();
    123e:	0e 94 87 16 	call	0x2d0e	; 0x2d0e <USART_Transmit_0>
	//************************************** Опрос PINA-0
	if (PINA & (1 << 0))
    1242:	c8 9b       	sbis	0x19, 0	; 25
    1244:	05 c0       	rjmp	.+10     	; 0x1250 <pull_PINA+0x8c>
	{
		while ( !( UCSR0A & (1<<UDRE0)) );
    1246:	5d 9b       	sbis	0x0b, 5	; 11
    1248:	fe cf       	rjmp	.-4      	; 0x1246 <pull_PINA+0x82>
		UDR0 = '1';
    124a:	81 e3       	ldi	r24, 0x31	; 49
    124c:	8c b9       	out	0x0c, r24	; 12
    124e:	08 95       	ret
	}
	else USART_Transmit_0();
    1250:	0e 94 87 16 	call	0x2d0e	; 0x2d0e <USART_Transmit_0>
    1254:	08 95       	ret

00001256 <Scan_USART_Transmit>:


//**************************************************************************** scan_and_USART_Transmit
void Scan_USART_Transmit()
{	
	BLUE_LED_ON;
    1256:	e5 e6       	ldi	r30, 0x65	; 101
    1258:	f0 e0       	ldi	r31, 0x00	; 0
    125a:	80 81       	ld	r24, Z
    125c:	84 60       	ori	r24, 0x04	; 4
    125e:	80 83       	st	Z, r24
			
//*********************************************************************************************** Выставляем 1 на пин 3 порта F
	DDRF |=	1 << 3;
    1260:	e1 e6       	ldi	r30, 0x61	; 97
    1262:	f0 e0       	ldi	r31, 0x00	; 0
    1264:	80 81       	ld	r24, Z
    1266:	88 60       	ori	r24, 0x08	; 8
    1268:	80 83       	st	Z, r24
	PORTF |= 1 << 3;
    126a:	e2 e6       	ldi	r30, 0x62	; 98
    126c:	f0 e0       	ldi	r31, 0x00	; 0
    126e:	80 81       	ld	r24, Z
    1270:	88 60       	ori	r24, 0x08	; 8
    1272:	80 83       	st	Z, r24
    1274:	8f e3       	ldi	r24, 0x3F	; 63
    1276:	9c e9       	ldi	r25, 0x9C	; 156
    1278:	01 97       	sbiw	r24, 0x01	; 1
    127a:	f1 f7       	brne	.-4      	; 0x1278 <Scan_USART_Transmit+0x22>
    127c:	00 c0       	rjmp	.+0      	; 0x127e <Scan_USART_Transmit+0x28>
    127e:	00 00       	nop
	_delay_ms(RC_DELAY);
//************************************** Ждём и начинаем опрос
//************************************** Посылем * при наступлении очереди передачи состояния пина с выставленной 1	
	while ( !( UCSR0A & (1<<UDRE0)) );
    1280:	5d 9b       	sbis	0x0b, 5	; 11
    1282:	fe cf       	rjmp	.-4      	; 0x1280 <Scan_USART_Transmit+0x2a>
		UDR0 = 'U';
    1284:	85 e5       	ldi	r24, 0x55	; 85
    1286:	8c b9       	out	0x0c, r24	; 12
//************************************** Опрос PINF-2
	if (PINF & (1 << 2))
    1288:	02 9b       	sbis	0x00, 2	; 0
    128a:	05 c0       	rjmp	.+10     	; 0x1296 <Scan_USART_Transmit+0x40>
	{
		while ( !( UCSR0A & (1<<UDRE0)) );
    128c:	5d 9b       	sbis	0x0b, 5	; 11
    128e:	fe cf       	rjmp	.-4      	; 0x128c <Scan_USART_Transmit+0x36>
		UDR0 = '1';
    1290:	81 e3       	ldi	r24, 0x31	; 49
    1292:	8c b9       	out	0x0c, r24	; 12
    1294:	02 c0       	rjmp	.+4      	; 0x129a <Scan_USART_Transmit+0x44>
	}
	else USART_Transmit_0();
    1296:	0e 94 87 16 	call	0x2d0e	; 0x2d0e <USART_Transmit_0>
//************************************** Опрос PINF-1
if (PINF & (1 << 1))
    129a:	01 9b       	sbis	0x00, 1	; 0
    129c:	05 c0       	rjmp	.+10     	; 0x12a8 <Scan_USART_Transmit+0x52>
{
	while ( !( UCSR0A & (1<<UDRE0)) );
    129e:	5d 9b       	sbis	0x0b, 5	; 11
    12a0:	fe cf       	rjmp	.-4      	; 0x129e <Scan_USART_Transmit+0x48>
	UDR0 = '1';
    12a2:	81 e3       	ldi	r24, 0x31	; 49
    12a4:	8c b9       	out	0x0c, r24	; 12
    12a6:	02 c0       	rjmp	.+4      	; 0x12ac <Scan_USART_Transmit+0x56>
}
else USART_Transmit_0();
    12a8:	0e 94 87 16 	call	0x2d0e	; 0x2d0e <USART_Transmit_0>
//************************************** Опрос PINF-0
if (PINF & (1 << 0))
    12ac:	00 9b       	sbis	0x00, 0	; 0
    12ae:	05 c0       	rjmp	.+10     	; 0x12ba <Scan_USART_Transmit+0x64>
{
	while ( !( UCSR0A & (1<<UDRE0)) );
    12b0:	5d 9b       	sbis	0x0b, 5	; 11
    12b2:	fe cf       	rjmp	.-4      	; 0x12b0 <Scan_USART_Transmit+0x5a>
	UDR0 = '1';
    12b4:	81 e3       	ldi	r24, 0x31	; 49
    12b6:	8c b9       	out	0x0c, r24	; 12
    12b8:	02 c0       	rjmp	.+4      	; 0x12be <Scan_USART_Transmit+0x68>
}
else USART_Transmit_0();
    12ba:	0e 94 87 16 	call	0x2d0e	; 0x2d0e <USART_Transmit_0>

pull_PINE();
    12be:	0e 94 f0 07 	call	0xfe0	; 0xfe0 <pull_PINE>
pull_PINB();
    12c2:	0e 94 27 08 	call	0x104e	; 0x104e <pull_PINB>
pull_PIND();
    12c6:	0e 94 70 08 	call	0x10e0	; 0x10e0 <pull_PIND>
pull_PINC();
    12ca:	0e 94 99 08 	call	0x1132	; 0x1132 <pull_PINC>
pull_PINA();
    12ce:	0e 94 e2 08 	call	0x11c4	; 0x11c4 <pull_PINA>

DDRF &= ~(1 << 3);			// Убираем 1 с пина
    12d2:	a1 e6       	ldi	r26, 0x61	; 97
    12d4:	b0 e0       	ldi	r27, 0x00	; 0
    12d6:	8c 91       	ld	r24, X
    12d8:	87 7f       	andi	r24, 0xF7	; 247
    12da:	8c 93       	st	X, r24
PORTF &= ~(1 << 3);
    12dc:	e2 e6       	ldi	r30, 0x62	; 98
    12de:	f0 e0       	ldi	r31, 0x00	; 0
    12e0:	80 81       	ld	r24, Z
    12e2:	87 7f       	andi	r24, 0xF7	; 247
    12e4:	80 83       	st	Z, r24

//*********************************************************************************************** Выставляем 1 на пин 2 порта F 
	DDRF |=	1 << 2;
    12e6:	8c 91       	ld	r24, X
    12e8:	84 60       	ori	r24, 0x04	; 4
    12ea:	8c 93       	st	X, r24
	PORTF |= 1 << 2;
    12ec:	80 81       	ld	r24, Z
    12ee:	84 60       	ori	r24, 0x04	; 4
    12f0:	80 83       	st	Z, r24
    12f2:	8f e3       	ldi	r24, 0x3F	; 63
    12f4:	9c e9       	ldi	r25, 0x9C	; 156
    12f6:	01 97       	sbiw	r24, 0x01	; 1
    12f8:	f1 f7       	brne	.-4      	; 0x12f6 <Scan_USART_Transmit+0xa0>
    12fa:	00 c0       	rjmp	.+0      	; 0x12fc <Scan_USART_Transmit+0xa6>
    12fc:	00 00       	nop
	_delay_ms(RC_DELAY);
//************************************** Ждём и начинаем опрос
//************************************** Опрос PINF-3
	if (PINF & (1 << 3))
    12fe:	03 9b       	sbis	0x00, 3	; 0
    1300:	05 c0       	rjmp	.+10     	; 0x130c <Scan_USART_Transmit+0xb6>
	{
		while ( !( UCSR0A & (1<<UDRE0)) );
    1302:	5d 9b       	sbis	0x0b, 5	; 11
    1304:	fe cf       	rjmp	.-4      	; 0x1302 <Scan_USART_Transmit+0xac>
		UDR0 = '1';
    1306:	81 e3       	ldi	r24, 0x31	; 49
    1308:	8c b9       	out	0x0c, r24	; 12
    130a:	02 c0       	rjmp	.+4      	; 0x1310 <Scan_USART_Transmit+0xba>
	}
	else USART_Transmit_0();
    130c:	0e 94 87 16 	call	0x2d0e	; 0x2d0e <USART_Transmit_0>
//************************************** Посылем * при наступлении очереди передачи состояния пина с выставленной 1	
	while ( !( UCSR0A & (1<<UDRE0)) );
    1310:	5d 9b       	sbis	0x0b, 5	; 11
    1312:	fe cf       	rjmp	.-4      	; 0x1310 <Scan_USART_Transmit+0xba>
		UDR0 = 'U';
    1314:	85 e5       	ldi	r24, 0x55	; 85
    1316:	8c b9       	out	0x0c, r24	; 12
//************************************** Опрос PINF-1
if (PINF & (1 << 1))
    1318:	01 9b       	sbis	0x00, 1	; 0
    131a:	05 c0       	rjmp	.+10     	; 0x1326 <Scan_USART_Transmit+0xd0>
{
	while ( !( UCSR0A & (1<<UDRE0)) );
    131c:	5d 9b       	sbis	0x0b, 5	; 11
    131e:	fe cf       	rjmp	.-4      	; 0x131c <Scan_USART_Transmit+0xc6>
	UDR0 = '1';
    1320:	81 e3       	ldi	r24, 0x31	; 49
    1322:	8c b9       	out	0x0c, r24	; 12
    1324:	02 c0       	rjmp	.+4      	; 0x132a <Scan_USART_Transmit+0xd4>
}
else USART_Transmit_0();
    1326:	0e 94 87 16 	call	0x2d0e	; 0x2d0e <USART_Transmit_0>
//************************************** Опрос PINF-0
if (PINF & (1 << 0))
    132a:	00 9b       	sbis	0x00, 0	; 0
    132c:	05 c0       	rjmp	.+10     	; 0x1338 <Scan_USART_Transmit+0xe2>
{
	while ( !( UCSR0A & (1<<UDRE0)) );
    132e:	5d 9b       	sbis	0x0b, 5	; 11
    1330:	fe cf       	rjmp	.-4      	; 0x132e <Scan_USART_Transmit+0xd8>
	UDR0 = '1';
    1332:	81 e3       	ldi	r24, 0x31	; 49
    1334:	8c b9       	out	0x0c, r24	; 12
    1336:	02 c0       	rjmp	.+4      	; 0x133c <Scan_USART_Transmit+0xe6>
}
else USART_Transmit_0();
    1338:	0e 94 87 16 	call	0x2d0e	; 0x2d0e <USART_Transmit_0>

pull_PINE();
    133c:	0e 94 f0 07 	call	0xfe0	; 0xfe0 <pull_PINE>
pull_PINB();
    1340:	0e 94 27 08 	call	0x104e	; 0x104e <pull_PINB>
pull_PIND();
    1344:	0e 94 70 08 	call	0x10e0	; 0x10e0 <pull_PIND>
pull_PINC();
    1348:	0e 94 99 08 	call	0x1132	; 0x1132 <pull_PINC>
pull_PINA();
    134c:	0e 94 e2 08 	call	0x11c4	; 0x11c4 <pull_PINA>

DDRF &= ~(1 << 2);			// Убираем 1 с пина
    1350:	a1 e6       	ldi	r26, 0x61	; 97
    1352:	b0 e0       	ldi	r27, 0x00	; 0
    1354:	8c 91       	ld	r24, X
    1356:	8b 7f       	andi	r24, 0xFB	; 251
    1358:	8c 93       	st	X, r24
PORTF &= ~(1 << 2);
    135a:	e2 e6       	ldi	r30, 0x62	; 98
    135c:	f0 e0       	ldi	r31, 0x00	; 0
    135e:	80 81       	ld	r24, Z
    1360:	8b 7f       	andi	r24, 0xFB	; 251
    1362:	80 83       	st	Z, r24
	
//*********************************************************************************************** Выставляем 1 на пин 1 порта F 
	DDRF |=	1 << 1;
    1364:	8c 91       	ld	r24, X
    1366:	82 60       	ori	r24, 0x02	; 2
    1368:	8c 93       	st	X, r24
	PORTF |= 1 << 1;
    136a:	80 81       	ld	r24, Z
    136c:	82 60       	ori	r24, 0x02	; 2
    136e:	80 83       	st	Z, r24
    1370:	8f e3       	ldi	r24, 0x3F	; 63
    1372:	9c e9       	ldi	r25, 0x9C	; 156
    1374:	01 97       	sbiw	r24, 0x01	; 1
    1376:	f1 f7       	brne	.-4      	; 0x1374 <Scan_USART_Transmit+0x11e>
    1378:	00 c0       	rjmp	.+0      	; 0x137a <Scan_USART_Transmit+0x124>
    137a:	00 00       	nop
	_delay_ms(RC_DELAY);
//************************************** Ждём и начинаем опрос
//************************************** Опрос PINF-3
if (PINF & (1 << 3))
    137c:	03 9b       	sbis	0x00, 3	; 0
    137e:	05 c0       	rjmp	.+10     	; 0x138a <Scan_USART_Transmit+0x134>
{
	while ( !( UCSR0A & (1<<UDRE0)) );
    1380:	5d 9b       	sbis	0x0b, 5	; 11
    1382:	fe cf       	rjmp	.-4      	; 0x1380 <Scan_USART_Transmit+0x12a>
	UDR0 = '1';
    1384:	81 e3       	ldi	r24, 0x31	; 49
    1386:	8c b9       	out	0x0c, r24	; 12
    1388:	02 c0       	rjmp	.+4      	; 0x138e <Scan_USART_Transmit+0x138>
}
else USART_Transmit_0();
    138a:	0e 94 87 16 	call	0x2d0e	; 0x2d0e <USART_Transmit_0>
//************************************** Опрос PINF-2
if (PINF & (1 << 2))
    138e:	02 9b       	sbis	0x00, 2	; 0
    1390:	05 c0       	rjmp	.+10     	; 0x139c <Scan_USART_Transmit+0x146>
{
	while ( !( UCSR0A & (1<<UDRE0)) );
    1392:	5d 9b       	sbis	0x0b, 5	; 11
    1394:	fe cf       	rjmp	.-4      	; 0x1392 <Scan_USART_Transmit+0x13c>
	UDR0 = '1';
    1396:	81 e3       	ldi	r24, 0x31	; 49
    1398:	8c b9       	out	0x0c, r24	; 12
    139a:	02 c0       	rjmp	.+4      	; 0x13a0 <Scan_USART_Transmit+0x14a>
}
else USART_Transmit_0();
    139c:	0e 94 87 16 	call	0x2d0e	; 0x2d0e <USART_Transmit_0>
//************************************** Посылем * при наступлении очереди передачи состояния пина с выставленной 1	
	while ( !( UCSR0A & (1<<UDRE0)) );
    13a0:	5d 9b       	sbis	0x0b, 5	; 11
    13a2:	fe cf       	rjmp	.-4      	; 0x13a0 <Scan_USART_Transmit+0x14a>
		UDR0 = 'U';
    13a4:	85 e5       	ldi	r24, 0x55	; 85
    13a6:	8c b9       	out	0x0c, r24	; 12
//************************************** Опрос PINF-0
if (PINF & (1 << 0))
    13a8:	00 9b       	sbis	0x00, 0	; 0
    13aa:	05 c0       	rjmp	.+10     	; 0x13b6 <Scan_USART_Transmit+0x160>
{
	while ( !( UCSR0A & (1<<UDRE0)) );
    13ac:	5d 9b       	sbis	0x0b, 5	; 11
    13ae:	fe cf       	rjmp	.-4      	; 0x13ac <Scan_USART_Transmit+0x156>
	UDR0 = '1';
    13b0:	81 e3       	ldi	r24, 0x31	; 49
    13b2:	8c b9       	out	0x0c, r24	; 12
    13b4:	02 c0       	rjmp	.+4      	; 0x13ba <Scan_USART_Transmit+0x164>
}
else USART_Transmit_0();
    13b6:	0e 94 87 16 	call	0x2d0e	; 0x2d0e <USART_Transmit_0>

pull_PINE();
    13ba:	0e 94 f0 07 	call	0xfe0	; 0xfe0 <pull_PINE>
pull_PINB();
    13be:	0e 94 27 08 	call	0x104e	; 0x104e <pull_PINB>
pull_PIND();
    13c2:	0e 94 70 08 	call	0x10e0	; 0x10e0 <pull_PIND>
pull_PINC();
    13c6:	0e 94 99 08 	call	0x1132	; 0x1132 <pull_PINC>
pull_PINA();
    13ca:	0e 94 e2 08 	call	0x11c4	; 0x11c4 <pull_PINA>

DDRF &= ~(1 << 1);			// Убираем 1 с пина
    13ce:	a1 e6       	ldi	r26, 0x61	; 97
    13d0:	b0 e0       	ldi	r27, 0x00	; 0
    13d2:	8c 91       	ld	r24, X
    13d4:	8d 7f       	andi	r24, 0xFD	; 253
    13d6:	8c 93       	st	X, r24
PORTF &= ~(1 << 1);
    13d8:	e2 e6       	ldi	r30, 0x62	; 98
    13da:	f0 e0       	ldi	r31, 0x00	; 0
    13dc:	80 81       	ld	r24, Z
    13de:	8d 7f       	andi	r24, 0xFD	; 253
    13e0:	80 83       	st	Z, r24

//*********************************************************************************************** Выставляем 1 на пин 0 порта F 
	DDRF |=	1 << 0;
    13e2:	8c 91       	ld	r24, X
    13e4:	81 60       	ori	r24, 0x01	; 1
    13e6:	8c 93       	st	X, r24
	PORTF |= 1 << 0;
    13e8:	80 81       	ld	r24, Z
    13ea:	81 60       	ori	r24, 0x01	; 1
    13ec:	80 83       	st	Z, r24
    13ee:	8f e3       	ldi	r24, 0x3F	; 63
    13f0:	9c e9       	ldi	r25, 0x9C	; 156
    13f2:	01 97       	sbiw	r24, 0x01	; 1
    13f4:	f1 f7       	brne	.-4      	; 0x13f2 <Scan_USART_Transmit+0x19c>
    13f6:	00 c0       	rjmp	.+0      	; 0x13f8 <Scan_USART_Transmit+0x1a2>
    13f8:	00 00       	nop
	_delay_ms(RC_DELAY);
//************************************** Ждём и начинаем опрос
//************************************** Опрос PINF-3
if (PINF & (1 << 3))
    13fa:	03 9b       	sbis	0x00, 3	; 0
    13fc:	05 c0       	rjmp	.+10     	; 0x1408 <Scan_USART_Transmit+0x1b2>
{
	while ( !( UCSR0A & (1<<UDRE0)) );
    13fe:	5d 9b       	sbis	0x0b, 5	; 11
    1400:	fe cf       	rjmp	.-4      	; 0x13fe <Scan_USART_Transmit+0x1a8>
	UDR0 = '1';
    1402:	81 e3       	ldi	r24, 0x31	; 49
    1404:	8c b9       	out	0x0c, r24	; 12
    1406:	02 c0       	rjmp	.+4      	; 0x140c <Scan_USART_Transmit+0x1b6>
}
else USART_Transmit_0();
    1408:	0e 94 87 16 	call	0x2d0e	; 0x2d0e <USART_Transmit_0>
//************************************** Опрос PINF-2
if (PINF & (1 << 2))
    140c:	02 9b       	sbis	0x00, 2	; 0
    140e:	05 c0       	rjmp	.+10     	; 0x141a <Scan_USART_Transmit+0x1c4>
{
	while ( !( UCSR0A & (1<<UDRE0)) );
    1410:	5d 9b       	sbis	0x0b, 5	; 11
    1412:	fe cf       	rjmp	.-4      	; 0x1410 <Scan_USART_Transmit+0x1ba>
	UDR0 = '1';
    1414:	81 e3       	ldi	r24, 0x31	; 49
    1416:	8c b9       	out	0x0c, r24	; 12
    1418:	02 c0       	rjmp	.+4      	; 0x141e <Scan_USART_Transmit+0x1c8>
}
else USART_Transmit_0();
    141a:	0e 94 87 16 	call	0x2d0e	; 0x2d0e <USART_Transmit_0>
//************************************** Опрос PINF-1
if (PINF & (1 << 1))
    141e:	01 9b       	sbis	0x00, 1	; 0
    1420:	05 c0       	rjmp	.+10     	; 0x142c <Scan_USART_Transmit+0x1d6>
{
	while ( !( UCSR0A & (1<<UDRE0)) );
    1422:	5d 9b       	sbis	0x0b, 5	; 11
    1424:	fe cf       	rjmp	.-4      	; 0x1422 <Scan_USART_Transmit+0x1cc>
	UDR0 = '1';
    1426:	81 e3       	ldi	r24, 0x31	; 49
    1428:	8c b9       	out	0x0c, r24	; 12
    142a:	02 c0       	rjmp	.+4      	; 0x1430 <Scan_USART_Transmit+0x1da>
}
else USART_Transmit_0();
    142c:	0e 94 87 16 	call	0x2d0e	; 0x2d0e <USART_Transmit_0>
//************************************** Посылем * при наступлении очереди передачи состояния пина с выставленной 1	
	while ( !( UCSR0A & (1<<UDRE0)) );
    1430:	5d 9b       	sbis	0x0b, 5	; 11
    1432:	fe cf       	rjmp	.-4      	; 0x1430 <Scan_USART_Transmit+0x1da>
		UDR0 = 'U';
    1434:	85 e5       	ldi	r24, 0x55	; 85
    1436:	8c b9       	out	0x0c, r24	; 12

pull_PINE();
    1438:	0e 94 f0 07 	call	0xfe0	; 0xfe0 <pull_PINE>
pull_PINB();
    143c:	0e 94 27 08 	call	0x104e	; 0x104e <pull_PINB>
pull_PIND();
    1440:	0e 94 70 08 	call	0x10e0	; 0x10e0 <pull_PIND>
pull_PINC();
    1444:	0e 94 99 08 	call	0x1132	; 0x1132 <pull_PINC>
pull_PINA();
    1448:	0e 94 e2 08 	call	0x11c4	; 0x11c4 <pull_PINA>

DDRF &= ~(1 << 0);			// Убираем 1 с пина
    144c:	e1 e6       	ldi	r30, 0x61	; 97
    144e:	f0 e0       	ldi	r31, 0x00	; 0
    1450:	80 81       	ld	r24, Z
    1452:	8e 7f       	andi	r24, 0xFE	; 254
    1454:	80 83       	st	Z, r24
PORTF &= ~(1 << 0);
    1456:	e2 e6       	ldi	r30, 0x62	; 98
    1458:	f0 e0       	ldi	r31, 0x00	; 0
    145a:	80 81       	ld	r24, Z
    145c:	8e 7f       	andi	r24, 0xFE	; 254
    145e:	80 83       	st	Z, r24

//*********************************************************************************************** Выставляем 1 на пин 2 порта E 
	DDRE |=	1 << 2;
    1460:	12 9a       	sbi	0x02, 2	; 2
	PORTE |= 1 << 2;
    1462:	1a 9a       	sbi	0x03, 2	; 3
    1464:	8f e3       	ldi	r24, 0x3F	; 63
    1466:	9c e9       	ldi	r25, 0x9C	; 156
    1468:	01 97       	sbiw	r24, 0x01	; 1
    146a:	f1 f7       	brne	.-4      	; 0x1468 <Scan_USART_Transmit+0x212>
    146c:	00 c0       	rjmp	.+0      	; 0x146e <Scan_USART_Transmit+0x218>
    146e:	00 00       	nop
	_delay_ms(RC_DELAY);
//************************************** Ждём и начинаем опрос
pull_PINF();
    1470:	0e 94 cb 07 	call	0xf96	; 0xf96 <pull_PINF>
//************************************** Посылем * при наступлении очереди передачи состояния пина с выставленной 1	
	while ( !( UCSR0A & (1<<UDRE0)) );
    1474:	5d 9b       	sbis	0x0b, 5	; 11
    1476:	fe cf       	rjmp	.-4      	; 0x1474 <Scan_USART_Transmit+0x21e>
		UDR0 = 'U';
    1478:	85 e5       	ldi	r24, 0x55	; 85
    147a:	8c b9       	out	0x0c, r24	; 12
//************************************** Опрос PINE-3
if (PINE & (1 << 3))
    147c:	0b 9b       	sbis	0x01, 3	; 1
    147e:	05 c0       	rjmp	.+10     	; 0x148a <Scan_USART_Transmit+0x234>
{
	while ( !( UCSR0A & (1<<UDRE0)) );
    1480:	5d 9b       	sbis	0x0b, 5	; 11
    1482:	fe cf       	rjmp	.-4      	; 0x1480 <Scan_USART_Transmit+0x22a>
	UDR0 = '1';
    1484:	81 e3       	ldi	r24, 0x31	; 49
    1486:	8c b9       	out	0x0c, r24	; 12
    1488:	02 c0       	rjmp	.+4      	; 0x148e <Scan_USART_Transmit+0x238>
}
else USART_Transmit_0();
    148a:	0e 94 87 16 	call	0x2d0e	; 0x2d0e <USART_Transmit_0>
//************************************** Опрос PINE-4
if (PINE & (1 << 4))
    148e:	0c 9b       	sbis	0x01, 4	; 1
    1490:	05 c0       	rjmp	.+10     	; 0x149c <Scan_USART_Transmit+0x246>
{
	while ( !( UCSR0A & (1<<UDRE0)) );
    1492:	5d 9b       	sbis	0x0b, 5	; 11
    1494:	fe cf       	rjmp	.-4      	; 0x1492 <Scan_USART_Transmit+0x23c>
	UDR0 = '1';
    1496:	81 e3       	ldi	r24, 0x31	; 49
    1498:	8c b9       	out	0x0c, r24	; 12
    149a:	02 c0       	rjmp	.+4      	; 0x14a0 <Scan_USART_Transmit+0x24a>
}
else USART_Transmit_0();
    149c:	0e 94 87 16 	call	0x2d0e	; 0x2d0e <USART_Transmit_0>
//************************************** Опрос PINE-5
if (PINE & (1 << 5))
    14a0:	0d 9b       	sbis	0x01, 5	; 1
    14a2:	05 c0       	rjmp	.+10     	; 0x14ae <Scan_USART_Transmit+0x258>
{
	while ( !( UCSR0A & (1<<UDRE0)) );
    14a4:	5d 9b       	sbis	0x0b, 5	; 11
    14a6:	fe cf       	rjmp	.-4      	; 0x14a4 <Scan_USART_Transmit+0x24e>
	UDR0 = '1';
    14a8:	81 e3       	ldi	r24, 0x31	; 49
    14aa:	8c b9       	out	0x0c, r24	; 12
    14ac:	02 c0       	rjmp	.+4      	; 0x14b2 <Scan_USART_Transmit+0x25c>
}
else USART_Transmit_0();
    14ae:	0e 94 87 16 	call	0x2d0e	; 0x2d0e <USART_Transmit_0>
//************************************** Опрос PINE-6
if (PINE & (1 << 6))
    14b2:	0e 9b       	sbis	0x01, 6	; 1
    14b4:	05 c0       	rjmp	.+10     	; 0x14c0 <Scan_USART_Transmit+0x26a>
{
	while ( !( UCSR0A & (1<<UDRE0)) );
    14b6:	5d 9b       	sbis	0x0b, 5	; 11
    14b8:	fe cf       	rjmp	.-4      	; 0x14b6 <Scan_USART_Transmit+0x260>
	UDR0 = '1';
    14ba:	81 e3       	ldi	r24, 0x31	; 49
    14bc:	8c b9       	out	0x0c, r24	; 12
    14be:	02 c0       	rjmp	.+4      	; 0x14c4 <Scan_USART_Transmit+0x26e>
}
else USART_Transmit_0();
    14c0:	0e 94 87 16 	call	0x2d0e	; 0x2d0e <USART_Transmit_0>
//************************************** Опрос PINE-7
if (PINE & (1 << 7))
    14c4:	0f 9b       	sbis	0x01, 7	; 1
    14c6:	05 c0       	rjmp	.+10     	; 0x14d2 <Scan_USART_Transmit+0x27c>
{
	while ( !( UCSR0A & (1<<UDRE0)) );
    14c8:	5d 9b       	sbis	0x0b, 5	; 11
    14ca:	fe cf       	rjmp	.-4      	; 0x14c8 <Scan_USART_Transmit+0x272>
	UDR0 = '1';
    14cc:	81 e3       	ldi	r24, 0x31	; 49
    14ce:	8c b9       	out	0x0c, r24	; 12
    14d0:	02 c0       	rjmp	.+4      	; 0x14d6 <Scan_USART_Transmit+0x280>
}
else USART_Transmit_0();
    14d2:	0e 94 87 16 	call	0x2d0e	; 0x2d0e <USART_Transmit_0>


pull_PINB();
    14d6:	0e 94 27 08 	call	0x104e	; 0x104e <pull_PINB>
pull_PIND();
    14da:	0e 94 70 08 	call	0x10e0	; 0x10e0 <pull_PIND>
pull_PINC();
    14de:	0e 94 99 08 	call	0x1132	; 0x1132 <pull_PINC>
pull_PINA();
    14e2:	0e 94 e2 08 	call	0x11c4	; 0x11c4 <pull_PINA>

DDRE &= ~(1 << 2);			// Убираем 1 с пина
    14e6:	12 98       	cbi	0x02, 2	; 2
PORTE &= ~(1 << 2);
    14e8:	1a 98       	cbi	0x03, 2	; 3
//*********************************************************************************************** Выставляем 1 на пин 3 порта E 
	DDRE |=	1 << 3;
    14ea:	13 9a       	sbi	0x02, 3	; 2
	PORTE |= 1 << 3;
    14ec:	1b 9a       	sbi	0x03, 3	; 3
    14ee:	8f e3       	ldi	r24, 0x3F	; 63
    14f0:	9c e9       	ldi	r25, 0x9C	; 156
    14f2:	01 97       	sbiw	r24, 0x01	; 1
    14f4:	f1 f7       	brne	.-4      	; 0x14f2 <Scan_USART_Transmit+0x29c>
    14f6:	00 c0       	rjmp	.+0      	; 0x14f8 <Scan_USART_Transmit+0x2a2>
    14f8:	00 00       	nop
	_delay_ms(RC_DELAY);
//************************************** Ждём и начинаем опрос
pull_PINF();
    14fa:	0e 94 cb 07 	call	0xf96	; 0xf96 <pull_PINF>
//************************************** Опрос PINE-2
if (PINE & (1 << 2))
    14fe:	0a 9b       	sbis	0x01, 2	; 1
    1500:	05 c0       	rjmp	.+10     	; 0x150c <Scan_USART_Transmit+0x2b6>
{
	while ( !( UCSR0A & (1<<UDRE0)) );
    1502:	5d 9b       	sbis	0x0b, 5	; 11
    1504:	fe cf       	rjmp	.-4      	; 0x1502 <Scan_USART_Transmit+0x2ac>
	UDR0 = '1';
    1506:	81 e3       	ldi	r24, 0x31	; 49
    1508:	8c b9       	out	0x0c, r24	; 12
    150a:	02 c0       	rjmp	.+4      	; 0x1510 <Scan_USART_Transmit+0x2ba>
}
else USART_Transmit_0();
    150c:	0e 94 87 16 	call	0x2d0e	; 0x2d0e <USART_Transmit_0>
//************************************** Посылем * при наступлении очереди передачи состояния пина с выставленной 1	
	while ( !( UCSR0A & (1<<UDRE0)) );
    1510:	5d 9b       	sbis	0x0b, 5	; 11
    1512:	fe cf       	rjmp	.-4      	; 0x1510 <Scan_USART_Transmit+0x2ba>
		UDR0 = 'U';
    1514:	85 e5       	ldi	r24, 0x55	; 85
    1516:	8c b9       	out	0x0c, r24	; 12
//************************************** Опрос PINE-4
if (PINE & (1 << 4))
    1518:	0c 9b       	sbis	0x01, 4	; 1
    151a:	05 c0       	rjmp	.+10     	; 0x1526 <Scan_USART_Transmit+0x2d0>
{
	while ( !( UCSR0A & (1<<UDRE0)) );
    151c:	5d 9b       	sbis	0x0b, 5	; 11
    151e:	fe cf       	rjmp	.-4      	; 0x151c <Scan_USART_Transmit+0x2c6>
	UDR0 = '1';
    1520:	81 e3       	ldi	r24, 0x31	; 49
    1522:	8c b9       	out	0x0c, r24	; 12
    1524:	02 c0       	rjmp	.+4      	; 0x152a <Scan_USART_Transmit+0x2d4>
}
else USART_Transmit_0();
    1526:	0e 94 87 16 	call	0x2d0e	; 0x2d0e <USART_Transmit_0>
//************************************** Опрос PINE-5
if (PINE & (1 << 5))
    152a:	0d 9b       	sbis	0x01, 5	; 1
    152c:	05 c0       	rjmp	.+10     	; 0x1538 <Scan_USART_Transmit+0x2e2>
{
	while ( !( UCSR0A & (1<<UDRE0)) );
    152e:	5d 9b       	sbis	0x0b, 5	; 11
    1530:	fe cf       	rjmp	.-4      	; 0x152e <Scan_USART_Transmit+0x2d8>
	UDR0 = '1';
    1532:	81 e3       	ldi	r24, 0x31	; 49
    1534:	8c b9       	out	0x0c, r24	; 12
    1536:	02 c0       	rjmp	.+4      	; 0x153c <Scan_USART_Transmit+0x2e6>
}
else USART_Transmit_0();
    1538:	0e 94 87 16 	call	0x2d0e	; 0x2d0e <USART_Transmit_0>
//************************************** Опрос PINE-6
if (PINE & (1 << 6))
    153c:	0e 9b       	sbis	0x01, 6	; 1
    153e:	05 c0       	rjmp	.+10     	; 0x154a <Scan_USART_Transmit+0x2f4>
{
	while ( !( UCSR0A & (1<<UDRE0)) );
    1540:	5d 9b       	sbis	0x0b, 5	; 11
    1542:	fe cf       	rjmp	.-4      	; 0x1540 <Scan_USART_Transmit+0x2ea>
	UDR0 = '1';
    1544:	81 e3       	ldi	r24, 0x31	; 49
    1546:	8c b9       	out	0x0c, r24	; 12
    1548:	02 c0       	rjmp	.+4      	; 0x154e <Scan_USART_Transmit+0x2f8>
}
else USART_Transmit_0();
    154a:	0e 94 87 16 	call	0x2d0e	; 0x2d0e <USART_Transmit_0>
//************************************** Опрос PINE-7
if (PINE & (1 << 7))
    154e:	0f 9b       	sbis	0x01, 7	; 1
    1550:	05 c0       	rjmp	.+10     	; 0x155c <Scan_USART_Transmit+0x306>
{
	while ( !( UCSR0A & (1<<UDRE0)) );
    1552:	5d 9b       	sbis	0x0b, 5	; 11
    1554:	fe cf       	rjmp	.-4      	; 0x1552 <Scan_USART_Transmit+0x2fc>
	UDR0 = '1';
    1556:	81 e3       	ldi	r24, 0x31	; 49
    1558:	8c b9       	out	0x0c, r24	; 12
    155a:	02 c0       	rjmp	.+4      	; 0x1560 <Scan_USART_Transmit+0x30a>
}
else USART_Transmit_0();
    155c:	0e 94 87 16 	call	0x2d0e	; 0x2d0e <USART_Transmit_0>


pull_PINB();
    1560:	0e 94 27 08 	call	0x104e	; 0x104e <pull_PINB>
pull_PIND();
    1564:	0e 94 70 08 	call	0x10e0	; 0x10e0 <pull_PIND>
pull_PINC();
    1568:	0e 94 99 08 	call	0x1132	; 0x1132 <pull_PINC>
pull_PINA();
    156c:	0e 94 e2 08 	call	0x11c4	; 0x11c4 <pull_PINA>

DDRE &= ~(1 << 3);			// Убираем 1 с пина
    1570:	13 98       	cbi	0x02, 3	; 2
PORTE &= ~(1 << 3);
    1572:	1b 98       	cbi	0x03, 3	; 3
//*********************************************************************************************** Выставляем 1 на пин 4 порта E 
	DDRE |=	1 << 4;
    1574:	14 9a       	sbi	0x02, 4	; 2
	PORTE |= 1 << 4;
    1576:	1c 9a       	sbi	0x03, 4	; 3
    1578:	8f e3       	ldi	r24, 0x3F	; 63
    157a:	9c e9       	ldi	r25, 0x9C	; 156
    157c:	01 97       	sbiw	r24, 0x01	; 1
    157e:	f1 f7       	brne	.-4      	; 0x157c <Scan_USART_Transmit+0x326>
    1580:	00 c0       	rjmp	.+0      	; 0x1582 <Scan_USART_Transmit+0x32c>
    1582:	00 00       	nop
	_delay_ms(RC_DELAY);
//************************************** Ждём и начинаем опрос
pull_PINF();
    1584:	0e 94 cb 07 	call	0xf96	; 0xf96 <pull_PINF>
//************************************** Опрос PINE-2
if (PINE & (1 << 2))
    1588:	0a 9b       	sbis	0x01, 2	; 1
    158a:	05 c0       	rjmp	.+10     	; 0x1596 <Scan_USART_Transmit+0x340>
{
	while ( !( UCSR0A & (1<<UDRE0)) );
    158c:	5d 9b       	sbis	0x0b, 5	; 11
    158e:	fe cf       	rjmp	.-4      	; 0x158c <Scan_USART_Transmit+0x336>
	UDR0 = '1';
    1590:	81 e3       	ldi	r24, 0x31	; 49
    1592:	8c b9       	out	0x0c, r24	; 12
    1594:	02 c0       	rjmp	.+4      	; 0x159a <Scan_USART_Transmit+0x344>
}
else USART_Transmit_0();
    1596:	0e 94 87 16 	call	0x2d0e	; 0x2d0e <USART_Transmit_0>
//************************************** Опрос PINE-3
if (PINE & (1 << 3))
    159a:	0b 9b       	sbis	0x01, 3	; 1
    159c:	05 c0       	rjmp	.+10     	; 0x15a8 <Scan_USART_Transmit+0x352>
{
	while ( !( UCSR0A & (1<<UDRE0)) );
    159e:	5d 9b       	sbis	0x0b, 5	; 11
    15a0:	fe cf       	rjmp	.-4      	; 0x159e <Scan_USART_Transmit+0x348>
	UDR0 = '1';
    15a2:	81 e3       	ldi	r24, 0x31	; 49
    15a4:	8c b9       	out	0x0c, r24	; 12
    15a6:	02 c0       	rjmp	.+4      	; 0x15ac <Scan_USART_Transmit+0x356>
}
else USART_Transmit_0();
    15a8:	0e 94 87 16 	call	0x2d0e	; 0x2d0e <USART_Transmit_0>
//************************************** Посылем * при наступлении очереди передачи состояния пина с выставленной 1	
	while ( !( UCSR0A & (1<<UDRE0)) );
    15ac:	5d 9b       	sbis	0x0b, 5	; 11
    15ae:	fe cf       	rjmp	.-4      	; 0x15ac <Scan_USART_Transmit+0x356>
		UDR0 = 'U';
    15b0:	85 e5       	ldi	r24, 0x55	; 85
    15b2:	8c b9       	out	0x0c, r24	; 12
//************************************** Опрос PINE-5
if (PINE & (1 << 5))
    15b4:	0d 9b       	sbis	0x01, 5	; 1
    15b6:	05 c0       	rjmp	.+10     	; 0x15c2 <Scan_USART_Transmit+0x36c>
{
	while ( !( UCSR0A & (1<<UDRE0)) );
    15b8:	5d 9b       	sbis	0x0b, 5	; 11
    15ba:	fe cf       	rjmp	.-4      	; 0x15b8 <Scan_USART_Transmit+0x362>
	UDR0 = '1';
    15bc:	81 e3       	ldi	r24, 0x31	; 49
    15be:	8c b9       	out	0x0c, r24	; 12
    15c0:	02 c0       	rjmp	.+4      	; 0x15c6 <Scan_USART_Transmit+0x370>
}
else USART_Transmit_0();
    15c2:	0e 94 87 16 	call	0x2d0e	; 0x2d0e <USART_Transmit_0>
//************************************** Опрос PINE-6
if (PINE & (1 << 6))
    15c6:	0e 9b       	sbis	0x01, 6	; 1
    15c8:	05 c0       	rjmp	.+10     	; 0x15d4 <Scan_USART_Transmit+0x37e>
{
	while ( !( UCSR0A & (1<<UDRE0)) );
    15ca:	5d 9b       	sbis	0x0b, 5	; 11
    15cc:	fe cf       	rjmp	.-4      	; 0x15ca <Scan_USART_Transmit+0x374>
	UDR0 = '1';
    15ce:	81 e3       	ldi	r24, 0x31	; 49
    15d0:	8c b9       	out	0x0c, r24	; 12
    15d2:	02 c0       	rjmp	.+4      	; 0x15d8 <Scan_USART_Transmit+0x382>
}
else USART_Transmit_0();
    15d4:	0e 94 87 16 	call	0x2d0e	; 0x2d0e <USART_Transmit_0>
//************************************** Опрос PINE-7
if (PINE & (1 << 7))
    15d8:	0f 9b       	sbis	0x01, 7	; 1
    15da:	05 c0       	rjmp	.+10     	; 0x15e6 <Scan_USART_Transmit+0x390>
{
	while ( !( UCSR0A & (1<<UDRE0)) );
    15dc:	5d 9b       	sbis	0x0b, 5	; 11
    15de:	fe cf       	rjmp	.-4      	; 0x15dc <Scan_USART_Transmit+0x386>
	UDR0 = '1';
    15e0:	81 e3       	ldi	r24, 0x31	; 49
    15e2:	8c b9       	out	0x0c, r24	; 12
    15e4:	02 c0       	rjmp	.+4      	; 0x15ea <Scan_USART_Transmit+0x394>
}
else USART_Transmit_0();
    15e6:	0e 94 87 16 	call	0x2d0e	; 0x2d0e <USART_Transmit_0>


pull_PINB();
    15ea:	0e 94 27 08 	call	0x104e	; 0x104e <pull_PINB>
pull_PIND();
    15ee:	0e 94 70 08 	call	0x10e0	; 0x10e0 <pull_PIND>
pull_PINC();
    15f2:	0e 94 99 08 	call	0x1132	; 0x1132 <pull_PINC>
pull_PINA();
    15f6:	0e 94 e2 08 	call	0x11c4	; 0x11c4 <pull_PINA>

DDRE &= ~(1 << 4);			// Убираем 1 с пина
    15fa:	14 98       	cbi	0x02, 4	; 2
PORTE &= ~(1 << 4);
    15fc:	1c 98       	cbi	0x03, 4	; 3
//*********************************************************************************************** Выставляем 1 на пин 5 порта E 
	DDRE |=	1 << 5;
    15fe:	15 9a       	sbi	0x02, 5	; 2
	PORTE |= 1 << 5;
    1600:	1d 9a       	sbi	0x03, 5	; 3
    1602:	8f e3       	ldi	r24, 0x3F	; 63
    1604:	9c e9       	ldi	r25, 0x9C	; 156
    1606:	01 97       	sbiw	r24, 0x01	; 1
    1608:	f1 f7       	brne	.-4      	; 0x1606 <Scan_USART_Transmit+0x3b0>
    160a:	00 c0       	rjmp	.+0      	; 0x160c <Scan_USART_Transmit+0x3b6>
    160c:	00 00       	nop
	_delay_ms(RC_DELAY);
//************************************** Ждём и начинаем опрос
pull_PINF();
    160e:	0e 94 cb 07 	call	0xf96	; 0xf96 <pull_PINF>
//************************************** Опрос PINE-2
if (PINE & (1 << 2))
    1612:	0a 9b       	sbis	0x01, 2	; 1
    1614:	05 c0       	rjmp	.+10     	; 0x1620 <Scan_USART_Transmit+0x3ca>
{
	while ( !( UCSR0A & (1<<UDRE0)) );
    1616:	5d 9b       	sbis	0x0b, 5	; 11
    1618:	fe cf       	rjmp	.-4      	; 0x1616 <Scan_USART_Transmit+0x3c0>
	UDR0 = '1';
    161a:	81 e3       	ldi	r24, 0x31	; 49
    161c:	8c b9       	out	0x0c, r24	; 12
    161e:	02 c0       	rjmp	.+4      	; 0x1624 <Scan_USART_Transmit+0x3ce>
}
else USART_Transmit_0();
    1620:	0e 94 87 16 	call	0x2d0e	; 0x2d0e <USART_Transmit_0>
//************************************** Опрос PINE-3
if (PINE & (1 << 3))
    1624:	0b 9b       	sbis	0x01, 3	; 1
    1626:	05 c0       	rjmp	.+10     	; 0x1632 <Scan_USART_Transmit+0x3dc>
{
	while ( !( UCSR0A & (1<<UDRE0)) );
    1628:	5d 9b       	sbis	0x0b, 5	; 11
    162a:	fe cf       	rjmp	.-4      	; 0x1628 <Scan_USART_Transmit+0x3d2>
	UDR0 = '1';
    162c:	81 e3       	ldi	r24, 0x31	; 49
    162e:	8c b9       	out	0x0c, r24	; 12
    1630:	02 c0       	rjmp	.+4      	; 0x1636 <Scan_USART_Transmit+0x3e0>
}
else USART_Transmit_0();
    1632:	0e 94 87 16 	call	0x2d0e	; 0x2d0e <USART_Transmit_0>
//************************************** Опрос PINE-4
if (PINE & (1 << 4))
    1636:	0c 9b       	sbis	0x01, 4	; 1
    1638:	05 c0       	rjmp	.+10     	; 0x1644 <Scan_USART_Transmit+0x3ee>
{
	while ( !( UCSR0A & (1<<UDRE0)) );
    163a:	5d 9b       	sbis	0x0b, 5	; 11
    163c:	fe cf       	rjmp	.-4      	; 0x163a <Scan_USART_Transmit+0x3e4>
	UDR0 = '1';
    163e:	81 e3       	ldi	r24, 0x31	; 49
    1640:	8c b9       	out	0x0c, r24	; 12
    1642:	02 c0       	rjmp	.+4      	; 0x1648 <Scan_USART_Transmit+0x3f2>
}
else USART_Transmit_0();
    1644:	0e 94 87 16 	call	0x2d0e	; 0x2d0e <USART_Transmit_0>
//************************************** Посылем * при наступлении очереди передачи состояния пина с выставленной 1	
	while ( !( UCSR0A & (1<<UDRE0)) );
    1648:	5d 9b       	sbis	0x0b, 5	; 11
    164a:	fe cf       	rjmp	.-4      	; 0x1648 <Scan_USART_Transmit+0x3f2>
		UDR0 = 'U';
    164c:	85 e5       	ldi	r24, 0x55	; 85
    164e:	8c b9       	out	0x0c, r24	; 12
//************************************** Опрос PINE-6
if (PINE & (1 << 6))
    1650:	0e 9b       	sbis	0x01, 6	; 1
    1652:	05 c0       	rjmp	.+10     	; 0x165e <Scan_USART_Transmit+0x408>
{
	while ( !( UCSR0A & (1<<UDRE0)) );
    1654:	5d 9b       	sbis	0x0b, 5	; 11
    1656:	fe cf       	rjmp	.-4      	; 0x1654 <Scan_USART_Transmit+0x3fe>
	UDR0 = '1';
    1658:	81 e3       	ldi	r24, 0x31	; 49
    165a:	8c b9       	out	0x0c, r24	; 12
    165c:	02 c0       	rjmp	.+4      	; 0x1662 <Scan_USART_Transmit+0x40c>
}
else USART_Transmit_0();
    165e:	0e 94 87 16 	call	0x2d0e	; 0x2d0e <USART_Transmit_0>
//************************************** Опрос PINE-7
if (PINE & (1 << 7))
    1662:	0f 9b       	sbis	0x01, 7	; 1
    1664:	05 c0       	rjmp	.+10     	; 0x1670 <Scan_USART_Transmit+0x41a>
{
	while ( !( UCSR0A & (1<<UDRE0)) );
    1666:	5d 9b       	sbis	0x0b, 5	; 11
    1668:	fe cf       	rjmp	.-4      	; 0x1666 <Scan_USART_Transmit+0x410>
	UDR0 = '1';
    166a:	81 e3       	ldi	r24, 0x31	; 49
    166c:	8c b9       	out	0x0c, r24	; 12
    166e:	02 c0       	rjmp	.+4      	; 0x1674 <Scan_USART_Transmit+0x41e>
}
else USART_Transmit_0();
    1670:	0e 94 87 16 	call	0x2d0e	; 0x2d0e <USART_Transmit_0>


pull_PINB();
    1674:	0e 94 27 08 	call	0x104e	; 0x104e <pull_PINB>
pull_PIND();
    1678:	0e 94 70 08 	call	0x10e0	; 0x10e0 <pull_PIND>
pull_PINC();
    167c:	0e 94 99 08 	call	0x1132	; 0x1132 <pull_PINC>
pull_PINA();
    1680:	0e 94 e2 08 	call	0x11c4	; 0x11c4 <pull_PINA>

DDRE &= ~(1 << 5);			// Убираем 1 с пина
    1684:	15 98       	cbi	0x02, 5	; 2
PORTE &= ~(1 << 5);
    1686:	1d 98       	cbi	0x03, 5	; 3
//*********************************************************************************************** Выставляем 1 на пин 6 порта E 
	DDRE |=	1 << 6;
    1688:	16 9a       	sbi	0x02, 6	; 2
	PORTE |= 1 << 6;
    168a:	1e 9a       	sbi	0x03, 6	; 3
    168c:	8f e3       	ldi	r24, 0x3F	; 63
    168e:	9c e9       	ldi	r25, 0x9C	; 156
    1690:	01 97       	sbiw	r24, 0x01	; 1
    1692:	f1 f7       	brne	.-4      	; 0x1690 <Scan_USART_Transmit+0x43a>
    1694:	00 c0       	rjmp	.+0      	; 0x1696 <Scan_USART_Transmit+0x440>
    1696:	00 00       	nop
	_delay_ms(RC_DELAY);
//************************************** Ждём и начинаем опрос
pull_PINF();
    1698:	0e 94 cb 07 	call	0xf96	; 0xf96 <pull_PINF>
//************************************** Опрос PINE-2
if (PINE & (1 << 2))
    169c:	0a 9b       	sbis	0x01, 2	; 1
    169e:	05 c0       	rjmp	.+10     	; 0x16aa <Scan_USART_Transmit+0x454>
{
	while ( !( UCSR0A & (1<<UDRE0)) );
    16a0:	5d 9b       	sbis	0x0b, 5	; 11
    16a2:	fe cf       	rjmp	.-4      	; 0x16a0 <Scan_USART_Transmit+0x44a>
	UDR0 = '1';
    16a4:	81 e3       	ldi	r24, 0x31	; 49
    16a6:	8c b9       	out	0x0c, r24	; 12
    16a8:	02 c0       	rjmp	.+4      	; 0x16ae <Scan_USART_Transmit+0x458>
}
else USART_Transmit_0();
    16aa:	0e 94 87 16 	call	0x2d0e	; 0x2d0e <USART_Transmit_0>
//************************************** Опрос PINE-3
if (PINE & (1 << 3))
    16ae:	0b 9b       	sbis	0x01, 3	; 1
    16b0:	05 c0       	rjmp	.+10     	; 0x16bc <Scan_USART_Transmit+0x466>
{
	while ( !( UCSR0A & (1<<UDRE0)) );
    16b2:	5d 9b       	sbis	0x0b, 5	; 11
    16b4:	fe cf       	rjmp	.-4      	; 0x16b2 <Scan_USART_Transmit+0x45c>
	UDR0 = '1';
    16b6:	81 e3       	ldi	r24, 0x31	; 49
    16b8:	8c b9       	out	0x0c, r24	; 12
    16ba:	02 c0       	rjmp	.+4      	; 0x16c0 <Scan_USART_Transmit+0x46a>
}
else USART_Transmit_0();
    16bc:	0e 94 87 16 	call	0x2d0e	; 0x2d0e <USART_Transmit_0>
//************************************** Опрос PINE-4
if (PINE & (1 << 4))
    16c0:	0c 9b       	sbis	0x01, 4	; 1
    16c2:	05 c0       	rjmp	.+10     	; 0x16ce <Scan_USART_Transmit+0x478>
{
	while ( !( UCSR0A & (1<<UDRE0)) );
    16c4:	5d 9b       	sbis	0x0b, 5	; 11
    16c6:	fe cf       	rjmp	.-4      	; 0x16c4 <Scan_USART_Transmit+0x46e>
	UDR0 = '1';
    16c8:	81 e3       	ldi	r24, 0x31	; 49
    16ca:	8c b9       	out	0x0c, r24	; 12
    16cc:	02 c0       	rjmp	.+4      	; 0x16d2 <Scan_USART_Transmit+0x47c>
}
else USART_Transmit_0();
    16ce:	0e 94 87 16 	call	0x2d0e	; 0x2d0e <USART_Transmit_0>
//************************************** Опрос PINE-5
if (PINE & (1 << 5))
    16d2:	0d 9b       	sbis	0x01, 5	; 1
    16d4:	05 c0       	rjmp	.+10     	; 0x16e0 <Scan_USART_Transmit+0x48a>
{
	while ( !( UCSR0A & (1<<UDRE0)) );
    16d6:	5d 9b       	sbis	0x0b, 5	; 11
    16d8:	fe cf       	rjmp	.-4      	; 0x16d6 <Scan_USART_Transmit+0x480>
	UDR0 = '1';
    16da:	81 e3       	ldi	r24, 0x31	; 49
    16dc:	8c b9       	out	0x0c, r24	; 12
    16de:	02 c0       	rjmp	.+4      	; 0x16e4 <Scan_USART_Transmit+0x48e>
}
else USART_Transmit_0();
    16e0:	0e 94 87 16 	call	0x2d0e	; 0x2d0e <USART_Transmit_0>
//************************************** Посылем * при наступлении очереди передачи состояния пина с выставленной 1	
	while ( !( UCSR0A & (1<<UDRE0)) );
    16e4:	5d 9b       	sbis	0x0b, 5	; 11
    16e6:	fe cf       	rjmp	.-4      	; 0x16e4 <Scan_USART_Transmit+0x48e>
		UDR0 = 'U';
    16e8:	85 e5       	ldi	r24, 0x55	; 85
    16ea:	8c b9       	out	0x0c, r24	; 12
//************************************** Опрос PINE-7
if (PINE & (1 << 7))
    16ec:	0f 9b       	sbis	0x01, 7	; 1
    16ee:	05 c0       	rjmp	.+10     	; 0x16fa <Scan_USART_Transmit+0x4a4>
{
	while ( !( UCSR0A & (1<<UDRE0)) );
    16f0:	5d 9b       	sbis	0x0b, 5	; 11
    16f2:	fe cf       	rjmp	.-4      	; 0x16f0 <Scan_USART_Transmit+0x49a>
	UDR0 = '1';
    16f4:	81 e3       	ldi	r24, 0x31	; 49
    16f6:	8c b9       	out	0x0c, r24	; 12
    16f8:	02 c0       	rjmp	.+4      	; 0x16fe <Scan_USART_Transmit+0x4a8>
}
else USART_Transmit_0();
    16fa:	0e 94 87 16 	call	0x2d0e	; 0x2d0e <USART_Transmit_0>


pull_PINB();
    16fe:	0e 94 27 08 	call	0x104e	; 0x104e <pull_PINB>
pull_PIND();
    1702:	0e 94 70 08 	call	0x10e0	; 0x10e0 <pull_PIND>
pull_PINC();
    1706:	0e 94 99 08 	call	0x1132	; 0x1132 <pull_PINC>
pull_PINA();
    170a:	0e 94 e2 08 	call	0x11c4	; 0x11c4 <pull_PINA>

DDRE &= ~(1 << 6);			// Убираем 1 с пина
    170e:	16 98       	cbi	0x02, 6	; 2
PORTE &= ~(1 << 6);
    1710:	1e 98       	cbi	0x03, 6	; 3
//*********************************************************************************************** Выставляем 1 на пин 7 порта E 
	DDRE |=	1 << 7;
    1712:	17 9a       	sbi	0x02, 7	; 2
	PORTE |= 1 << 7;
    1714:	1f 9a       	sbi	0x03, 7	; 3
    1716:	8f e3       	ldi	r24, 0x3F	; 63
    1718:	9c e9       	ldi	r25, 0x9C	; 156
    171a:	01 97       	sbiw	r24, 0x01	; 1
    171c:	f1 f7       	brne	.-4      	; 0x171a <Scan_USART_Transmit+0x4c4>
    171e:	00 c0       	rjmp	.+0      	; 0x1720 <Scan_USART_Transmit+0x4ca>
    1720:	00 00       	nop
	_delay_ms(RC_DELAY);
//************************************** Ждём и начинаем опрос
pull_PINF();
    1722:	0e 94 cb 07 	call	0xf96	; 0xf96 <pull_PINF>
//************************************** Опрос PINE-2
if (PINE & (1 << 2))
    1726:	0a 9b       	sbis	0x01, 2	; 1
    1728:	05 c0       	rjmp	.+10     	; 0x1734 <Scan_USART_Transmit+0x4de>
{
	while ( !( UCSR0A & (1<<UDRE0)) );
    172a:	5d 9b       	sbis	0x0b, 5	; 11
    172c:	fe cf       	rjmp	.-4      	; 0x172a <Scan_USART_Transmit+0x4d4>
	UDR0 = '1';
    172e:	81 e3       	ldi	r24, 0x31	; 49
    1730:	8c b9       	out	0x0c, r24	; 12
    1732:	02 c0       	rjmp	.+4      	; 0x1738 <Scan_USART_Transmit+0x4e2>
}
else USART_Transmit_0();
    1734:	0e 94 87 16 	call	0x2d0e	; 0x2d0e <USART_Transmit_0>
//************************************** Опрос PINE-3
if (PINE & (1 << 3))
    1738:	0b 9b       	sbis	0x01, 3	; 1
    173a:	05 c0       	rjmp	.+10     	; 0x1746 <Scan_USART_Transmit+0x4f0>
{
	while ( !( UCSR0A & (1<<UDRE0)) );
    173c:	5d 9b       	sbis	0x0b, 5	; 11
    173e:	fe cf       	rjmp	.-4      	; 0x173c <Scan_USART_Transmit+0x4e6>
	UDR0 = '1';
    1740:	81 e3       	ldi	r24, 0x31	; 49
    1742:	8c b9       	out	0x0c, r24	; 12
    1744:	02 c0       	rjmp	.+4      	; 0x174a <Scan_USART_Transmit+0x4f4>
}
else USART_Transmit_0();
    1746:	0e 94 87 16 	call	0x2d0e	; 0x2d0e <USART_Transmit_0>
//************************************** Опрос PINE-4
if (PINE & (1 << 4))
    174a:	0c 9b       	sbis	0x01, 4	; 1
    174c:	05 c0       	rjmp	.+10     	; 0x1758 <Scan_USART_Transmit+0x502>
{
	while ( !( UCSR0A & (1<<UDRE0)) );
    174e:	5d 9b       	sbis	0x0b, 5	; 11
    1750:	fe cf       	rjmp	.-4      	; 0x174e <Scan_USART_Transmit+0x4f8>
	UDR0 = '1';
    1752:	81 e3       	ldi	r24, 0x31	; 49
    1754:	8c b9       	out	0x0c, r24	; 12
    1756:	02 c0       	rjmp	.+4      	; 0x175c <Scan_USART_Transmit+0x506>
}
else USART_Transmit_0();
    1758:	0e 94 87 16 	call	0x2d0e	; 0x2d0e <USART_Transmit_0>
//************************************** Опрос PINE-5
if (PINE & (1 << 5))
    175c:	0d 9b       	sbis	0x01, 5	; 1
    175e:	05 c0       	rjmp	.+10     	; 0x176a <Scan_USART_Transmit+0x514>
{
	while ( !( UCSR0A & (1<<UDRE0)) );
    1760:	5d 9b       	sbis	0x0b, 5	; 11
    1762:	fe cf       	rjmp	.-4      	; 0x1760 <Scan_USART_Transmit+0x50a>
	UDR0 = '1';
    1764:	81 e3       	ldi	r24, 0x31	; 49
    1766:	8c b9       	out	0x0c, r24	; 12
    1768:	02 c0       	rjmp	.+4      	; 0x176e <Scan_USART_Transmit+0x518>
}
else USART_Transmit_0();
    176a:	0e 94 87 16 	call	0x2d0e	; 0x2d0e <USART_Transmit_0>
//************************************** Опрос PINE-6
if (PINE & (1 << 6))
    176e:	0e 9b       	sbis	0x01, 6	; 1
    1770:	05 c0       	rjmp	.+10     	; 0x177c <Scan_USART_Transmit+0x526>
{
	while ( !( UCSR0A & (1<<UDRE0)) );
    1772:	5d 9b       	sbis	0x0b, 5	; 11
    1774:	fe cf       	rjmp	.-4      	; 0x1772 <Scan_USART_Transmit+0x51c>
	UDR0 = '1';
    1776:	81 e3       	ldi	r24, 0x31	; 49
    1778:	8c b9       	out	0x0c, r24	; 12
    177a:	02 c0       	rjmp	.+4      	; 0x1780 <Scan_USART_Transmit+0x52a>
}
else USART_Transmit_0();
    177c:	0e 94 87 16 	call	0x2d0e	; 0x2d0e <USART_Transmit_0>
//************************************** Посылем * при наступлении очереди передачи состояния пина с выставленной 1	
	while ( !( UCSR0A & (1<<UDRE0)) );
    1780:	5d 9b       	sbis	0x0b, 5	; 11
    1782:	fe cf       	rjmp	.-4      	; 0x1780 <Scan_USART_Transmit+0x52a>
		UDR0 = 'U';
    1784:	85 e5       	ldi	r24, 0x55	; 85
    1786:	8c b9       	out	0x0c, r24	; 12


pull_PINB();
    1788:	0e 94 27 08 	call	0x104e	; 0x104e <pull_PINB>
pull_PIND();
    178c:	0e 94 70 08 	call	0x10e0	; 0x10e0 <pull_PIND>
pull_PINC();
    1790:	0e 94 99 08 	call	0x1132	; 0x1132 <pull_PINC>
pull_PINA();
    1794:	0e 94 e2 08 	call	0x11c4	; 0x11c4 <pull_PINA>

DDRE &= ~(1 << 7);			// Убираем 1 с пина
    1798:	17 98       	cbi	0x02, 7	; 2
PORTE &= ~(1 << 7);
    179a:	1f 98       	cbi	0x03, 7	; 3
//*********************************************************************************************** Выставляем 1 на пин 0 порта B
	DDRB |=	1 << 0;
    179c:	b8 9a       	sbi	0x17, 0	; 23
	PORTB |= 1 << 0;
    179e:	c0 9a       	sbi	0x18, 0	; 24
    17a0:	8f e3       	ldi	r24, 0x3F	; 63
    17a2:	9c e9       	ldi	r25, 0x9C	; 156
    17a4:	01 97       	sbiw	r24, 0x01	; 1
    17a6:	f1 f7       	brne	.-4      	; 0x17a4 <Scan_USART_Transmit+0x54e>
    17a8:	00 c0       	rjmp	.+0      	; 0x17aa <Scan_USART_Transmit+0x554>
    17aa:	00 00       	nop
	_delay_ms(RC_DELAY);
//************************************** Ждём и начинаем опрос
pull_PINF();
    17ac:	0e 94 cb 07 	call	0xf96	; 0xf96 <pull_PINF>
pull_PINE();
    17b0:	0e 94 f0 07 	call	0xfe0	; 0xfe0 <pull_PINE>
//************************************** Посылем * при наступлении очереди передачи состояния пина с выставленной 1	
	while ( !( UCSR0A & (1<<UDRE0)) );
    17b4:	5d 9b       	sbis	0x0b, 5	; 11
    17b6:	fe cf       	rjmp	.-4      	; 0x17b4 <Scan_USART_Transmit+0x55e>
		UDR0 = 'U';
    17b8:	85 e5       	ldi	r24, 0x55	; 85
    17ba:	8c b9       	out	0x0c, r24	; 12
//************************************** Опрос PINB-1
if (PINB & (1 << 1))
    17bc:	b1 9b       	sbis	0x16, 1	; 22
    17be:	05 c0       	rjmp	.+10     	; 0x17ca <Scan_USART_Transmit+0x574>
{
	while ( !( UCSR0A & (1<<UDRE0)) );
    17c0:	5d 9b       	sbis	0x0b, 5	; 11
    17c2:	fe cf       	rjmp	.-4      	; 0x17c0 <Scan_USART_Transmit+0x56a>
	UDR0 = '1';
    17c4:	81 e3       	ldi	r24, 0x31	; 49
    17c6:	8c b9       	out	0x0c, r24	; 12
    17c8:	02 c0       	rjmp	.+4      	; 0x17ce <Scan_USART_Transmit+0x578>
}
else USART_Transmit_0();
    17ca:	0e 94 87 16 	call	0x2d0e	; 0x2d0e <USART_Transmit_0>
//************************************** Опрос PINB-2
if (PINB & (1 << 2))
    17ce:	b2 9b       	sbis	0x16, 2	; 22
    17d0:	05 c0       	rjmp	.+10     	; 0x17dc <Scan_USART_Transmit+0x586>
{
	while ( !( UCSR0A & (1<<UDRE0)) );
    17d2:	5d 9b       	sbis	0x0b, 5	; 11
    17d4:	fe cf       	rjmp	.-4      	; 0x17d2 <Scan_USART_Transmit+0x57c>
	UDR0 = '1';
    17d6:	81 e3       	ldi	r24, 0x31	; 49
    17d8:	8c b9       	out	0x0c, r24	; 12
    17da:	02 c0       	rjmp	.+4      	; 0x17e0 <Scan_USART_Transmit+0x58a>
}
else USART_Transmit_0();
    17dc:	0e 94 87 16 	call	0x2d0e	; 0x2d0e <USART_Transmit_0>
//************************************** Опрос PINB-3
if (PINB & (1 << 3))
    17e0:	b3 9b       	sbis	0x16, 3	; 22
    17e2:	05 c0       	rjmp	.+10     	; 0x17ee <Scan_USART_Transmit+0x598>
{
	while ( !( UCSR0A & (1<<UDRE0)) );
    17e4:	5d 9b       	sbis	0x0b, 5	; 11
    17e6:	fe cf       	rjmp	.-4      	; 0x17e4 <Scan_USART_Transmit+0x58e>
	UDR0 = '1';
    17e8:	81 e3       	ldi	r24, 0x31	; 49
    17ea:	8c b9       	out	0x0c, r24	; 12
    17ec:	02 c0       	rjmp	.+4      	; 0x17f2 <Scan_USART_Transmit+0x59c>
}
else USART_Transmit_0();
    17ee:	0e 94 87 16 	call	0x2d0e	; 0x2d0e <USART_Transmit_0>
//************************************** Опрос PINB-4
if (PINB & (1 << 4))
    17f2:	b4 9b       	sbis	0x16, 4	; 22
    17f4:	05 c0       	rjmp	.+10     	; 0x1800 <Scan_USART_Transmit+0x5aa>
{
	while ( !( UCSR0A & (1<<UDRE0)) );
    17f6:	5d 9b       	sbis	0x0b, 5	; 11
    17f8:	fe cf       	rjmp	.-4      	; 0x17f6 <Scan_USART_Transmit+0x5a0>
	UDR0 = '1';
    17fa:	81 e3       	ldi	r24, 0x31	; 49
    17fc:	8c b9       	out	0x0c, r24	; 12
    17fe:	02 c0       	rjmp	.+4      	; 0x1804 <Scan_USART_Transmit+0x5ae>
}
else USART_Transmit_0();
    1800:	0e 94 87 16 	call	0x2d0e	; 0x2d0e <USART_Transmit_0>
//************************************** Опрос PINB-5
if (PINB & (1 << 5))
    1804:	b5 9b       	sbis	0x16, 5	; 22
    1806:	05 c0       	rjmp	.+10     	; 0x1812 <Scan_USART_Transmit+0x5bc>
{
	while ( !( UCSR0A & (1<<UDRE0)) );
    1808:	5d 9b       	sbis	0x0b, 5	; 11
    180a:	fe cf       	rjmp	.-4      	; 0x1808 <Scan_USART_Transmit+0x5b2>
	UDR0 = '1';
    180c:	81 e3       	ldi	r24, 0x31	; 49
    180e:	8c b9       	out	0x0c, r24	; 12
    1810:	02 c0       	rjmp	.+4      	; 0x1816 <Scan_USART_Transmit+0x5c0>
}
else USART_Transmit_0();
    1812:	0e 94 87 16 	call	0x2d0e	; 0x2d0e <USART_Transmit_0>
//************************************** Опрос PINB-6
if (PINB & (1 << 6))
    1816:	b6 9b       	sbis	0x16, 6	; 22
    1818:	05 c0       	rjmp	.+10     	; 0x1824 <Scan_USART_Transmit+0x5ce>
{
	while ( !( UCSR0A & (1<<UDRE0)) );
    181a:	5d 9b       	sbis	0x0b, 5	; 11
    181c:	fe cf       	rjmp	.-4      	; 0x181a <Scan_USART_Transmit+0x5c4>
	UDR0 = '1';
    181e:	81 e3       	ldi	r24, 0x31	; 49
    1820:	8c b9       	out	0x0c, r24	; 12
    1822:	02 c0       	rjmp	.+4      	; 0x1828 <Scan_USART_Transmit+0x5d2>
}
else USART_Transmit_0();
    1824:	0e 94 87 16 	call	0x2d0e	; 0x2d0e <USART_Transmit_0>
//************************************** Опрос PINB-7
if (PINB & (1 << 7))
    1828:	b7 9b       	sbis	0x16, 7	; 22
    182a:	05 c0       	rjmp	.+10     	; 0x1836 <Scan_USART_Transmit+0x5e0>
{
	while ( !( UCSR0A & (1<<UDRE0)) );
    182c:	5d 9b       	sbis	0x0b, 5	; 11
    182e:	fe cf       	rjmp	.-4      	; 0x182c <Scan_USART_Transmit+0x5d6>
	UDR0 = '1';
    1830:	81 e3       	ldi	r24, 0x31	; 49
    1832:	8c b9       	out	0x0c, r24	; 12
    1834:	02 c0       	rjmp	.+4      	; 0x183a <Scan_USART_Transmit+0x5e4>
}
else USART_Transmit_0();
    1836:	0e 94 87 16 	call	0x2d0e	; 0x2d0e <USART_Transmit_0>


pull_PIND();
    183a:	0e 94 70 08 	call	0x10e0	; 0x10e0 <pull_PIND>
pull_PINC();
    183e:	0e 94 99 08 	call	0x1132	; 0x1132 <pull_PINC>
pull_PINA();
    1842:	0e 94 e2 08 	call	0x11c4	; 0x11c4 <pull_PINA>

DDRB &= ~(1 << 0);			// Убираем 1 с пина
    1846:	b8 98       	cbi	0x17, 0	; 23
PORTB &= ~(1 << 0);
    1848:	c0 98       	cbi	0x18, 0	; 24
//*********************************************************************************************** Выставляем 1 на пин 1 порта B
	DDRB |=	1 << 1;
    184a:	b9 9a       	sbi	0x17, 1	; 23
	PORTB |= 1 << 1;
    184c:	c1 9a       	sbi	0x18, 1	; 24
    184e:	8f e3       	ldi	r24, 0x3F	; 63
    1850:	9c e9       	ldi	r25, 0x9C	; 156
    1852:	01 97       	sbiw	r24, 0x01	; 1
    1854:	f1 f7       	brne	.-4      	; 0x1852 <Scan_USART_Transmit+0x5fc>
    1856:	00 c0       	rjmp	.+0      	; 0x1858 <Scan_USART_Transmit+0x602>
    1858:	00 00       	nop
	_delay_ms(RC_DELAY);
//************************************** Ждём и начинаем опрос
pull_PINF();
    185a:	0e 94 cb 07 	call	0xf96	; 0xf96 <pull_PINF>
pull_PINE();
    185e:	0e 94 f0 07 	call	0xfe0	; 0xfe0 <pull_PINE>
//************************************** Опрос PINB-0
if (PINB & (1 << 0))
    1862:	b0 9b       	sbis	0x16, 0	; 22
    1864:	05 c0       	rjmp	.+10     	; 0x1870 <Scan_USART_Transmit+0x61a>
{
	while ( !( UCSR0A & (1<<UDRE0)) );
    1866:	5d 9b       	sbis	0x0b, 5	; 11
    1868:	fe cf       	rjmp	.-4      	; 0x1866 <Scan_USART_Transmit+0x610>
	UDR0 = '1';
    186a:	81 e3       	ldi	r24, 0x31	; 49
    186c:	8c b9       	out	0x0c, r24	; 12
    186e:	02 c0       	rjmp	.+4      	; 0x1874 <Scan_USART_Transmit+0x61e>
}
else USART_Transmit_0();
    1870:	0e 94 87 16 	call	0x2d0e	; 0x2d0e <USART_Transmit_0>
//************************************** Посылем * при наступлении очереди передачи состояния пина с выставленной 1	
	while ( !( UCSR0A & (1<<UDRE0)) );
    1874:	5d 9b       	sbis	0x0b, 5	; 11
    1876:	fe cf       	rjmp	.-4      	; 0x1874 <Scan_USART_Transmit+0x61e>
		UDR0 = 'U';
    1878:	85 e5       	ldi	r24, 0x55	; 85
    187a:	8c b9       	out	0x0c, r24	; 12
//************************************** Опрос PINB-2
if (PINB & (1 << 2))
    187c:	b2 9b       	sbis	0x16, 2	; 22
    187e:	05 c0       	rjmp	.+10     	; 0x188a <Scan_USART_Transmit+0x634>
{
	while ( !( UCSR0A & (1<<UDRE0)) );
    1880:	5d 9b       	sbis	0x0b, 5	; 11
    1882:	fe cf       	rjmp	.-4      	; 0x1880 <Scan_USART_Transmit+0x62a>
	UDR0 = '1';
    1884:	81 e3       	ldi	r24, 0x31	; 49
    1886:	8c b9       	out	0x0c, r24	; 12
    1888:	02 c0       	rjmp	.+4      	; 0x188e <Scan_USART_Transmit+0x638>
}
else USART_Transmit_0();
    188a:	0e 94 87 16 	call	0x2d0e	; 0x2d0e <USART_Transmit_0>
//************************************** Опрос PINB-3
if (PINB & (1 << 3))
    188e:	b3 9b       	sbis	0x16, 3	; 22
    1890:	05 c0       	rjmp	.+10     	; 0x189c <Scan_USART_Transmit+0x646>
{
	while ( !( UCSR0A & (1<<UDRE0)) );
    1892:	5d 9b       	sbis	0x0b, 5	; 11
    1894:	fe cf       	rjmp	.-4      	; 0x1892 <Scan_USART_Transmit+0x63c>
	UDR0 = '1';
    1896:	81 e3       	ldi	r24, 0x31	; 49
    1898:	8c b9       	out	0x0c, r24	; 12
    189a:	02 c0       	rjmp	.+4      	; 0x18a0 <Scan_USART_Transmit+0x64a>
}
else USART_Transmit_0();
    189c:	0e 94 87 16 	call	0x2d0e	; 0x2d0e <USART_Transmit_0>
//************************************** Опрос PINB-4
if (PINB & (1 << 4))
    18a0:	b4 9b       	sbis	0x16, 4	; 22
    18a2:	05 c0       	rjmp	.+10     	; 0x18ae <Scan_USART_Transmit+0x658>
{
	while ( !( UCSR0A & (1<<UDRE0)) );
    18a4:	5d 9b       	sbis	0x0b, 5	; 11
    18a6:	fe cf       	rjmp	.-4      	; 0x18a4 <Scan_USART_Transmit+0x64e>
	UDR0 = '1';
    18a8:	81 e3       	ldi	r24, 0x31	; 49
    18aa:	8c b9       	out	0x0c, r24	; 12
    18ac:	02 c0       	rjmp	.+4      	; 0x18b2 <Scan_USART_Transmit+0x65c>
}
else USART_Transmit_0();
    18ae:	0e 94 87 16 	call	0x2d0e	; 0x2d0e <USART_Transmit_0>
//************************************** Опрос PINB-5
if (PINB & (1 << 5))
    18b2:	b5 9b       	sbis	0x16, 5	; 22
    18b4:	05 c0       	rjmp	.+10     	; 0x18c0 <Scan_USART_Transmit+0x66a>
{
	while ( !( UCSR0A & (1<<UDRE0)) );
    18b6:	5d 9b       	sbis	0x0b, 5	; 11
    18b8:	fe cf       	rjmp	.-4      	; 0x18b6 <Scan_USART_Transmit+0x660>
	UDR0 = '1';
    18ba:	81 e3       	ldi	r24, 0x31	; 49
    18bc:	8c b9       	out	0x0c, r24	; 12
    18be:	02 c0       	rjmp	.+4      	; 0x18c4 <Scan_USART_Transmit+0x66e>
}
else USART_Transmit_0();
    18c0:	0e 94 87 16 	call	0x2d0e	; 0x2d0e <USART_Transmit_0>
//************************************** Опрос PINB-6
if (PINB & (1 << 6))
    18c4:	b6 9b       	sbis	0x16, 6	; 22
    18c6:	05 c0       	rjmp	.+10     	; 0x18d2 <Scan_USART_Transmit+0x67c>
{
	while ( !( UCSR0A & (1<<UDRE0)) );
    18c8:	5d 9b       	sbis	0x0b, 5	; 11
    18ca:	fe cf       	rjmp	.-4      	; 0x18c8 <Scan_USART_Transmit+0x672>
	UDR0 = '1';
    18cc:	81 e3       	ldi	r24, 0x31	; 49
    18ce:	8c b9       	out	0x0c, r24	; 12
    18d0:	02 c0       	rjmp	.+4      	; 0x18d6 <Scan_USART_Transmit+0x680>
}
else USART_Transmit_0();
    18d2:	0e 94 87 16 	call	0x2d0e	; 0x2d0e <USART_Transmit_0>
//************************************** Опрос PINB-7
if (PINB & (1 << 7))
    18d6:	b7 9b       	sbis	0x16, 7	; 22
    18d8:	05 c0       	rjmp	.+10     	; 0x18e4 <Scan_USART_Transmit+0x68e>
{
	while ( !( UCSR0A & (1<<UDRE0)) );
    18da:	5d 9b       	sbis	0x0b, 5	; 11
    18dc:	fe cf       	rjmp	.-4      	; 0x18da <Scan_USART_Transmit+0x684>
	UDR0 = '1';
    18de:	81 e3       	ldi	r24, 0x31	; 49
    18e0:	8c b9       	out	0x0c, r24	; 12
    18e2:	02 c0       	rjmp	.+4      	; 0x18e8 <Scan_USART_Transmit+0x692>
}
else USART_Transmit_0();
    18e4:	0e 94 87 16 	call	0x2d0e	; 0x2d0e <USART_Transmit_0>


pull_PIND();
    18e8:	0e 94 70 08 	call	0x10e0	; 0x10e0 <pull_PIND>
pull_PINC();
    18ec:	0e 94 99 08 	call	0x1132	; 0x1132 <pull_PINC>
pull_PINA();
    18f0:	0e 94 e2 08 	call	0x11c4	; 0x11c4 <pull_PINA>

DDRB &= ~(1 << 1);			// Убираем 1 с пина
    18f4:	b9 98       	cbi	0x17, 1	; 23
PORTB &= ~(1 << 1);
    18f6:	c1 98       	cbi	0x18, 1	; 24
//*********************************************************************************************** Выставляем 1 на пин 2 порта B
	DDRB |=	1 << 2;
    18f8:	ba 9a       	sbi	0x17, 2	; 23
	PORTB |= 1 << 2;
    18fa:	c2 9a       	sbi	0x18, 2	; 24
    18fc:	8f e3       	ldi	r24, 0x3F	; 63
    18fe:	9c e9       	ldi	r25, 0x9C	; 156
    1900:	01 97       	sbiw	r24, 0x01	; 1
    1902:	f1 f7       	brne	.-4      	; 0x1900 <Scan_USART_Transmit+0x6aa>
    1904:	00 c0       	rjmp	.+0      	; 0x1906 <Scan_USART_Transmit+0x6b0>
    1906:	00 00       	nop
	_delay_ms(RC_DELAY);
//************************************** Ждём и начинаем опрос
pull_PINF();
    1908:	0e 94 cb 07 	call	0xf96	; 0xf96 <pull_PINF>
pull_PINE();
    190c:	0e 94 f0 07 	call	0xfe0	; 0xfe0 <pull_PINE>
//************************************** Опрос PINB-0
if (PINB & (1 << 0))
    1910:	b0 9b       	sbis	0x16, 0	; 22
    1912:	05 c0       	rjmp	.+10     	; 0x191e <Scan_USART_Transmit+0x6c8>
{
	while ( !( UCSR0A & (1<<UDRE0)) );
    1914:	5d 9b       	sbis	0x0b, 5	; 11
    1916:	fe cf       	rjmp	.-4      	; 0x1914 <Scan_USART_Transmit+0x6be>
	UDR0 = '1';
    1918:	81 e3       	ldi	r24, 0x31	; 49
    191a:	8c b9       	out	0x0c, r24	; 12
    191c:	02 c0       	rjmp	.+4      	; 0x1922 <Scan_USART_Transmit+0x6cc>
}
else USART_Transmit_0();
    191e:	0e 94 87 16 	call	0x2d0e	; 0x2d0e <USART_Transmit_0>
//************************************** Опрос PINB-1
if (PINB & (1 << 1))
    1922:	b1 9b       	sbis	0x16, 1	; 22
    1924:	05 c0       	rjmp	.+10     	; 0x1930 <Scan_USART_Transmit+0x6da>
{
	while ( !( UCSR0A & (1<<UDRE0)) );
    1926:	5d 9b       	sbis	0x0b, 5	; 11
    1928:	fe cf       	rjmp	.-4      	; 0x1926 <Scan_USART_Transmit+0x6d0>
	UDR0 = '1';
    192a:	81 e3       	ldi	r24, 0x31	; 49
    192c:	8c b9       	out	0x0c, r24	; 12
    192e:	02 c0       	rjmp	.+4      	; 0x1934 <Scan_USART_Transmit+0x6de>
}
else USART_Transmit_0();
    1930:	0e 94 87 16 	call	0x2d0e	; 0x2d0e <USART_Transmit_0>
//************************************** Посылем * при наступлении очереди передачи состояния пина с выставленной 1	
	while ( !( UCSR0A & (1<<UDRE0)) );
    1934:	5d 9b       	sbis	0x0b, 5	; 11
    1936:	fe cf       	rjmp	.-4      	; 0x1934 <Scan_USART_Transmit+0x6de>
		UDR0 = 'U';
    1938:	85 e5       	ldi	r24, 0x55	; 85
    193a:	8c b9       	out	0x0c, r24	; 12
//************************************** Опрос PINB-3
if (PINB & (1 << 3))
    193c:	b3 9b       	sbis	0x16, 3	; 22
    193e:	05 c0       	rjmp	.+10     	; 0x194a <Scan_USART_Transmit+0x6f4>
{
	while ( !( UCSR0A & (1<<UDRE0)) );
    1940:	5d 9b       	sbis	0x0b, 5	; 11
    1942:	fe cf       	rjmp	.-4      	; 0x1940 <Scan_USART_Transmit+0x6ea>
	UDR0 = '1';
    1944:	81 e3       	ldi	r24, 0x31	; 49
    1946:	8c b9       	out	0x0c, r24	; 12
    1948:	02 c0       	rjmp	.+4      	; 0x194e <Scan_USART_Transmit+0x6f8>
}
else USART_Transmit_0();
    194a:	0e 94 87 16 	call	0x2d0e	; 0x2d0e <USART_Transmit_0>
//************************************** Опрос PINB-4
if (PINB & (1 << 4))
    194e:	b4 9b       	sbis	0x16, 4	; 22
    1950:	05 c0       	rjmp	.+10     	; 0x195c <Scan_USART_Transmit+0x706>
{
	while ( !( UCSR0A & (1<<UDRE0)) );
    1952:	5d 9b       	sbis	0x0b, 5	; 11
    1954:	fe cf       	rjmp	.-4      	; 0x1952 <Scan_USART_Transmit+0x6fc>
	UDR0 = '1';
    1956:	81 e3       	ldi	r24, 0x31	; 49
    1958:	8c b9       	out	0x0c, r24	; 12
    195a:	02 c0       	rjmp	.+4      	; 0x1960 <Scan_USART_Transmit+0x70a>
}
else USART_Transmit_0();
    195c:	0e 94 87 16 	call	0x2d0e	; 0x2d0e <USART_Transmit_0>
//************************************** Опрос PINB-5
if (PINB & (1 << 5))
    1960:	b5 9b       	sbis	0x16, 5	; 22
    1962:	05 c0       	rjmp	.+10     	; 0x196e <Scan_USART_Transmit+0x718>
{
	while ( !( UCSR0A & (1<<UDRE0)) );
    1964:	5d 9b       	sbis	0x0b, 5	; 11
    1966:	fe cf       	rjmp	.-4      	; 0x1964 <Scan_USART_Transmit+0x70e>
	UDR0 = '1';
    1968:	81 e3       	ldi	r24, 0x31	; 49
    196a:	8c b9       	out	0x0c, r24	; 12
    196c:	02 c0       	rjmp	.+4      	; 0x1972 <Scan_USART_Transmit+0x71c>
}
else USART_Transmit_0();
    196e:	0e 94 87 16 	call	0x2d0e	; 0x2d0e <USART_Transmit_0>
//************************************** Опрос PINB-6
if (PINB & (1 << 6))
    1972:	b6 9b       	sbis	0x16, 6	; 22
    1974:	05 c0       	rjmp	.+10     	; 0x1980 <Scan_USART_Transmit+0x72a>
{
	while ( !( UCSR0A & (1<<UDRE0)) );
    1976:	5d 9b       	sbis	0x0b, 5	; 11
    1978:	fe cf       	rjmp	.-4      	; 0x1976 <Scan_USART_Transmit+0x720>
	UDR0 = '1';
    197a:	81 e3       	ldi	r24, 0x31	; 49
    197c:	8c b9       	out	0x0c, r24	; 12
    197e:	02 c0       	rjmp	.+4      	; 0x1984 <Scan_USART_Transmit+0x72e>
}
else USART_Transmit_0();
    1980:	0e 94 87 16 	call	0x2d0e	; 0x2d0e <USART_Transmit_0>
//************************************** Опрос PINB-7
if (PINB & (1 << 7))
    1984:	b7 9b       	sbis	0x16, 7	; 22
    1986:	05 c0       	rjmp	.+10     	; 0x1992 <Scan_USART_Transmit+0x73c>
{
	while ( !( UCSR0A & (1<<UDRE0)) );
    1988:	5d 9b       	sbis	0x0b, 5	; 11
    198a:	fe cf       	rjmp	.-4      	; 0x1988 <Scan_USART_Transmit+0x732>
	UDR0 = '1';
    198c:	81 e3       	ldi	r24, 0x31	; 49
    198e:	8c b9       	out	0x0c, r24	; 12
    1990:	02 c0       	rjmp	.+4      	; 0x1996 <Scan_USART_Transmit+0x740>
}
else USART_Transmit_0();
    1992:	0e 94 87 16 	call	0x2d0e	; 0x2d0e <USART_Transmit_0>


pull_PIND();
    1996:	0e 94 70 08 	call	0x10e0	; 0x10e0 <pull_PIND>
pull_PINC();
    199a:	0e 94 99 08 	call	0x1132	; 0x1132 <pull_PINC>
pull_PINA();
    199e:	0e 94 e2 08 	call	0x11c4	; 0x11c4 <pull_PINA>

DDRB &= ~(1 << 2);			// Убираем 1 с пина
    19a2:	ba 98       	cbi	0x17, 2	; 23
PORTB &= ~(1 << 2);
    19a4:	c2 98       	cbi	0x18, 2	; 24
//*********************************************************************************************** Выставляем 1 на пин 3 порта B
	DDRB |=	1 << 3;
    19a6:	bb 9a       	sbi	0x17, 3	; 23
	PORTB |= 1 << 3;
    19a8:	c3 9a       	sbi	0x18, 3	; 24
    19aa:	8f e3       	ldi	r24, 0x3F	; 63
    19ac:	9c e9       	ldi	r25, 0x9C	; 156
    19ae:	01 97       	sbiw	r24, 0x01	; 1
    19b0:	f1 f7       	brne	.-4      	; 0x19ae <Scan_USART_Transmit+0x758>
    19b2:	00 c0       	rjmp	.+0      	; 0x19b4 <Scan_USART_Transmit+0x75e>
    19b4:	00 00       	nop
	_delay_ms(RC_DELAY);
//************************************** Ждём и начинаем опрос
pull_PINF();
    19b6:	0e 94 cb 07 	call	0xf96	; 0xf96 <pull_PINF>
pull_PINE();
    19ba:	0e 94 f0 07 	call	0xfe0	; 0xfe0 <pull_PINE>
//************************************** Опрос PINB-0
if (PINB & (1 << 0))
    19be:	b0 9b       	sbis	0x16, 0	; 22
    19c0:	05 c0       	rjmp	.+10     	; 0x19cc <Scan_USART_Transmit+0x776>
{
	while ( !( UCSR0A & (1<<UDRE0)) );
    19c2:	5d 9b       	sbis	0x0b, 5	; 11
    19c4:	fe cf       	rjmp	.-4      	; 0x19c2 <Scan_USART_Transmit+0x76c>
	UDR0 = '1';
    19c6:	81 e3       	ldi	r24, 0x31	; 49
    19c8:	8c b9       	out	0x0c, r24	; 12
    19ca:	02 c0       	rjmp	.+4      	; 0x19d0 <Scan_USART_Transmit+0x77a>
}
else USART_Transmit_0();
    19cc:	0e 94 87 16 	call	0x2d0e	; 0x2d0e <USART_Transmit_0>
//************************************** Опрос PINB-1
if (PINB & (1 << 1))
    19d0:	b1 9b       	sbis	0x16, 1	; 22
    19d2:	05 c0       	rjmp	.+10     	; 0x19de <Scan_USART_Transmit+0x788>
{
	while ( !( UCSR0A & (1<<UDRE0)) );
    19d4:	5d 9b       	sbis	0x0b, 5	; 11
    19d6:	fe cf       	rjmp	.-4      	; 0x19d4 <Scan_USART_Transmit+0x77e>
	UDR0 = '1';
    19d8:	81 e3       	ldi	r24, 0x31	; 49
    19da:	8c b9       	out	0x0c, r24	; 12
    19dc:	02 c0       	rjmp	.+4      	; 0x19e2 <Scan_USART_Transmit+0x78c>
}
else USART_Transmit_0();
    19de:	0e 94 87 16 	call	0x2d0e	; 0x2d0e <USART_Transmit_0>
//************************************** Опрос PINB-2
if (PINB & (1 << 2))
    19e2:	b2 9b       	sbis	0x16, 2	; 22
    19e4:	05 c0       	rjmp	.+10     	; 0x19f0 <Scan_USART_Transmit+0x79a>
{
	while ( !( UCSR0A & (1<<UDRE0)) );
    19e6:	5d 9b       	sbis	0x0b, 5	; 11
    19e8:	fe cf       	rjmp	.-4      	; 0x19e6 <Scan_USART_Transmit+0x790>
	UDR0 = '1';
    19ea:	81 e3       	ldi	r24, 0x31	; 49
    19ec:	8c b9       	out	0x0c, r24	; 12
    19ee:	02 c0       	rjmp	.+4      	; 0x19f4 <Scan_USART_Transmit+0x79e>
}
else USART_Transmit_0();
    19f0:	0e 94 87 16 	call	0x2d0e	; 0x2d0e <USART_Transmit_0>
//************************************** Посылем * при наступлении очереди передачи состояния пина с выставленной 1	
	while ( !( UCSR0A & (1<<UDRE0)) );
    19f4:	5d 9b       	sbis	0x0b, 5	; 11
    19f6:	fe cf       	rjmp	.-4      	; 0x19f4 <Scan_USART_Transmit+0x79e>
		UDR0 = 'U';
    19f8:	85 e5       	ldi	r24, 0x55	; 85
    19fa:	8c b9       	out	0x0c, r24	; 12
//************************************** Опрос PINB-4
if (PINB & (1 << 4))
    19fc:	b4 9b       	sbis	0x16, 4	; 22
    19fe:	05 c0       	rjmp	.+10     	; 0x1a0a <Scan_USART_Transmit+0x7b4>
{
	while ( !( UCSR0A & (1<<UDRE0)) );
    1a00:	5d 9b       	sbis	0x0b, 5	; 11
    1a02:	fe cf       	rjmp	.-4      	; 0x1a00 <Scan_USART_Transmit+0x7aa>
	UDR0 = '1';
    1a04:	81 e3       	ldi	r24, 0x31	; 49
    1a06:	8c b9       	out	0x0c, r24	; 12
    1a08:	02 c0       	rjmp	.+4      	; 0x1a0e <Scan_USART_Transmit+0x7b8>
}
else USART_Transmit_0();
    1a0a:	0e 94 87 16 	call	0x2d0e	; 0x2d0e <USART_Transmit_0>
//************************************** Опрос PINB-5
if (PINB & (1 << 5))
    1a0e:	b5 9b       	sbis	0x16, 5	; 22
    1a10:	05 c0       	rjmp	.+10     	; 0x1a1c <Scan_USART_Transmit+0x7c6>
{
	while ( !( UCSR0A & (1<<UDRE0)) );
    1a12:	5d 9b       	sbis	0x0b, 5	; 11
    1a14:	fe cf       	rjmp	.-4      	; 0x1a12 <Scan_USART_Transmit+0x7bc>
	UDR0 = '1';
    1a16:	81 e3       	ldi	r24, 0x31	; 49
    1a18:	8c b9       	out	0x0c, r24	; 12
    1a1a:	02 c0       	rjmp	.+4      	; 0x1a20 <Scan_USART_Transmit+0x7ca>
}
else USART_Transmit_0();
    1a1c:	0e 94 87 16 	call	0x2d0e	; 0x2d0e <USART_Transmit_0>
//************************************** Опрос PINB-6
if (PINB & (1 << 6))
    1a20:	b6 9b       	sbis	0x16, 6	; 22
    1a22:	05 c0       	rjmp	.+10     	; 0x1a2e <Scan_USART_Transmit+0x7d8>
{
	while ( !( UCSR0A & (1<<UDRE0)) );
    1a24:	5d 9b       	sbis	0x0b, 5	; 11
    1a26:	fe cf       	rjmp	.-4      	; 0x1a24 <Scan_USART_Transmit+0x7ce>
	UDR0 = '1';
    1a28:	81 e3       	ldi	r24, 0x31	; 49
    1a2a:	8c b9       	out	0x0c, r24	; 12
    1a2c:	02 c0       	rjmp	.+4      	; 0x1a32 <Scan_USART_Transmit+0x7dc>
}
else USART_Transmit_0();
    1a2e:	0e 94 87 16 	call	0x2d0e	; 0x2d0e <USART_Transmit_0>
//************************************** Опрос PINB-7
if (PINB & (1 << 7))
    1a32:	b7 9b       	sbis	0x16, 7	; 22
    1a34:	05 c0       	rjmp	.+10     	; 0x1a40 <Scan_USART_Transmit+0x7ea>
{
	while ( !( UCSR0A & (1<<UDRE0)) );
    1a36:	5d 9b       	sbis	0x0b, 5	; 11
    1a38:	fe cf       	rjmp	.-4      	; 0x1a36 <Scan_USART_Transmit+0x7e0>
	UDR0 = '1';
    1a3a:	81 e3       	ldi	r24, 0x31	; 49
    1a3c:	8c b9       	out	0x0c, r24	; 12
    1a3e:	02 c0       	rjmp	.+4      	; 0x1a44 <Scan_USART_Transmit+0x7ee>
}
else USART_Transmit_0();
    1a40:	0e 94 87 16 	call	0x2d0e	; 0x2d0e <USART_Transmit_0>


pull_PIND();
    1a44:	0e 94 70 08 	call	0x10e0	; 0x10e0 <pull_PIND>
pull_PINC();
    1a48:	0e 94 99 08 	call	0x1132	; 0x1132 <pull_PINC>
pull_PINA();
    1a4c:	0e 94 e2 08 	call	0x11c4	; 0x11c4 <pull_PINA>

DDRB &= ~(1 << 3);			// Убираем 1 с пина
    1a50:	bb 98       	cbi	0x17, 3	; 23
PORTB &= ~(1 << 3);
    1a52:	c3 98       	cbi	0x18, 3	; 24
//*********************************************************************************************** Выставляем 1 на пин 4 порта B
	DDRB |=	1 << 4;
    1a54:	bc 9a       	sbi	0x17, 4	; 23
	PORTB |= 1 << 4;
    1a56:	c4 9a       	sbi	0x18, 4	; 24
    1a58:	8f e3       	ldi	r24, 0x3F	; 63
    1a5a:	9c e9       	ldi	r25, 0x9C	; 156
    1a5c:	01 97       	sbiw	r24, 0x01	; 1
    1a5e:	f1 f7       	brne	.-4      	; 0x1a5c <Scan_USART_Transmit+0x806>
    1a60:	00 c0       	rjmp	.+0      	; 0x1a62 <Scan_USART_Transmit+0x80c>
    1a62:	00 00       	nop
	_delay_ms(RC_DELAY);
//************************************** Ждём и начинаем опрос
pull_PINF();
    1a64:	0e 94 cb 07 	call	0xf96	; 0xf96 <pull_PINF>
pull_PINE();
    1a68:	0e 94 f0 07 	call	0xfe0	; 0xfe0 <pull_PINE>
//************************************** Опрос PINB-0
if (PINB & (1 << 0))
    1a6c:	b0 9b       	sbis	0x16, 0	; 22
    1a6e:	05 c0       	rjmp	.+10     	; 0x1a7a <Scan_USART_Transmit+0x824>
{
	while ( !( UCSR0A & (1<<UDRE0)) );
    1a70:	5d 9b       	sbis	0x0b, 5	; 11
    1a72:	fe cf       	rjmp	.-4      	; 0x1a70 <Scan_USART_Transmit+0x81a>
	UDR0 = '1';
    1a74:	81 e3       	ldi	r24, 0x31	; 49
    1a76:	8c b9       	out	0x0c, r24	; 12
    1a78:	02 c0       	rjmp	.+4      	; 0x1a7e <Scan_USART_Transmit+0x828>
}
else USART_Transmit_0();
    1a7a:	0e 94 87 16 	call	0x2d0e	; 0x2d0e <USART_Transmit_0>
//************************************** Опрос PINB-1
if (PINB & (1 << 1))
    1a7e:	b1 9b       	sbis	0x16, 1	; 22
    1a80:	05 c0       	rjmp	.+10     	; 0x1a8c <Scan_USART_Transmit+0x836>
{
	while ( !( UCSR0A & (1<<UDRE0)) );
    1a82:	5d 9b       	sbis	0x0b, 5	; 11
    1a84:	fe cf       	rjmp	.-4      	; 0x1a82 <Scan_USART_Transmit+0x82c>
	UDR0 = '1';
    1a86:	81 e3       	ldi	r24, 0x31	; 49
    1a88:	8c b9       	out	0x0c, r24	; 12
    1a8a:	02 c0       	rjmp	.+4      	; 0x1a90 <Scan_USART_Transmit+0x83a>
}
else USART_Transmit_0();
    1a8c:	0e 94 87 16 	call	0x2d0e	; 0x2d0e <USART_Transmit_0>
//************************************** Опрос PINB-2
if (PINB & (1 << 2))
    1a90:	b2 9b       	sbis	0x16, 2	; 22
    1a92:	05 c0       	rjmp	.+10     	; 0x1a9e <Scan_USART_Transmit+0x848>
{
	while ( !( UCSR0A & (1<<UDRE0)) );
    1a94:	5d 9b       	sbis	0x0b, 5	; 11
    1a96:	fe cf       	rjmp	.-4      	; 0x1a94 <Scan_USART_Transmit+0x83e>
	UDR0 = '1';
    1a98:	81 e3       	ldi	r24, 0x31	; 49
    1a9a:	8c b9       	out	0x0c, r24	; 12
    1a9c:	02 c0       	rjmp	.+4      	; 0x1aa2 <Scan_USART_Transmit+0x84c>
}
else USART_Transmit_0();
    1a9e:	0e 94 87 16 	call	0x2d0e	; 0x2d0e <USART_Transmit_0>
//************************************** Опрос PINB-3
if (PINB & (1 << 3))
    1aa2:	b3 9b       	sbis	0x16, 3	; 22
    1aa4:	05 c0       	rjmp	.+10     	; 0x1ab0 <Scan_USART_Transmit+0x85a>
{
	while ( !( UCSR0A & (1<<UDRE0)) );
    1aa6:	5d 9b       	sbis	0x0b, 5	; 11
    1aa8:	fe cf       	rjmp	.-4      	; 0x1aa6 <Scan_USART_Transmit+0x850>
	UDR0 = '1';
    1aaa:	81 e3       	ldi	r24, 0x31	; 49
    1aac:	8c b9       	out	0x0c, r24	; 12
    1aae:	02 c0       	rjmp	.+4      	; 0x1ab4 <Scan_USART_Transmit+0x85e>
}
else USART_Transmit_0();
    1ab0:	0e 94 87 16 	call	0x2d0e	; 0x2d0e <USART_Transmit_0>
//************************************** Посылем * при наступлении очереди передачи состояния пина с выставленной 1	
	while ( !( UCSR0A & (1<<UDRE0)) );
    1ab4:	5d 9b       	sbis	0x0b, 5	; 11
    1ab6:	fe cf       	rjmp	.-4      	; 0x1ab4 <Scan_USART_Transmit+0x85e>
		UDR0 = 'U';
    1ab8:	85 e5       	ldi	r24, 0x55	; 85
    1aba:	8c b9       	out	0x0c, r24	; 12
//************************************** Опрос PINB-5
if (PINB & (1 << 5))
    1abc:	b5 9b       	sbis	0x16, 5	; 22
    1abe:	05 c0       	rjmp	.+10     	; 0x1aca <Scan_USART_Transmit+0x874>
{
	while ( !( UCSR0A & (1<<UDRE0)) );
    1ac0:	5d 9b       	sbis	0x0b, 5	; 11
    1ac2:	fe cf       	rjmp	.-4      	; 0x1ac0 <Scan_USART_Transmit+0x86a>
	UDR0 = '1';
    1ac4:	81 e3       	ldi	r24, 0x31	; 49
    1ac6:	8c b9       	out	0x0c, r24	; 12
    1ac8:	02 c0       	rjmp	.+4      	; 0x1ace <Scan_USART_Transmit+0x878>
}
else USART_Transmit_0();
    1aca:	0e 94 87 16 	call	0x2d0e	; 0x2d0e <USART_Transmit_0>
//************************************** Опрос PINB-6
if (PINB & (1 << 6))
    1ace:	b6 9b       	sbis	0x16, 6	; 22
    1ad0:	05 c0       	rjmp	.+10     	; 0x1adc <Scan_USART_Transmit+0x886>
{
	while ( !( UCSR0A & (1<<UDRE0)) );
    1ad2:	5d 9b       	sbis	0x0b, 5	; 11
    1ad4:	fe cf       	rjmp	.-4      	; 0x1ad2 <Scan_USART_Transmit+0x87c>
	UDR0 = '1';
    1ad6:	81 e3       	ldi	r24, 0x31	; 49
    1ad8:	8c b9       	out	0x0c, r24	; 12
    1ada:	02 c0       	rjmp	.+4      	; 0x1ae0 <Scan_USART_Transmit+0x88a>
}
else USART_Transmit_0();
    1adc:	0e 94 87 16 	call	0x2d0e	; 0x2d0e <USART_Transmit_0>
//************************************** Опрос PINB-7
if (PINB & (1 << 7))
    1ae0:	b7 9b       	sbis	0x16, 7	; 22
    1ae2:	05 c0       	rjmp	.+10     	; 0x1aee <Scan_USART_Transmit+0x898>
{
	while ( !( UCSR0A & (1<<UDRE0)) );
    1ae4:	5d 9b       	sbis	0x0b, 5	; 11
    1ae6:	fe cf       	rjmp	.-4      	; 0x1ae4 <Scan_USART_Transmit+0x88e>
	UDR0 = '1';
    1ae8:	81 e3       	ldi	r24, 0x31	; 49
    1aea:	8c b9       	out	0x0c, r24	; 12
    1aec:	02 c0       	rjmp	.+4      	; 0x1af2 <Scan_USART_Transmit+0x89c>
}
else USART_Transmit_0();
    1aee:	0e 94 87 16 	call	0x2d0e	; 0x2d0e <USART_Transmit_0>


pull_PIND();
    1af2:	0e 94 70 08 	call	0x10e0	; 0x10e0 <pull_PIND>
pull_PINC();
    1af6:	0e 94 99 08 	call	0x1132	; 0x1132 <pull_PINC>
pull_PINA();
    1afa:	0e 94 e2 08 	call	0x11c4	; 0x11c4 <pull_PINA>

DDRB &= ~(1 << 4);			// Убираем 1 с пина
    1afe:	bc 98       	cbi	0x17, 4	; 23
PORTB &= ~(1 << 4);
    1b00:	c4 98       	cbi	0x18, 4	; 24
//*********************************************************************************************** Выставляем 1 на пин 5 порта B
	DDRB |=	1 << 5;
    1b02:	bd 9a       	sbi	0x17, 5	; 23
	PORTB |= 1 << 5;
    1b04:	c5 9a       	sbi	0x18, 5	; 24
    1b06:	8f e3       	ldi	r24, 0x3F	; 63
    1b08:	9c e9       	ldi	r25, 0x9C	; 156
    1b0a:	01 97       	sbiw	r24, 0x01	; 1
    1b0c:	f1 f7       	brne	.-4      	; 0x1b0a <Scan_USART_Transmit+0x8b4>
    1b0e:	00 c0       	rjmp	.+0      	; 0x1b10 <Scan_USART_Transmit+0x8ba>
    1b10:	00 00       	nop
	_delay_ms(RC_DELAY);
//************************************** Ждём и начинаем опрос
pull_PINF();
    1b12:	0e 94 cb 07 	call	0xf96	; 0xf96 <pull_PINF>
pull_PINE();
    1b16:	0e 94 f0 07 	call	0xfe0	; 0xfe0 <pull_PINE>
//************************************** Опрос PINB-0
if (PINB & (1 << 0))
    1b1a:	b0 9b       	sbis	0x16, 0	; 22
    1b1c:	05 c0       	rjmp	.+10     	; 0x1b28 <Scan_USART_Transmit+0x8d2>
{
	while ( !( UCSR0A & (1<<UDRE0)) );
    1b1e:	5d 9b       	sbis	0x0b, 5	; 11
    1b20:	fe cf       	rjmp	.-4      	; 0x1b1e <Scan_USART_Transmit+0x8c8>
	UDR0 = '1';
    1b22:	81 e3       	ldi	r24, 0x31	; 49
    1b24:	8c b9       	out	0x0c, r24	; 12
    1b26:	02 c0       	rjmp	.+4      	; 0x1b2c <Scan_USART_Transmit+0x8d6>
}
else USART_Transmit_0();
    1b28:	0e 94 87 16 	call	0x2d0e	; 0x2d0e <USART_Transmit_0>
//************************************** Опрос PINB-1
if (PINB & (1 << 1))
    1b2c:	b1 9b       	sbis	0x16, 1	; 22
    1b2e:	05 c0       	rjmp	.+10     	; 0x1b3a <Scan_USART_Transmit+0x8e4>
{
	while ( !( UCSR0A & (1<<UDRE0)) );
    1b30:	5d 9b       	sbis	0x0b, 5	; 11
    1b32:	fe cf       	rjmp	.-4      	; 0x1b30 <Scan_USART_Transmit+0x8da>
	UDR0 = '1';
    1b34:	81 e3       	ldi	r24, 0x31	; 49
    1b36:	8c b9       	out	0x0c, r24	; 12
    1b38:	02 c0       	rjmp	.+4      	; 0x1b3e <Scan_USART_Transmit+0x8e8>
}
else USART_Transmit_0();
    1b3a:	0e 94 87 16 	call	0x2d0e	; 0x2d0e <USART_Transmit_0>
//************************************** Опрос PINB-2
if (PINB & (1 << 2))
    1b3e:	b2 9b       	sbis	0x16, 2	; 22
    1b40:	05 c0       	rjmp	.+10     	; 0x1b4c <Scan_USART_Transmit+0x8f6>
{
	while ( !( UCSR0A & (1<<UDRE0)) );
    1b42:	5d 9b       	sbis	0x0b, 5	; 11
    1b44:	fe cf       	rjmp	.-4      	; 0x1b42 <Scan_USART_Transmit+0x8ec>
	UDR0 = '1';
    1b46:	81 e3       	ldi	r24, 0x31	; 49
    1b48:	8c b9       	out	0x0c, r24	; 12
    1b4a:	02 c0       	rjmp	.+4      	; 0x1b50 <Scan_USART_Transmit+0x8fa>
}
else USART_Transmit_0();
    1b4c:	0e 94 87 16 	call	0x2d0e	; 0x2d0e <USART_Transmit_0>
//************************************** Опрос PINB-3
if (PINB & (1 << 3))
    1b50:	b3 9b       	sbis	0x16, 3	; 22
    1b52:	05 c0       	rjmp	.+10     	; 0x1b5e <Scan_USART_Transmit+0x908>
{
	while ( !( UCSR0A & (1<<UDRE0)) );
    1b54:	5d 9b       	sbis	0x0b, 5	; 11
    1b56:	fe cf       	rjmp	.-4      	; 0x1b54 <Scan_USART_Transmit+0x8fe>
	UDR0 = '1';
    1b58:	81 e3       	ldi	r24, 0x31	; 49
    1b5a:	8c b9       	out	0x0c, r24	; 12
    1b5c:	02 c0       	rjmp	.+4      	; 0x1b62 <Scan_USART_Transmit+0x90c>
}
else USART_Transmit_0();
    1b5e:	0e 94 87 16 	call	0x2d0e	; 0x2d0e <USART_Transmit_0>
//************************************** Опрос PINB-4
if (PINB & (1 << 4))
    1b62:	b4 9b       	sbis	0x16, 4	; 22
    1b64:	05 c0       	rjmp	.+10     	; 0x1b70 <Scan_USART_Transmit+0x91a>
{
	while ( !( UCSR0A & (1<<UDRE0)) );
    1b66:	5d 9b       	sbis	0x0b, 5	; 11
    1b68:	fe cf       	rjmp	.-4      	; 0x1b66 <Scan_USART_Transmit+0x910>
	UDR0 = '1';
    1b6a:	81 e3       	ldi	r24, 0x31	; 49
    1b6c:	8c b9       	out	0x0c, r24	; 12
    1b6e:	02 c0       	rjmp	.+4      	; 0x1b74 <Scan_USART_Transmit+0x91e>
}
else USART_Transmit_0();
    1b70:	0e 94 87 16 	call	0x2d0e	; 0x2d0e <USART_Transmit_0>
//************************************** Посылем * при наступлении очереди передачи состояния пина с выставленной 1	
	while ( !( UCSR0A & (1<<UDRE0)) );
    1b74:	5d 9b       	sbis	0x0b, 5	; 11
    1b76:	fe cf       	rjmp	.-4      	; 0x1b74 <Scan_USART_Transmit+0x91e>
		UDR0 = 'U';
    1b78:	85 e5       	ldi	r24, 0x55	; 85
    1b7a:	8c b9       	out	0x0c, r24	; 12
//************************************** Опрос PINB-6
if (PINB & (1 << 6))
    1b7c:	b6 9b       	sbis	0x16, 6	; 22
    1b7e:	05 c0       	rjmp	.+10     	; 0x1b8a <Scan_USART_Transmit+0x934>
{
	while ( !( UCSR0A & (1<<UDRE0)) );
    1b80:	5d 9b       	sbis	0x0b, 5	; 11
    1b82:	fe cf       	rjmp	.-4      	; 0x1b80 <Scan_USART_Transmit+0x92a>
	UDR0 = '1';
    1b84:	81 e3       	ldi	r24, 0x31	; 49
    1b86:	8c b9       	out	0x0c, r24	; 12
    1b88:	02 c0       	rjmp	.+4      	; 0x1b8e <Scan_USART_Transmit+0x938>
}
else USART_Transmit_0();
    1b8a:	0e 94 87 16 	call	0x2d0e	; 0x2d0e <USART_Transmit_0>
//************************************** Опрос PINB-7
if (PINB & (1 << 7))
    1b8e:	b7 9b       	sbis	0x16, 7	; 22
    1b90:	05 c0       	rjmp	.+10     	; 0x1b9c <Scan_USART_Transmit+0x946>
{
	while ( !( UCSR0A & (1<<UDRE0)) );
    1b92:	5d 9b       	sbis	0x0b, 5	; 11
    1b94:	fe cf       	rjmp	.-4      	; 0x1b92 <Scan_USART_Transmit+0x93c>
	UDR0 = '1';
    1b96:	81 e3       	ldi	r24, 0x31	; 49
    1b98:	8c b9       	out	0x0c, r24	; 12
    1b9a:	02 c0       	rjmp	.+4      	; 0x1ba0 <Scan_USART_Transmit+0x94a>
}
else USART_Transmit_0();
    1b9c:	0e 94 87 16 	call	0x2d0e	; 0x2d0e <USART_Transmit_0>


pull_PIND();
    1ba0:	0e 94 70 08 	call	0x10e0	; 0x10e0 <pull_PIND>
pull_PINC();
    1ba4:	0e 94 99 08 	call	0x1132	; 0x1132 <pull_PINC>
pull_PINA();
    1ba8:	0e 94 e2 08 	call	0x11c4	; 0x11c4 <pull_PINA>

DDRB &= ~(1 << 5);			// Убираем 1 с пина
    1bac:	bd 98       	cbi	0x17, 5	; 23
PORTB &= ~(1 << 5);
    1bae:	c5 98       	cbi	0x18, 5	; 24
//*********************************************************************************************** Выставляем 1 на пин 6 порта B
	DDRB |=	1 << 6;
    1bb0:	be 9a       	sbi	0x17, 6	; 23
	PORTB |= 1 << 6;
    1bb2:	c6 9a       	sbi	0x18, 6	; 24
    1bb4:	8f e3       	ldi	r24, 0x3F	; 63
    1bb6:	9c e9       	ldi	r25, 0x9C	; 156
    1bb8:	01 97       	sbiw	r24, 0x01	; 1
    1bba:	f1 f7       	brne	.-4      	; 0x1bb8 <Scan_USART_Transmit+0x962>
    1bbc:	00 c0       	rjmp	.+0      	; 0x1bbe <Scan_USART_Transmit+0x968>
    1bbe:	00 00       	nop
	_delay_ms(RC_DELAY);
//************************************** Ждём и начинаем опрос
pull_PINF();
    1bc0:	0e 94 cb 07 	call	0xf96	; 0xf96 <pull_PINF>
pull_PINE();
    1bc4:	0e 94 f0 07 	call	0xfe0	; 0xfe0 <pull_PINE>
//************************************** Опрос PINB-0
if (PINB & (1 << 0))
    1bc8:	b0 9b       	sbis	0x16, 0	; 22
    1bca:	05 c0       	rjmp	.+10     	; 0x1bd6 <Scan_USART_Transmit+0x980>
{
	while ( !( UCSR0A & (1<<UDRE0)) );
    1bcc:	5d 9b       	sbis	0x0b, 5	; 11
    1bce:	fe cf       	rjmp	.-4      	; 0x1bcc <Scan_USART_Transmit+0x976>
	UDR0 = '1';
    1bd0:	81 e3       	ldi	r24, 0x31	; 49
    1bd2:	8c b9       	out	0x0c, r24	; 12
    1bd4:	02 c0       	rjmp	.+4      	; 0x1bda <Scan_USART_Transmit+0x984>
}
else USART_Transmit_0();
    1bd6:	0e 94 87 16 	call	0x2d0e	; 0x2d0e <USART_Transmit_0>
//************************************** Опрос PINB-1
if (PINB & (1 << 1))
    1bda:	b1 9b       	sbis	0x16, 1	; 22
    1bdc:	05 c0       	rjmp	.+10     	; 0x1be8 <Scan_USART_Transmit+0x992>
{
	while ( !( UCSR0A & (1<<UDRE0)) );
    1bde:	5d 9b       	sbis	0x0b, 5	; 11
    1be0:	fe cf       	rjmp	.-4      	; 0x1bde <Scan_USART_Transmit+0x988>
	UDR0 = '1';
    1be2:	81 e3       	ldi	r24, 0x31	; 49
    1be4:	8c b9       	out	0x0c, r24	; 12
    1be6:	02 c0       	rjmp	.+4      	; 0x1bec <Scan_USART_Transmit+0x996>
}
else USART_Transmit_0();
    1be8:	0e 94 87 16 	call	0x2d0e	; 0x2d0e <USART_Transmit_0>
//************************************** Опрос PINB-2
if (PINB & (1 << 2))
    1bec:	b2 9b       	sbis	0x16, 2	; 22
    1bee:	05 c0       	rjmp	.+10     	; 0x1bfa <Scan_USART_Transmit+0x9a4>
{
	while ( !( UCSR0A & (1<<UDRE0)) );
    1bf0:	5d 9b       	sbis	0x0b, 5	; 11
    1bf2:	fe cf       	rjmp	.-4      	; 0x1bf0 <Scan_USART_Transmit+0x99a>
	UDR0 = '1';
    1bf4:	81 e3       	ldi	r24, 0x31	; 49
    1bf6:	8c b9       	out	0x0c, r24	; 12
    1bf8:	02 c0       	rjmp	.+4      	; 0x1bfe <Scan_USART_Transmit+0x9a8>
}
else USART_Transmit_0();
    1bfa:	0e 94 87 16 	call	0x2d0e	; 0x2d0e <USART_Transmit_0>
//************************************** Опрос PINB-3
if (PINB & (1 << 3))
    1bfe:	b3 9b       	sbis	0x16, 3	; 22
    1c00:	05 c0       	rjmp	.+10     	; 0x1c0c <Scan_USART_Transmit+0x9b6>
{
	while ( !( UCSR0A & (1<<UDRE0)) );
    1c02:	5d 9b       	sbis	0x0b, 5	; 11
    1c04:	fe cf       	rjmp	.-4      	; 0x1c02 <Scan_USART_Transmit+0x9ac>
	UDR0 = '1';
    1c06:	81 e3       	ldi	r24, 0x31	; 49
    1c08:	8c b9       	out	0x0c, r24	; 12
    1c0a:	02 c0       	rjmp	.+4      	; 0x1c10 <Scan_USART_Transmit+0x9ba>
}
else USART_Transmit_0();
    1c0c:	0e 94 87 16 	call	0x2d0e	; 0x2d0e <USART_Transmit_0>
//************************************** Опрос PINB-4
if (PINB & (1 << 4))
    1c10:	b4 9b       	sbis	0x16, 4	; 22
    1c12:	05 c0       	rjmp	.+10     	; 0x1c1e <Scan_USART_Transmit+0x9c8>
{
	while ( !( UCSR0A & (1<<UDRE0)) );
    1c14:	5d 9b       	sbis	0x0b, 5	; 11
    1c16:	fe cf       	rjmp	.-4      	; 0x1c14 <Scan_USART_Transmit+0x9be>
	UDR0 = '1';
    1c18:	81 e3       	ldi	r24, 0x31	; 49
    1c1a:	8c b9       	out	0x0c, r24	; 12
    1c1c:	02 c0       	rjmp	.+4      	; 0x1c22 <Scan_USART_Transmit+0x9cc>
}
else USART_Transmit_0();
    1c1e:	0e 94 87 16 	call	0x2d0e	; 0x2d0e <USART_Transmit_0>
//************************************** Опрос PINB-5
if (PINB & (1 << 5))
    1c22:	b5 9b       	sbis	0x16, 5	; 22
    1c24:	05 c0       	rjmp	.+10     	; 0x1c30 <Scan_USART_Transmit+0x9da>
{
	while ( !( UCSR0A & (1<<UDRE0)) );
    1c26:	5d 9b       	sbis	0x0b, 5	; 11
    1c28:	fe cf       	rjmp	.-4      	; 0x1c26 <Scan_USART_Transmit+0x9d0>
	UDR0 = '1';
    1c2a:	81 e3       	ldi	r24, 0x31	; 49
    1c2c:	8c b9       	out	0x0c, r24	; 12
    1c2e:	02 c0       	rjmp	.+4      	; 0x1c34 <Scan_USART_Transmit+0x9de>
}
else USART_Transmit_0();
    1c30:	0e 94 87 16 	call	0x2d0e	; 0x2d0e <USART_Transmit_0>
//************************************** Посылем * при наступлении очереди передачи состояния пина с выставленной 1	
	while ( !( UCSR0A & (1<<UDRE0)) );
    1c34:	5d 9b       	sbis	0x0b, 5	; 11
    1c36:	fe cf       	rjmp	.-4      	; 0x1c34 <Scan_USART_Transmit+0x9de>
		UDR0 = 'U';
    1c38:	85 e5       	ldi	r24, 0x55	; 85
    1c3a:	8c b9       	out	0x0c, r24	; 12
//************************************** Опрос PINB-7
if (PINB & (1 << 7))
    1c3c:	b7 9b       	sbis	0x16, 7	; 22
    1c3e:	05 c0       	rjmp	.+10     	; 0x1c4a <Scan_USART_Transmit+0x9f4>
{
	while ( !( UCSR0A & (1<<UDRE0)) );
    1c40:	5d 9b       	sbis	0x0b, 5	; 11
    1c42:	fe cf       	rjmp	.-4      	; 0x1c40 <Scan_USART_Transmit+0x9ea>
	UDR0 = '1';
    1c44:	81 e3       	ldi	r24, 0x31	; 49
    1c46:	8c b9       	out	0x0c, r24	; 12
    1c48:	02 c0       	rjmp	.+4      	; 0x1c4e <Scan_USART_Transmit+0x9f8>
}
else USART_Transmit_0();
    1c4a:	0e 94 87 16 	call	0x2d0e	; 0x2d0e <USART_Transmit_0>


pull_PIND();
    1c4e:	0e 94 70 08 	call	0x10e0	; 0x10e0 <pull_PIND>
pull_PINC();
    1c52:	0e 94 99 08 	call	0x1132	; 0x1132 <pull_PINC>
pull_PINA();
    1c56:	0e 94 e2 08 	call	0x11c4	; 0x11c4 <pull_PINA>

DDRB &= ~(1 << 6);			// Убираем 1 с пина
    1c5a:	be 98       	cbi	0x17, 6	; 23
PORTB &= ~(1 << 6);
    1c5c:	c6 98       	cbi	0x18, 6	; 24
//*********************************************************************************************** Выставляем 1 на пин 7 порта B
	DDRB |=	1 << 7;
    1c5e:	bf 9a       	sbi	0x17, 7	; 23
	PORTB |= 1 << 7;
    1c60:	c7 9a       	sbi	0x18, 7	; 24
    1c62:	8f e3       	ldi	r24, 0x3F	; 63
    1c64:	9c e9       	ldi	r25, 0x9C	; 156
    1c66:	01 97       	sbiw	r24, 0x01	; 1
    1c68:	f1 f7       	brne	.-4      	; 0x1c66 <Scan_USART_Transmit+0xa10>
    1c6a:	00 c0       	rjmp	.+0      	; 0x1c6c <Scan_USART_Transmit+0xa16>
    1c6c:	00 00       	nop
	_delay_ms(RC_DELAY);
//************************************** Ждём и начинаем опрос
pull_PINF();
    1c6e:	0e 94 cb 07 	call	0xf96	; 0xf96 <pull_PINF>
pull_PINE();
    1c72:	0e 94 f0 07 	call	0xfe0	; 0xfe0 <pull_PINE>
//************************************** Опрос PINB-0
if (PINB & (1 << 0))
    1c76:	b0 9b       	sbis	0x16, 0	; 22
    1c78:	05 c0       	rjmp	.+10     	; 0x1c84 <Scan_USART_Transmit+0xa2e>
{
	while ( !( UCSR0A & (1<<UDRE0)) );
    1c7a:	5d 9b       	sbis	0x0b, 5	; 11
    1c7c:	fe cf       	rjmp	.-4      	; 0x1c7a <Scan_USART_Transmit+0xa24>
	UDR0 = '1';
    1c7e:	81 e3       	ldi	r24, 0x31	; 49
    1c80:	8c b9       	out	0x0c, r24	; 12
    1c82:	02 c0       	rjmp	.+4      	; 0x1c88 <Scan_USART_Transmit+0xa32>
}
else USART_Transmit_0();
    1c84:	0e 94 87 16 	call	0x2d0e	; 0x2d0e <USART_Transmit_0>
//************************************** Опрос PINB-1
if (PINB & (1 << 1))
    1c88:	b1 9b       	sbis	0x16, 1	; 22
    1c8a:	05 c0       	rjmp	.+10     	; 0x1c96 <Scan_USART_Transmit+0xa40>
{
	while ( !( UCSR0A & (1<<UDRE0)) );
    1c8c:	5d 9b       	sbis	0x0b, 5	; 11
    1c8e:	fe cf       	rjmp	.-4      	; 0x1c8c <Scan_USART_Transmit+0xa36>
	UDR0 = '1';
    1c90:	81 e3       	ldi	r24, 0x31	; 49
    1c92:	8c b9       	out	0x0c, r24	; 12
    1c94:	02 c0       	rjmp	.+4      	; 0x1c9a <Scan_USART_Transmit+0xa44>
}
else USART_Transmit_0();
    1c96:	0e 94 87 16 	call	0x2d0e	; 0x2d0e <USART_Transmit_0>
//************************************** Опрос PINB-2
if (PINB & (1 << 2))
    1c9a:	b2 9b       	sbis	0x16, 2	; 22
    1c9c:	05 c0       	rjmp	.+10     	; 0x1ca8 <Scan_USART_Transmit+0xa52>
{
	while ( !( UCSR0A & (1<<UDRE0)) );
    1c9e:	5d 9b       	sbis	0x0b, 5	; 11
    1ca0:	fe cf       	rjmp	.-4      	; 0x1c9e <Scan_USART_Transmit+0xa48>
	UDR0 = '1';
    1ca2:	81 e3       	ldi	r24, 0x31	; 49
    1ca4:	8c b9       	out	0x0c, r24	; 12
    1ca6:	02 c0       	rjmp	.+4      	; 0x1cac <Scan_USART_Transmit+0xa56>
}
else USART_Transmit_0();
    1ca8:	0e 94 87 16 	call	0x2d0e	; 0x2d0e <USART_Transmit_0>
//************************************** Опрос PINB-3
if (PINB & (1 << 3))
    1cac:	b3 9b       	sbis	0x16, 3	; 22
    1cae:	05 c0       	rjmp	.+10     	; 0x1cba <Scan_USART_Transmit+0xa64>
{
	while ( !( UCSR0A & (1<<UDRE0)) );
    1cb0:	5d 9b       	sbis	0x0b, 5	; 11
    1cb2:	fe cf       	rjmp	.-4      	; 0x1cb0 <Scan_USART_Transmit+0xa5a>
	UDR0 = '1';
    1cb4:	81 e3       	ldi	r24, 0x31	; 49
    1cb6:	8c b9       	out	0x0c, r24	; 12
    1cb8:	02 c0       	rjmp	.+4      	; 0x1cbe <Scan_USART_Transmit+0xa68>
}
else USART_Transmit_0();
    1cba:	0e 94 87 16 	call	0x2d0e	; 0x2d0e <USART_Transmit_0>
//************************************** Опрос PINB-4
if (PINB & (1 << 4))
    1cbe:	b4 9b       	sbis	0x16, 4	; 22
    1cc0:	05 c0       	rjmp	.+10     	; 0x1ccc <Scan_USART_Transmit+0xa76>
{
	while ( !( UCSR0A & (1<<UDRE0)) );
    1cc2:	5d 9b       	sbis	0x0b, 5	; 11
    1cc4:	fe cf       	rjmp	.-4      	; 0x1cc2 <Scan_USART_Transmit+0xa6c>
	UDR0 = '1';
    1cc6:	81 e3       	ldi	r24, 0x31	; 49
    1cc8:	8c b9       	out	0x0c, r24	; 12
    1cca:	02 c0       	rjmp	.+4      	; 0x1cd0 <Scan_USART_Transmit+0xa7a>
}
else USART_Transmit_0();
    1ccc:	0e 94 87 16 	call	0x2d0e	; 0x2d0e <USART_Transmit_0>
//************************************** Опрос PINB-5
if (PINB & (1 << 5))
    1cd0:	b5 9b       	sbis	0x16, 5	; 22
    1cd2:	05 c0       	rjmp	.+10     	; 0x1cde <Scan_USART_Transmit+0xa88>
{
	while ( !( UCSR0A & (1<<UDRE0)) );
    1cd4:	5d 9b       	sbis	0x0b, 5	; 11
    1cd6:	fe cf       	rjmp	.-4      	; 0x1cd4 <Scan_USART_Transmit+0xa7e>
	UDR0 = '1';
    1cd8:	81 e3       	ldi	r24, 0x31	; 49
    1cda:	8c b9       	out	0x0c, r24	; 12
    1cdc:	02 c0       	rjmp	.+4      	; 0x1ce2 <Scan_USART_Transmit+0xa8c>
}
else USART_Transmit_0();
    1cde:	0e 94 87 16 	call	0x2d0e	; 0x2d0e <USART_Transmit_0>
//************************************** Опрос PINB-6
if (PINB & (1 << 6))
    1ce2:	b6 9b       	sbis	0x16, 6	; 22
    1ce4:	05 c0       	rjmp	.+10     	; 0x1cf0 <Scan_USART_Transmit+0xa9a>
{
	while ( !( UCSR0A & (1<<UDRE0)) );
    1ce6:	5d 9b       	sbis	0x0b, 5	; 11
    1ce8:	fe cf       	rjmp	.-4      	; 0x1ce6 <Scan_USART_Transmit+0xa90>
	UDR0 = '1';
    1cea:	81 e3       	ldi	r24, 0x31	; 49
    1cec:	8c b9       	out	0x0c, r24	; 12
    1cee:	02 c0       	rjmp	.+4      	; 0x1cf4 <Scan_USART_Transmit+0xa9e>
}
else USART_Transmit_0();
    1cf0:	0e 94 87 16 	call	0x2d0e	; 0x2d0e <USART_Transmit_0>
//************************************** Посылем * при наступлении очереди передачи состояния пина с выставленной 1	
	while ( !( UCSR0A & (1<<UDRE0)) );
    1cf4:	5d 9b       	sbis	0x0b, 5	; 11
    1cf6:	fe cf       	rjmp	.-4      	; 0x1cf4 <Scan_USART_Transmit+0xa9e>
		UDR0 = 'U';
    1cf8:	85 e5       	ldi	r24, 0x55	; 85
    1cfa:	8c b9       	out	0x0c, r24	; 12


pull_PIND();
    1cfc:	0e 94 70 08 	call	0x10e0	; 0x10e0 <pull_PIND>
pull_PINC();
    1d00:	0e 94 99 08 	call	0x1132	; 0x1132 <pull_PINC>
pull_PINA();
    1d04:	0e 94 e2 08 	call	0x11c4	; 0x11c4 <pull_PINA>

DDRB &= ~(1 << 7);			// Убираем 1 с пина
    1d08:	bf 98       	cbi	0x17, 7	; 23
PORTB &= ~(1 << 7);
    1d0a:	c7 98       	cbi	0x18, 7	; 24
//*********************************************************************************************** Выставляем 1 на пин 0 порта D
	DDRD |=	1 << 0;
    1d0c:	88 9a       	sbi	0x11, 0	; 17
	PORTD |= 1 << 0;
    1d0e:	90 9a       	sbi	0x12, 0	; 18
    1d10:	8f e3       	ldi	r24, 0x3F	; 63
    1d12:	9c e9       	ldi	r25, 0x9C	; 156
    1d14:	01 97       	sbiw	r24, 0x01	; 1
    1d16:	f1 f7       	brne	.-4      	; 0x1d14 <Scan_USART_Transmit+0xabe>
    1d18:	00 c0       	rjmp	.+0      	; 0x1d1a <Scan_USART_Transmit+0xac4>
    1d1a:	00 00       	nop
	_delay_ms(RC_DELAY);
//************************************** Ждём и начинаем опрос
pull_PINF();
    1d1c:	0e 94 cb 07 	call	0xf96	; 0xf96 <pull_PINF>
pull_PINE();
    1d20:	0e 94 f0 07 	call	0xfe0	; 0xfe0 <pull_PINE>
pull_PINB();
    1d24:	0e 94 27 08 	call	0x104e	; 0x104e <pull_PINB>
//************************************** Посылем * при наступлении очереди передачи состояния пина с выставленной 1	
	while ( !( UCSR0A & (1<<UDRE0)) );
    1d28:	5d 9b       	sbis	0x0b, 5	; 11
    1d2a:	fe cf       	rjmp	.-4      	; 0x1d28 <Scan_USART_Transmit+0xad2>
		UDR0 = 'U';
    1d2c:	85 e5       	ldi	r24, 0x55	; 85
    1d2e:	8c b9       	out	0x0c, r24	; 12
//************************************** Передача пробела
	while ( !( UCSR0A & (1<<UDRE0)) );
    1d30:	5d 9b       	sbis	0x0b, 5	; 11
    1d32:	fe cf       	rjmp	.-4      	; 0x1d30 <Scan_USART_Transmit+0xada>
	UDR0 = ' ';
    1d34:	80 e2       	ldi	r24, 0x20	; 32
    1d36:	8c b9       	out	0x0c, r24	; 12
//************************************** Опрос PIND-5
if (PIND & (1 << 5))
    1d38:	85 9b       	sbis	0x10, 5	; 16
    1d3a:	05 c0       	rjmp	.+10     	; 0x1d46 <Scan_USART_Transmit+0xaf0>
{
	while ( !( UCSR0A & (1<<UDRE0)) );
    1d3c:	5d 9b       	sbis	0x0b, 5	; 11
    1d3e:	fe cf       	rjmp	.-4      	; 0x1d3c <Scan_USART_Transmit+0xae6>
	UDR0 = '1';
    1d40:	81 e3       	ldi	r24, 0x31	; 49
    1d42:	8c b9       	out	0x0c, r24	; 12
    1d44:	02 c0       	rjmp	.+4      	; 0x1d4a <Scan_USART_Transmit+0xaf4>
}
else USART_Transmit_0();
    1d46:	0e 94 87 16 	call	0x2d0e	; 0x2d0e <USART_Transmit_0>
//************************************** Опрос PIND-6
if (PIND & (1 << 6))
    1d4a:	86 9b       	sbis	0x10, 6	; 16
    1d4c:	05 c0       	rjmp	.+10     	; 0x1d58 <Scan_USART_Transmit+0xb02>
{
	while ( !( UCSR0A & (1<<UDRE0)) );
    1d4e:	5d 9b       	sbis	0x0b, 5	; 11
    1d50:	fe cf       	rjmp	.-4      	; 0x1d4e <Scan_USART_Transmit+0xaf8>
	UDR0 = '1';
    1d52:	81 e3       	ldi	r24, 0x31	; 49
    1d54:	8c b9       	out	0x0c, r24	; 12
    1d56:	02 c0       	rjmp	.+4      	; 0x1d5c <Scan_USART_Transmit+0xb06>
}
else USART_Transmit_0();
    1d58:	0e 94 87 16 	call	0x2d0e	; 0x2d0e <USART_Transmit_0>
//************************************** Опрос PIND-6
if (PIND & (1 << 7))
    1d5c:	87 9b       	sbis	0x10, 7	; 16
    1d5e:	05 c0       	rjmp	.+10     	; 0x1d6a <Scan_USART_Transmit+0xb14>
{
	while ( !( UCSR0A & (1<<UDRE0)) );
    1d60:	5d 9b       	sbis	0x0b, 5	; 11
    1d62:	fe cf       	rjmp	.-4      	; 0x1d60 <Scan_USART_Transmit+0xb0a>
	UDR0 = '1';
    1d64:	81 e3       	ldi	r24, 0x31	; 49
    1d66:	8c b9       	out	0x0c, r24	; 12
    1d68:	02 c0       	rjmp	.+4      	; 0x1d6e <Scan_USART_Transmit+0xb18>
}
else USART_Transmit_0();
    1d6a:	0e 94 87 16 	call	0x2d0e	; 0x2d0e <USART_Transmit_0>

pull_PINC();
    1d6e:	0e 94 99 08 	call	0x1132	; 0x1132 <pull_PINC>
pull_PINA();
    1d72:	0e 94 e2 08 	call	0x11c4	; 0x11c4 <pull_PINA>

DDRD &= ~(1 << 0);			// Убираем 1 с пина
    1d76:	88 98       	cbi	0x11, 0	; 17
PORTD &= ~(1 << 0);
    1d78:	90 98       	cbi	0x12, 0	; 18
//*********************************************************************************************** Выставляем 1 на пин 5 порта D
	DDRD |=	1 << 5;
    1d7a:	8d 9a       	sbi	0x11, 5	; 17
	PORTD |= 1 << 5;
    1d7c:	95 9a       	sbi	0x12, 5	; 18
    1d7e:	8f e3       	ldi	r24, 0x3F	; 63
    1d80:	9c e9       	ldi	r25, 0x9C	; 156
    1d82:	01 97       	sbiw	r24, 0x01	; 1
    1d84:	f1 f7       	brne	.-4      	; 0x1d82 <Scan_USART_Transmit+0xb2c>
    1d86:	00 c0       	rjmp	.+0      	; 0x1d88 <Scan_USART_Transmit+0xb32>
    1d88:	00 00       	nop
	_delay_ms(RC_DELAY);
//************************************** Ждём и начинаем опрос
pull_PINF();
    1d8a:	0e 94 cb 07 	call	0xf96	; 0xf96 <pull_PINF>
pull_PINE();
    1d8e:	0e 94 f0 07 	call	0xfe0	; 0xfe0 <pull_PINE>
pull_PINB();
    1d92:	0e 94 27 08 	call	0x104e	; 0x104e <pull_PINB>
//************************************** Опрос PIND-0
if (PIND & (1 << 0))
    1d96:	80 9b       	sbis	0x10, 0	; 16
    1d98:	05 c0       	rjmp	.+10     	; 0x1da4 <Scan_USART_Transmit+0xb4e>
{
	while ( !( UCSR0A & (1<<UDRE0)) );
    1d9a:	5d 9b       	sbis	0x0b, 5	; 11
    1d9c:	fe cf       	rjmp	.-4      	; 0x1d9a <Scan_USART_Transmit+0xb44>
	UDR0 = '1';
    1d9e:	81 e3       	ldi	r24, 0x31	; 49
    1da0:	8c b9       	out	0x0c, r24	; 12
    1da2:	02 c0       	rjmp	.+4      	; 0x1da8 <Scan_USART_Transmit+0xb52>
}
else USART_Transmit_0();
    1da4:	0e 94 87 16 	call	0x2d0e	; 0x2d0e <USART_Transmit_0>
//************************************** Передача пробела
	while ( !( UCSR0A & (1<<UDRE0)) );
    1da8:	5d 9b       	sbis	0x0b, 5	; 11
    1daa:	fe cf       	rjmp	.-4      	; 0x1da8 <Scan_USART_Transmit+0xb52>
	UDR0 = ' ';
    1dac:	80 e2       	ldi	r24, 0x20	; 32
    1dae:	8c b9       	out	0x0c, r24	; 12
//************************************** Посылем * при наступлении очереди передачи состояния пина с выставленной 1	
	while ( !( UCSR0A & (1<<UDRE0)) );
    1db0:	5d 9b       	sbis	0x0b, 5	; 11
    1db2:	fe cf       	rjmp	.-4      	; 0x1db0 <Scan_USART_Transmit+0xb5a>
		UDR0 = 'U';
    1db4:	85 e5       	ldi	r24, 0x55	; 85
    1db6:	8c b9       	out	0x0c, r24	; 12
//************************************** Опрос PIND-6
if (PIND & (1 << 6))
    1db8:	86 9b       	sbis	0x10, 6	; 16
    1dba:	05 c0       	rjmp	.+10     	; 0x1dc6 <Scan_USART_Transmit+0xb70>
{
	while ( !( UCSR0A & (1<<UDRE0)) );
    1dbc:	5d 9b       	sbis	0x0b, 5	; 11
    1dbe:	fe cf       	rjmp	.-4      	; 0x1dbc <Scan_USART_Transmit+0xb66>
	UDR0 = '1';
    1dc0:	81 e3       	ldi	r24, 0x31	; 49
    1dc2:	8c b9       	out	0x0c, r24	; 12
    1dc4:	02 c0       	rjmp	.+4      	; 0x1dca <Scan_USART_Transmit+0xb74>
}
else USART_Transmit_0();
    1dc6:	0e 94 87 16 	call	0x2d0e	; 0x2d0e <USART_Transmit_0>
//************************************** Опрос PIND-7
if (PIND & (1 << 7))
    1dca:	87 9b       	sbis	0x10, 7	; 16
    1dcc:	05 c0       	rjmp	.+10     	; 0x1dd8 <Scan_USART_Transmit+0xb82>
{
	while ( !( UCSR0A & (1<<UDRE0)) );
    1dce:	5d 9b       	sbis	0x0b, 5	; 11
    1dd0:	fe cf       	rjmp	.-4      	; 0x1dce <Scan_USART_Transmit+0xb78>
	UDR0 = '1';
    1dd2:	81 e3       	ldi	r24, 0x31	; 49
    1dd4:	8c b9       	out	0x0c, r24	; 12
    1dd6:	02 c0       	rjmp	.+4      	; 0x1ddc <Scan_USART_Transmit+0xb86>
}
else USART_Transmit_0();
    1dd8:	0e 94 87 16 	call	0x2d0e	; 0x2d0e <USART_Transmit_0>

pull_PINC();
    1ddc:	0e 94 99 08 	call	0x1132	; 0x1132 <pull_PINC>
pull_PINA();
    1de0:	0e 94 e2 08 	call	0x11c4	; 0x11c4 <pull_PINA>

DDRD &= ~(1 << 5);			// Убираем 1 с пина
    1de4:	8d 98       	cbi	0x11, 5	; 17
PORTD &= ~(1 << 5);
    1de6:	95 98       	cbi	0x12, 5	; 18
//*********************************************************************************************** Выставляем 1 на пин 6 порта D
	DDRD |=	1 << 6;
    1de8:	8e 9a       	sbi	0x11, 6	; 17
	PORTD |= 1 << 6;
    1dea:	96 9a       	sbi	0x12, 6	; 18
    1dec:	8f e3       	ldi	r24, 0x3F	; 63
    1dee:	9c e9       	ldi	r25, 0x9C	; 156
    1df0:	01 97       	sbiw	r24, 0x01	; 1
    1df2:	f1 f7       	brne	.-4      	; 0x1df0 <Scan_USART_Transmit+0xb9a>
    1df4:	00 c0       	rjmp	.+0      	; 0x1df6 <Scan_USART_Transmit+0xba0>
    1df6:	00 00       	nop
	_delay_ms(RC_DELAY);
//************************************** Ждём и начинаем опрос
pull_PINF();
    1df8:	0e 94 cb 07 	call	0xf96	; 0xf96 <pull_PINF>
pull_PINE();
    1dfc:	0e 94 f0 07 	call	0xfe0	; 0xfe0 <pull_PINE>
pull_PINB();
    1e00:	0e 94 27 08 	call	0x104e	; 0x104e <pull_PINB>
//************************************** Опрос PIND-0
if (PIND & (1 << 0))
    1e04:	80 9b       	sbis	0x10, 0	; 16
    1e06:	05 c0       	rjmp	.+10     	; 0x1e12 <Scan_USART_Transmit+0xbbc>
{
	while ( !( UCSR0A & (1<<UDRE0)) );
    1e08:	5d 9b       	sbis	0x0b, 5	; 11
    1e0a:	fe cf       	rjmp	.-4      	; 0x1e08 <Scan_USART_Transmit+0xbb2>
	UDR0 = '1';
    1e0c:	81 e3       	ldi	r24, 0x31	; 49
    1e0e:	8c b9       	out	0x0c, r24	; 12
    1e10:	02 c0       	rjmp	.+4      	; 0x1e16 <Scan_USART_Transmit+0xbc0>
}
else USART_Transmit_0();
    1e12:	0e 94 87 16 	call	0x2d0e	; 0x2d0e <USART_Transmit_0>
//************************************** Передача пробела
	while ( !( UCSR0A & (1<<UDRE0)) );
    1e16:	5d 9b       	sbis	0x0b, 5	; 11
    1e18:	fe cf       	rjmp	.-4      	; 0x1e16 <Scan_USART_Transmit+0xbc0>
	UDR0 = ' ';
    1e1a:	80 e2       	ldi	r24, 0x20	; 32
    1e1c:	8c b9       	out	0x0c, r24	; 12
//************************************** Опрос PIND-6
if (PIND & (1 << 5))
    1e1e:	85 9b       	sbis	0x10, 5	; 16
    1e20:	05 c0       	rjmp	.+10     	; 0x1e2c <Scan_USART_Transmit+0xbd6>
{
	while ( !( UCSR0A & (1<<UDRE0)) );
    1e22:	5d 9b       	sbis	0x0b, 5	; 11
    1e24:	fe cf       	rjmp	.-4      	; 0x1e22 <Scan_USART_Transmit+0xbcc>
	UDR0 = '1';
    1e26:	81 e3       	ldi	r24, 0x31	; 49
    1e28:	8c b9       	out	0x0c, r24	; 12
    1e2a:	02 c0       	rjmp	.+4      	; 0x1e30 <Scan_USART_Transmit+0xbda>
}
else USART_Transmit_0();
    1e2c:	0e 94 87 16 	call	0x2d0e	; 0x2d0e <USART_Transmit_0>
//************************************** Посылем * при наступлении очереди передачи состояния пина с выставленной 1	
	while ( !( UCSR0A & (1<<UDRE0)) );
    1e30:	5d 9b       	sbis	0x0b, 5	; 11
    1e32:	fe cf       	rjmp	.-4      	; 0x1e30 <Scan_USART_Transmit+0xbda>
		UDR0 = 'U';
    1e34:	85 e5       	ldi	r24, 0x55	; 85
    1e36:	8c b9       	out	0x0c, r24	; 12
//************************************** Опрос PIND-7
if (PIND & (1 << 7))
    1e38:	87 9b       	sbis	0x10, 7	; 16
    1e3a:	05 c0       	rjmp	.+10     	; 0x1e46 <Scan_USART_Transmit+0xbf0>
{
	while ( !( UCSR0A & (1<<UDRE0)) );
    1e3c:	5d 9b       	sbis	0x0b, 5	; 11
    1e3e:	fe cf       	rjmp	.-4      	; 0x1e3c <Scan_USART_Transmit+0xbe6>
	UDR0 = '1';
    1e40:	81 e3       	ldi	r24, 0x31	; 49
    1e42:	8c b9       	out	0x0c, r24	; 12
    1e44:	02 c0       	rjmp	.+4      	; 0x1e4a <Scan_USART_Transmit+0xbf4>
}
else USART_Transmit_0();
    1e46:	0e 94 87 16 	call	0x2d0e	; 0x2d0e <USART_Transmit_0>

pull_PINC();
    1e4a:	0e 94 99 08 	call	0x1132	; 0x1132 <pull_PINC>
pull_PINA();
    1e4e:	0e 94 e2 08 	call	0x11c4	; 0x11c4 <pull_PINA>

DDRD &= ~(1 << 6);			// Убираем 1 с пина
    1e52:	8e 98       	cbi	0x11, 6	; 17
PORTD &= ~(1 << 6);
    1e54:	96 98       	cbi	0x12, 6	; 18
//*********************************************************************************************** Выставляем 1 на пин 7 порта D
	DDRD |=	1 << 7;
    1e56:	8f 9a       	sbi	0x11, 7	; 17
	PORTD |= 1 << 7;
    1e58:	97 9a       	sbi	0x12, 7	; 18
    1e5a:	8f e3       	ldi	r24, 0x3F	; 63
    1e5c:	9c e9       	ldi	r25, 0x9C	; 156
    1e5e:	01 97       	sbiw	r24, 0x01	; 1
    1e60:	f1 f7       	brne	.-4      	; 0x1e5e <Scan_USART_Transmit+0xc08>
    1e62:	00 c0       	rjmp	.+0      	; 0x1e64 <Scan_USART_Transmit+0xc0e>
    1e64:	00 00       	nop
	_delay_ms(RC_DELAY);
//************************************** Ждём и начинаем опрос
pull_PINF();
    1e66:	0e 94 cb 07 	call	0xf96	; 0xf96 <pull_PINF>
pull_PINE();
    1e6a:	0e 94 f0 07 	call	0xfe0	; 0xfe0 <pull_PINE>
pull_PINB();
    1e6e:	0e 94 27 08 	call	0x104e	; 0x104e <pull_PINB>
//************************************** Опрос PIND-0
if (PIND & (1 << 0))
    1e72:	80 9b       	sbis	0x10, 0	; 16
    1e74:	05 c0       	rjmp	.+10     	; 0x1e80 <Scan_USART_Transmit+0xc2a>
{
	while ( !( UCSR0A & (1<<UDRE0)) );
    1e76:	5d 9b       	sbis	0x0b, 5	; 11
    1e78:	fe cf       	rjmp	.-4      	; 0x1e76 <Scan_USART_Transmit+0xc20>
	UDR0 = '1';
    1e7a:	81 e3       	ldi	r24, 0x31	; 49
    1e7c:	8c b9       	out	0x0c, r24	; 12
    1e7e:	02 c0       	rjmp	.+4      	; 0x1e84 <Scan_USART_Transmit+0xc2e>
}
else USART_Transmit_0();
    1e80:	0e 94 87 16 	call	0x2d0e	; 0x2d0e <USART_Transmit_0>
//************************************** Передача пробела
	while ( !( UCSR0A & (1<<UDRE0)) );
    1e84:	5d 9b       	sbis	0x0b, 5	; 11
    1e86:	fe cf       	rjmp	.-4      	; 0x1e84 <Scan_USART_Transmit+0xc2e>
	UDR0 = ' ';
    1e88:	80 e2       	ldi	r24, 0x20	; 32
    1e8a:	8c b9       	out	0x0c, r24	; 12
//************************************** Опрос PIND-5
if (PIND & (1 << 5))
    1e8c:	85 9b       	sbis	0x10, 5	; 16
    1e8e:	05 c0       	rjmp	.+10     	; 0x1e9a <Scan_USART_Transmit+0xc44>
{
	while ( !( UCSR0A & (1<<UDRE0)) );
    1e90:	5d 9b       	sbis	0x0b, 5	; 11
    1e92:	fe cf       	rjmp	.-4      	; 0x1e90 <Scan_USART_Transmit+0xc3a>
	UDR0 = '1';
    1e94:	81 e3       	ldi	r24, 0x31	; 49
    1e96:	8c b9       	out	0x0c, r24	; 12
    1e98:	02 c0       	rjmp	.+4      	; 0x1e9e <Scan_USART_Transmit+0xc48>
}
else USART_Transmit_0();
    1e9a:	0e 94 87 16 	call	0x2d0e	; 0x2d0e <USART_Transmit_0>
//************************************** Опрос PIND-6
if (PIND & (1 << 6))
    1e9e:	86 9b       	sbis	0x10, 6	; 16
    1ea0:	05 c0       	rjmp	.+10     	; 0x1eac <Scan_USART_Transmit+0xc56>
{
	while ( !( UCSR0A & (1<<UDRE0)) );
    1ea2:	5d 9b       	sbis	0x0b, 5	; 11
    1ea4:	fe cf       	rjmp	.-4      	; 0x1ea2 <Scan_USART_Transmit+0xc4c>
	UDR0 = '1';
    1ea6:	81 e3       	ldi	r24, 0x31	; 49
    1ea8:	8c b9       	out	0x0c, r24	; 12
    1eaa:	02 c0       	rjmp	.+4      	; 0x1eb0 <Scan_USART_Transmit+0xc5a>
}
else USART_Transmit_0();
    1eac:	0e 94 87 16 	call	0x2d0e	; 0x2d0e <USART_Transmit_0>
//************************************** Посылем * при наступлении очереди передачи состояния пина с выставленной 1	
	while ( !( UCSR0A & (1<<UDRE0)) );
    1eb0:	5d 9b       	sbis	0x0b, 5	; 11
    1eb2:	fe cf       	rjmp	.-4      	; 0x1eb0 <Scan_USART_Transmit+0xc5a>
		UDR0 = 'U';
    1eb4:	85 e5       	ldi	r24, 0x55	; 85
    1eb6:	8c b9       	out	0x0c, r24	; 12


pull_PINC();
    1eb8:	0e 94 99 08 	call	0x1132	; 0x1132 <pull_PINC>
pull_PINA();
    1ebc:	0e 94 e2 08 	call	0x11c4	; 0x11c4 <pull_PINA>

DDRD &= ~(1 << 7);			// Убираем 1 с пина
    1ec0:	8f 98       	cbi	0x11, 7	; 17
PORTD &= ~(1 << 7);
    1ec2:	97 98       	cbi	0x12, 7	; 18

//*********************************************************************************************** Выставляем 1 на пин 0 порта C
	DDRC |=	1 << 0;
    1ec4:	a0 9a       	sbi	0x14, 0	; 20
	PORTC |= 1 << 0;
    1ec6:	a8 9a       	sbi	0x15, 0	; 21
    1ec8:	8f e3       	ldi	r24, 0x3F	; 63
    1eca:	9c e9       	ldi	r25, 0x9C	; 156
    1ecc:	01 97       	sbiw	r24, 0x01	; 1
    1ece:	f1 f7       	brne	.-4      	; 0x1ecc <Scan_USART_Transmit+0xc76>
    1ed0:	00 c0       	rjmp	.+0      	; 0x1ed2 <Scan_USART_Transmit+0xc7c>
    1ed2:	00 00       	nop
	_delay_ms(RC_DELAY);
//************************************** Ждём и начинаем опрос
pull_PINF();
    1ed4:	0e 94 cb 07 	call	0xf96	; 0xf96 <pull_PINF>
pull_PINE();
    1ed8:	0e 94 f0 07 	call	0xfe0	; 0xfe0 <pull_PINE>
pull_PINB();
    1edc:	0e 94 27 08 	call	0x104e	; 0x104e <pull_PINB>
pull_PIND();
    1ee0:	0e 94 70 08 	call	0x10e0	; 0x10e0 <pull_PIND>
//************************************** Посылем * при наступлении очереди передачи состояния пина с выставленной 1	
	while ( !( UCSR0A & (1<<UDRE0)) );
    1ee4:	5d 9b       	sbis	0x0b, 5	; 11
    1ee6:	fe cf       	rjmp	.-4      	; 0x1ee4 <Scan_USART_Transmit+0xc8e>
		UDR0 = 'U';
    1ee8:	85 e5       	ldi	r24, 0x55	; 85
    1eea:	8c b9       	out	0x0c, r24	; 12
//************************************** Опрос PINC-1
if (PINC & (1 << 1))
    1eec:	99 9b       	sbis	0x13, 1	; 19
    1eee:	05 c0       	rjmp	.+10     	; 0x1efa <Scan_USART_Transmit+0xca4>
{
	while ( !( UCSR0A & (1<<UDRE0)) );
    1ef0:	5d 9b       	sbis	0x0b, 5	; 11
    1ef2:	fe cf       	rjmp	.-4      	; 0x1ef0 <Scan_USART_Transmit+0xc9a>
	UDR0 = '1';
    1ef4:	81 e3       	ldi	r24, 0x31	; 49
    1ef6:	8c b9       	out	0x0c, r24	; 12
    1ef8:	02 c0       	rjmp	.+4      	; 0x1efe <Scan_USART_Transmit+0xca8>
}
else USART_Transmit_0();
    1efa:	0e 94 87 16 	call	0x2d0e	; 0x2d0e <USART_Transmit_0>
//************************************** Опрос PINC-2
if (PINC & (1 << 2))
    1efe:	9a 9b       	sbis	0x13, 2	; 19
    1f00:	05 c0       	rjmp	.+10     	; 0x1f0c <Scan_USART_Transmit+0xcb6>
{
	while ( !( UCSR0A & (1<<UDRE0)) );
    1f02:	5d 9b       	sbis	0x0b, 5	; 11
    1f04:	fe cf       	rjmp	.-4      	; 0x1f02 <Scan_USART_Transmit+0xcac>
	UDR0 = '1';
    1f06:	81 e3       	ldi	r24, 0x31	; 49
    1f08:	8c b9       	out	0x0c, r24	; 12
    1f0a:	02 c0       	rjmp	.+4      	; 0x1f10 <Scan_USART_Transmit+0xcba>
}
else USART_Transmit_0();
    1f0c:	0e 94 87 16 	call	0x2d0e	; 0x2d0e <USART_Transmit_0>
//************************************** Опрос PINC-3
if (PINC & (1 << 3))
    1f10:	9b 9b       	sbis	0x13, 3	; 19
    1f12:	05 c0       	rjmp	.+10     	; 0x1f1e <Scan_USART_Transmit+0xcc8>
{
	while ( !( UCSR0A & (1<<UDRE0)) );
    1f14:	5d 9b       	sbis	0x0b, 5	; 11
    1f16:	fe cf       	rjmp	.-4      	; 0x1f14 <Scan_USART_Transmit+0xcbe>
	UDR0 = '1';
    1f18:	81 e3       	ldi	r24, 0x31	; 49
    1f1a:	8c b9       	out	0x0c, r24	; 12
    1f1c:	02 c0       	rjmp	.+4      	; 0x1f22 <Scan_USART_Transmit+0xccc>
}
else USART_Transmit_0();
    1f1e:	0e 94 87 16 	call	0x2d0e	; 0x2d0e <USART_Transmit_0>
//************************************** Опрос PINC-4
if (PINC & (1 << 4))
    1f22:	9c 9b       	sbis	0x13, 4	; 19
    1f24:	05 c0       	rjmp	.+10     	; 0x1f30 <Scan_USART_Transmit+0xcda>
{
	while ( !( UCSR0A & (1<<UDRE0)) );
    1f26:	5d 9b       	sbis	0x0b, 5	; 11
    1f28:	fe cf       	rjmp	.-4      	; 0x1f26 <Scan_USART_Transmit+0xcd0>
	UDR0 = '1';
    1f2a:	81 e3       	ldi	r24, 0x31	; 49
    1f2c:	8c b9       	out	0x0c, r24	; 12
    1f2e:	02 c0       	rjmp	.+4      	; 0x1f34 <Scan_USART_Transmit+0xcde>
}
else USART_Transmit_0();
    1f30:	0e 94 87 16 	call	0x2d0e	; 0x2d0e <USART_Transmit_0>
//************************************** Опрос PINC-5
if (PINC & (1 << 5))
    1f34:	9d 9b       	sbis	0x13, 5	; 19
    1f36:	05 c0       	rjmp	.+10     	; 0x1f42 <Scan_USART_Transmit+0xcec>
{
	while ( !( UCSR0A & (1<<UDRE0)) );
    1f38:	5d 9b       	sbis	0x0b, 5	; 11
    1f3a:	fe cf       	rjmp	.-4      	; 0x1f38 <Scan_USART_Transmit+0xce2>
	UDR0 = '1';
    1f3c:	81 e3       	ldi	r24, 0x31	; 49
    1f3e:	8c b9       	out	0x0c, r24	; 12
    1f40:	02 c0       	rjmp	.+4      	; 0x1f46 <Scan_USART_Transmit+0xcf0>
}
else USART_Transmit_0();
    1f42:	0e 94 87 16 	call	0x2d0e	; 0x2d0e <USART_Transmit_0>
//************************************** Опрос PINC-6
if (PINC & (1 << 6))
    1f46:	9e 9b       	sbis	0x13, 6	; 19
    1f48:	05 c0       	rjmp	.+10     	; 0x1f54 <Scan_USART_Transmit+0xcfe>
{
	while ( !( UCSR0A & (1<<UDRE0)) );
    1f4a:	5d 9b       	sbis	0x0b, 5	; 11
    1f4c:	fe cf       	rjmp	.-4      	; 0x1f4a <Scan_USART_Transmit+0xcf4>
	UDR0 = '1';
    1f4e:	81 e3       	ldi	r24, 0x31	; 49
    1f50:	8c b9       	out	0x0c, r24	; 12
    1f52:	02 c0       	rjmp	.+4      	; 0x1f58 <Scan_USART_Transmit+0xd02>
}
else USART_Transmit_0();
    1f54:	0e 94 87 16 	call	0x2d0e	; 0x2d0e <USART_Transmit_0>
//************************************** Опрос PINC-7
if (PINC & (1 << 7))
    1f58:	9f 9b       	sbis	0x13, 7	; 19
    1f5a:	05 c0       	rjmp	.+10     	; 0x1f66 <Scan_USART_Transmit+0xd10>
{
	while ( !( UCSR0A & (1<<UDRE0)) );
    1f5c:	5d 9b       	sbis	0x0b, 5	; 11
    1f5e:	fe cf       	rjmp	.-4      	; 0x1f5c <Scan_USART_Transmit+0xd06>
	UDR0 = '1';
    1f60:	81 e3       	ldi	r24, 0x31	; 49
    1f62:	8c b9       	out	0x0c, r24	; 12
    1f64:	02 c0       	rjmp	.+4      	; 0x1f6a <Scan_USART_Transmit+0xd14>
}
else USART_Transmit_0();
    1f66:	0e 94 87 16 	call	0x2d0e	; 0x2d0e <USART_Transmit_0>

pull_PINA();
    1f6a:	0e 94 e2 08 	call	0x11c4	; 0x11c4 <pull_PINA>

DDRC &= ~(1 << 0);			// Убираем 1 с пина
    1f6e:	a0 98       	cbi	0x14, 0	; 20
PORTC &= ~(1 << 0);
    1f70:	a8 98       	cbi	0x15, 0	; 21
//*********************************************************************************************** Выставляем 1 на пин 1 порта C
	DDRC |=	1 << 1;
    1f72:	a1 9a       	sbi	0x14, 1	; 20
	PORTC |= 1 << 1;
    1f74:	a9 9a       	sbi	0x15, 1	; 21
    1f76:	8f e3       	ldi	r24, 0x3F	; 63
    1f78:	9c e9       	ldi	r25, 0x9C	; 156
    1f7a:	01 97       	sbiw	r24, 0x01	; 1
    1f7c:	f1 f7       	brne	.-4      	; 0x1f7a <Scan_USART_Transmit+0xd24>
    1f7e:	00 c0       	rjmp	.+0      	; 0x1f80 <Scan_USART_Transmit+0xd2a>
    1f80:	00 00       	nop
	_delay_ms(RC_DELAY);
//************************************** Ждём и начинаем опрос
pull_PINF();
    1f82:	0e 94 cb 07 	call	0xf96	; 0xf96 <pull_PINF>
pull_PINE();
    1f86:	0e 94 f0 07 	call	0xfe0	; 0xfe0 <pull_PINE>
pull_PINB();
    1f8a:	0e 94 27 08 	call	0x104e	; 0x104e <pull_PINB>
pull_PIND();
    1f8e:	0e 94 70 08 	call	0x10e0	; 0x10e0 <pull_PIND>
//************************************** Опрос PINC-0
if (PINC & (1 << 0))
    1f92:	98 9b       	sbis	0x13, 0	; 19
    1f94:	05 c0       	rjmp	.+10     	; 0x1fa0 <Scan_USART_Transmit+0xd4a>
{
	while ( !( UCSR0A & (1<<UDRE0)) );
    1f96:	5d 9b       	sbis	0x0b, 5	; 11
    1f98:	fe cf       	rjmp	.-4      	; 0x1f96 <Scan_USART_Transmit+0xd40>
	UDR0 = '1';
    1f9a:	81 e3       	ldi	r24, 0x31	; 49
    1f9c:	8c b9       	out	0x0c, r24	; 12
    1f9e:	02 c0       	rjmp	.+4      	; 0x1fa4 <Scan_USART_Transmit+0xd4e>
}
else USART_Transmit_0();
    1fa0:	0e 94 87 16 	call	0x2d0e	; 0x2d0e <USART_Transmit_0>
//************************************** Посылем * при наступлении очереди передачи состояния пина с выставленной 1	
	while ( !( UCSR0A & (1<<UDRE0)) );
    1fa4:	5d 9b       	sbis	0x0b, 5	; 11
    1fa6:	fe cf       	rjmp	.-4      	; 0x1fa4 <Scan_USART_Transmit+0xd4e>
		UDR0 = 'U';
    1fa8:	85 e5       	ldi	r24, 0x55	; 85
    1faa:	8c b9       	out	0x0c, r24	; 12
//************************************** Опрос PINC-2
if (PINC & (1 << 2))
    1fac:	9a 9b       	sbis	0x13, 2	; 19
    1fae:	05 c0       	rjmp	.+10     	; 0x1fba <Scan_USART_Transmit+0xd64>
{
	while ( !( UCSR0A & (1<<UDRE0)) );
    1fb0:	5d 9b       	sbis	0x0b, 5	; 11
    1fb2:	fe cf       	rjmp	.-4      	; 0x1fb0 <Scan_USART_Transmit+0xd5a>
	UDR0 = '1';
    1fb4:	81 e3       	ldi	r24, 0x31	; 49
    1fb6:	8c b9       	out	0x0c, r24	; 12
    1fb8:	02 c0       	rjmp	.+4      	; 0x1fbe <Scan_USART_Transmit+0xd68>
}
else USART_Transmit_0();
    1fba:	0e 94 87 16 	call	0x2d0e	; 0x2d0e <USART_Transmit_0>
//************************************** Опрос PINC-3
if (PINC & (1 << 3))
    1fbe:	9b 9b       	sbis	0x13, 3	; 19
    1fc0:	05 c0       	rjmp	.+10     	; 0x1fcc <Scan_USART_Transmit+0xd76>
{
	while ( !( UCSR0A & (1<<UDRE0)) );
    1fc2:	5d 9b       	sbis	0x0b, 5	; 11
    1fc4:	fe cf       	rjmp	.-4      	; 0x1fc2 <Scan_USART_Transmit+0xd6c>
	UDR0 = '1';
    1fc6:	81 e3       	ldi	r24, 0x31	; 49
    1fc8:	8c b9       	out	0x0c, r24	; 12
    1fca:	02 c0       	rjmp	.+4      	; 0x1fd0 <Scan_USART_Transmit+0xd7a>
}
else USART_Transmit_0();
    1fcc:	0e 94 87 16 	call	0x2d0e	; 0x2d0e <USART_Transmit_0>
//************************************** Опрос PINC-4
if (PINC & (1 << 4))
    1fd0:	9c 9b       	sbis	0x13, 4	; 19
    1fd2:	05 c0       	rjmp	.+10     	; 0x1fde <Scan_USART_Transmit+0xd88>
{
	while ( !( UCSR0A & (1<<UDRE0)) );
    1fd4:	5d 9b       	sbis	0x0b, 5	; 11
    1fd6:	fe cf       	rjmp	.-4      	; 0x1fd4 <Scan_USART_Transmit+0xd7e>
	UDR0 = '1';
    1fd8:	81 e3       	ldi	r24, 0x31	; 49
    1fda:	8c b9       	out	0x0c, r24	; 12
    1fdc:	02 c0       	rjmp	.+4      	; 0x1fe2 <Scan_USART_Transmit+0xd8c>
}
else USART_Transmit_0();
    1fde:	0e 94 87 16 	call	0x2d0e	; 0x2d0e <USART_Transmit_0>
//************************************** Опрос PINC-5
if (PINC & (1 << 5))
    1fe2:	9d 9b       	sbis	0x13, 5	; 19
    1fe4:	05 c0       	rjmp	.+10     	; 0x1ff0 <Scan_USART_Transmit+0xd9a>
{
	while ( !( UCSR0A & (1<<UDRE0)) );
    1fe6:	5d 9b       	sbis	0x0b, 5	; 11
    1fe8:	fe cf       	rjmp	.-4      	; 0x1fe6 <Scan_USART_Transmit+0xd90>
	UDR0 = '1';
    1fea:	81 e3       	ldi	r24, 0x31	; 49
    1fec:	8c b9       	out	0x0c, r24	; 12
    1fee:	02 c0       	rjmp	.+4      	; 0x1ff4 <Scan_USART_Transmit+0xd9e>
}
else USART_Transmit_0();
    1ff0:	0e 94 87 16 	call	0x2d0e	; 0x2d0e <USART_Transmit_0>
//************************************** Опрос PINC-6
if (PINC & (1 << 6))
    1ff4:	9e 9b       	sbis	0x13, 6	; 19
    1ff6:	05 c0       	rjmp	.+10     	; 0x2002 <Scan_USART_Transmit+0xdac>
{
	while ( !( UCSR0A & (1<<UDRE0)) );
    1ff8:	5d 9b       	sbis	0x0b, 5	; 11
    1ffa:	fe cf       	rjmp	.-4      	; 0x1ff8 <Scan_USART_Transmit+0xda2>
	UDR0 = '1';
    1ffc:	81 e3       	ldi	r24, 0x31	; 49
    1ffe:	8c b9       	out	0x0c, r24	; 12
    2000:	02 c0       	rjmp	.+4      	; 0x2006 <Scan_USART_Transmit+0xdb0>
}
else USART_Transmit_0();
    2002:	0e 94 87 16 	call	0x2d0e	; 0x2d0e <USART_Transmit_0>
//************************************** Опрос PINC-7
if (PINC & (1 << 7))
    2006:	9f 9b       	sbis	0x13, 7	; 19
    2008:	05 c0       	rjmp	.+10     	; 0x2014 <Scan_USART_Transmit+0xdbe>
{
	while ( !( UCSR0A & (1<<UDRE0)) );
    200a:	5d 9b       	sbis	0x0b, 5	; 11
    200c:	fe cf       	rjmp	.-4      	; 0x200a <Scan_USART_Transmit+0xdb4>
	UDR0 = '1';
    200e:	81 e3       	ldi	r24, 0x31	; 49
    2010:	8c b9       	out	0x0c, r24	; 12
    2012:	02 c0       	rjmp	.+4      	; 0x2018 <Scan_USART_Transmit+0xdc2>
}
else USART_Transmit_0();
    2014:	0e 94 87 16 	call	0x2d0e	; 0x2d0e <USART_Transmit_0>

pull_PINA();
    2018:	0e 94 e2 08 	call	0x11c4	; 0x11c4 <pull_PINA>

DDRC &= ~(1 << 1);			// Убираем 1 с пина
    201c:	a1 98       	cbi	0x14, 1	; 20
PORTC &= ~(1 << 1);
    201e:	a9 98       	cbi	0x15, 1	; 21
//*********************************************************************************************** Выставляем 1 на пин 2 порта C
	DDRC |=	1 << 2;
    2020:	a2 9a       	sbi	0x14, 2	; 20
	PORTC |= 1 << 2;
    2022:	aa 9a       	sbi	0x15, 2	; 21
    2024:	8f e3       	ldi	r24, 0x3F	; 63
    2026:	9c e9       	ldi	r25, 0x9C	; 156
    2028:	01 97       	sbiw	r24, 0x01	; 1
    202a:	f1 f7       	brne	.-4      	; 0x2028 <Scan_USART_Transmit+0xdd2>
    202c:	00 c0       	rjmp	.+0      	; 0x202e <Scan_USART_Transmit+0xdd8>
    202e:	00 00       	nop
	_delay_ms(RC_DELAY);
//************************************** Ждём и начинаем опрос
pull_PINF();
    2030:	0e 94 cb 07 	call	0xf96	; 0xf96 <pull_PINF>
pull_PINE();
    2034:	0e 94 f0 07 	call	0xfe0	; 0xfe0 <pull_PINE>
pull_PINB();
    2038:	0e 94 27 08 	call	0x104e	; 0x104e <pull_PINB>
pull_PIND();
    203c:	0e 94 70 08 	call	0x10e0	; 0x10e0 <pull_PIND>
//************************************** Опрос PINC-0
if (PINC & (1 << 0))
    2040:	98 9b       	sbis	0x13, 0	; 19
    2042:	05 c0       	rjmp	.+10     	; 0x204e <Scan_USART_Transmit+0xdf8>
{
	while ( !( UCSR0A & (1<<UDRE0)) );
    2044:	5d 9b       	sbis	0x0b, 5	; 11
    2046:	fe cf       	rjmp	.-4      	; 0x2044 <Scan_USART_Transmit+0xdee>
	UDR0 = '1';
    2048:	81 e3       	ldi	r24, 0x31	; 49
    204a:	8c b9       	out	0x0c, r24	; 12
    204c:	02 c0       	rjmp	.+4      	; 0x2052 <Scan_USART_Transmit+0xdfc>
}
else USART_Transmit_0();
    204e:	0e 94 87 16 	call	0x2d0e	; 0x2d0e <USART_Transmit_0>
//************************************** Опрос PINC-1
if (PINC & (1 << 1))
    2052:	99 9b       	sbis	0x13, 1	; 19
    2054:	05 c0       	rjmp	.+10     	; 0x2060 <Scan_USART_Transmit+0xe0a>
{
	while ( !( UCSR0A & (1<<UDRE0)) );
    2056:	5d 9b       	sbis	0x0b, 5	; 11
    2058:	fe cf       	rjmp	.-4      	; 0x2056 <Scan_USART_Transmit+0xe00>
	UDR0 = '1';
    205a:	81 e3       	ldi	r24, 0x31	; 49
    205c:	8c b9       	out	0x0c, r24	; 12
    205e:	02 c0       	rjmp	.+4      	; 0x2064 <Scan_USART_Transmit+0xe0e>
}
else USART_Transmit_0();
    2060:	0e 94 87 16 	call	0x2d0e	; 0x2d0e <USART_Transmit_0>
//************************************** Посылем * при наступлении очереди передачи состояния пина с выставленной 1	
	while ( !( UCSR0A & (1<<UDRE0)) );
    2064:	5d 9b       	sbis	0x0b, 5	; 11
    2066:	fe cf       	rjmp	.-4      	; 0x2064 <Scan_USART_Transmit+0xe0e>
		UDR0 = 'U';
    2068:	85 e5       	ldi	r24, 0x55	; 85
    206a:	8c b9       	out	0x0c, r24	; 12
//************************************** Опрос PINC-3
if (PINC & (1 << 3))
    206c:	9b 9b       	sbis	0x13, 3	; 19
    206e:	05 c0       	rjmp	.+10     	; 0x207a <Scan_USART_Transmit+0xe24>
{
	while ( !( UCSR0A & (1<<UDRE0)) );
    2070:	5d 9b       	sbis	0x0b, 5	; 11
    2072:	fe cf       	rjmp	.-4      	; 0x2070 <Scan_USART_Transmit+0xe1a>
	UDR0 = '1';
    2074:	81 e3       	ldi	r24, 0x31	; 49
    2076:	8c b9       	out	0x0c, r24	; 12
    2078:	02 c0       	rjmp	.+4      	; 0x207e <Scan_USART_Transmit+0xe28>
}
else USART_Transmit_0();
    207a:	0e 94 87 16 	call	0x2d0e	; 0x2d0e <USART_Transmit_0>
//************************************** Опрос PINC-4
if (PINC & (1 << 4))
    207e:	9c 9b       	sbis	0x13, 4	; 19
    2080:	05 c0       	rjmp	.+10     	; 0x208c <Scan_USART_Transmit+0xe36>
{
	while ( !( UCSR0A & (1<<UDRE0)) );
    2082:	5d 9b       	sbis	0x0b, 5	; 11
    2084:	fe cf       	rjmp	.-4      	; 0x2082 <Scan_USART_Transmit+0xe2c>
	UDR0 = '1';
    2086:	81 e3       	ldi	r24, 0x31	; 49
    2088:	8c b9       	out	0x0c, r24	; 12
    208a:	02 c0       	rjmp	.+4      	; 0x2090 <Scan_USART_Transmit+0xe3a>
}
else USART_Transmit_0();
    208c:	0e 94 87 16 	call	0x2d0e	; 0x2d0e <USART_Transmit_0>
//************************************** Опрос PINC-5
if (PINC & (1 << 5))
    2090:	9d 9b       	sbis	0x13, 5	; 19
    2092:	05 c0       	rjmp	.+10     	; 0x209e <Scan_USART_Transmit+0xe48>
{
	while ( !( UCSR0A & (1<<UDRE0)) );
    2094:	5d 9b       	sbis	0x0b, 5	; 11
    2096:	fe cf       	rjmp	.-4      	; 0x2094 <Scan_USART_Transmit+0xe3e>
	UDR0 = '1';
    2098:	81 e3       	ldi	r24, 0x31	; 49
    209a:	8c b9       	out	0x0c, r24	; 12
    209c:	02 c0       	rjmp	.+4      	; 0x20a2 <Scan_USART_Transmit+0xe4c>
}
else USART_Transmit_0();
    209e:	0e 94 87 16 	call	0x2d0e	; 0x2d0e <USART_Transmit_0>
//************************************** Опрос PINC-6
if (PINC & (1 << 6))
    20a2:	9e 9b       	sbis	0x13, 6	; 19
    20a4:	05 c0       	rjmp	.+10     	; 0x20b0 <Scan_USART_Transmit+0xe5a>
{
	while ( !( UCSR0A & (1<<UDRE0)) );
    20a6:	5d 9b       	sbis	0x0b, 5	; 11
    20a8:	fe cf       	rjmp	.-4      	; 0x20a6 <Scan_USART_Transmit+0xe50>
	UDR0 = '1';
    20aa:	81 e3       	ldi	r24, 0x31	; 49
    20ac:	8c b9       	out	0x0c, r24	; 12
    20ae:	02 c0       	rjmp	.+4      	; 0x20b4 <Scan_USART_Transmit+0xe5e>
}
else USART_Transmit_0();
    20b0:	0e 94 87 16 	call	0x2d0e	; 0x2d0e <USART_Transmit_0>
//************************************** Опрос PINC-7
if (PINC & (1 << 7))
    20b4:	9f 9b       	sbis	0x13, 7	; 19
    20b6:	05 c0       	rjmp	.+10     	; 0x20c2 <Scan_USART_Transmit+0xe6c>
{
	while ( !( UCSR0A & (1<<UDRE0)) );
    20b8:	5d 9b       	sbis	0x0b, 5	; 11
    20ba:	fe cf       	rjmp	.-4      	; 0x20b8 <Scan_USART_Transmit+0xe62>
	UDR0 = '1';
    20bc:	81 e3       	ldi	r24, 0x31	; 49
    20be:	8c b9       	out	0x0c, r24	; 12
    20c0:	02 c0       	rjmp	.+4      	; 0x20c6 <Scan_USART_Transmit+0xe70>
}
else USART_Transmit_0();
    20c2:	0e 94 87 16 	call	0x2d0e	; 0x2d0e <USART_Transmit_0>

pull_PINA();
    20c6:	0e 94 e2 08 	call	0x11c4	; 0x11c4 <pull_PINA>

DDRC &= ~(1 << 2);			// Убираем 1 с пина
    20ca:	a2 98       	cbi	0x14, 2	; 20
PORTC &= ~(1 << 2);
    20cc:	aa 98       	cbi	0x15, 2	; 21
//*********************************************************************************************** Выставляем 1 на пин 3 порта C
	DDRC |=	1 << 3;
    20ce:	a3 9a       	sbi	0x14, 3	; 20
	PORTC |= 1 << 3;
    20d0:	ab 9a       	sbi	0x15, 3	; 21
    20d2:	8f e3       	ldi	r24, 0x3F	; 63
    20d4:	9c e9       	ldi	r25, 0x9C	; 156
    20d6:	01 97       	sbiw	r24, 0x01	; 1
    20d8:	f1 f7       	brne	.-4      	; 0x20d6 <Scan_USART_Transmit+0xe80>
    20da:	00 c0       	rjmp	.+0      	; 0x20dc <Scan_USART_Transmit+0xe86>
    20dc:	00 00       	nop
	_delay_ms(RC_DELAY);
//************************************** Ждём и начинаем опрос
pull_PINF();
    20de:	0e 94 cb 07 	call	0xf96	; 0xf96 <pull_PINF>
pull_PINE();
    20e2:	0e 94 f0 07 	call	0xfe0	; 0xfe0 <pull_PINE>
pull_PINB();
    20e6:	0e 94 27 08 	call	0x104e	; 0x104e <pull_PINB>
pull_PIND();
    20ea:	0e 94 70 08 	call	0x10e0	; 0x10e0 <pull_PIND>
//************************************** Опрос PINC-0
if (PINC & (1 << 0))
    20ee:	98 9b       	sbis	0x13, 0	; 19
    20f0:	05 c0       	rjmp	.+10     	; 0x20fc <Scan_USART_Transmit+0xea6>
{
	while ( !( UCSR0A & (1<<UDRE0)) );
    20f2:	5d 9b       	sbis	0x0b, 5	; 11
    20f4:	fe cf       	rjmp	.-4      	; 0x20f2 <Scan_USART_Transmit+0xe9c>
	UDR0 = '1';
    20f6:	81 e3       	ldi	r24, 0x31	; 49
    20f8:	8c b9       	out	0x0c, r24	; 12
    20fa:	02 c0       	rjmp	.+4      	; 0x2100 <Scan_USART_Transmit+0xeaa>
}
else USART_Transmit_0();
    20fc:	0e 94 87 16 	call	0x2d0e	; 0x2d0e <USART_Transmit_0>
//************************************** Опрос PINC-1
if (PINC & (1 << 1))
    2100:	99 9b       	sbis	0x13, 1	; 19
    2102:	05 c0       	rjmp	.+10     	; 0x210e <Scan_USART_Transmit+0xeb8>
{
	while ( !( UCSR0A & (1<<UDRE0)) );
    2104:	5d 9b       	sbis	0x0b, 5	; 11
    2106:	fe cf       	rjmp	.-4      	; 0x2104 <Scan_USART_Transmit+0xeae>
	UDR0 = '1';
    2108:	81 e3       	ldi	r24, 0x31	; 49
    210a:	8c b9       	out	0x0c, r24	; 12
    210c:	02 c0       	rjmp	.+4      	; 0x2112 <Scan_USART_Transmit+0xebc>
}
else USART_Transmit_0();
    210e:	0e 94 87 16 	call	0x2d0e	; 0x2d0e <USART_Transmit_0>
//************************************** Опрос PINC-2
if (PINC & (1 << 2))
    2112:	9a 9b       	sbis	0x13, 2	; 19
    2114:	05 c0       	rjmp	.+10     	; 0x2120 <Scan_USART_Transmit+0xeca>
{
	while ( !( UCSR0A & (1<<UDRE0)) );
    2116:	5d 9b       	sbis	0x0b, 5	; 11
    2118:	fe cf       	rjmp	.-4      	; 0x2116 <Scan_USART_Transmit+0xec0>
	UDR0 = '1';
    211a:	81 e3       	ldi	r24, 0x31	; 49
    211c:	8c b9       	out	0x0c, r24	; 12
    211e:	02 c0       	rjmp	.+4      	; 0x2124 <Scan_USART_Transmit+0xece>
}
else USART_Transmit_0();
    2120:	0e 94 87 16 	call	0x2d0e	; 0x2d0e <USART_Transmit_0>
//************************************** Посылем * при наступлении очереди передачи состояния пина с выставленной 1	
	while ( !( UCSR0A & (1<<UDRE0)) );
    2124:	5d 9b       	sbis	0x0b, 5	; 11
    2126:	fe cf       	rjmp	.-4      	; 0x2124 <Scan_USART_Transmit+0xece>
		UDR0 = 'U';
    2128:	85 e5       	ldi	r24, 0x55	; 85
    212a:	8c b9       	out	0x0c, r24	; 12
//************************************** Опрос PINC-4
if (PINC & (1 << 4))
    212c:	9c 9b       	sbis	0x13, 4	; 19
    212e:	05 c0       	rjmp	.+10     	; 0x213a <Scan_USART_Transmit+0xee4>
{
	while ( !( UCSR0A & (1<<UDRE0)) );
    2130:	5d 9b       	sbis	0x0b, 5	; 11
    2132:	fe cf       	rjmp	.-4      	; 0x2130 <Scan_USART_Transmit+0xeda>
	UDR0 = '1';
    2134:	81 e3       	ldi	r24, 0x31	; 49
    2136:	8c b9       	out	0x0c, r24	; 12
    2138:	02 c0       	rjmp	.+4      	; 0x213e <Scan_USART_Transmit+0xee8>
}
else USART_Transmit_0();
    213a:	0e 94 87 16 	call	0x2d0e	; 0x2d0e <USART_Transmit_0>
//************************************** Опрос PINC-5
if (PINC & (1 << 5))
    213e:	9d 9b       	sbis	0x13, 5	; 19
    2140:	05 c0       	rjmp	.+10     	; 0x214c <Scan_USART_Transmit+0xef6>
{
	while ( !( UCSR0A & (1<<UDRE0)) );
    2142:	5d 9b       	sbis	0x0b, 5	; 11
    2144:	fe cf       	rjmp	.-4      	; 0x2142 <Scan_USART_Transmit+0xeec>
	UDR0 = '1';
    2146:	81 e3       	ldi	r24, 0x31	; 49
    2148:	8c b9       	out	0x0c, r24	; 12
    214a:	02 c0       	rjmp	.+4      	; 0x2150 <Scan_USART_Transmit+0xefa>
}
else USART_Transmit_0();
    214c:	0e 94 87 16 	call	0x2d0e	; 0x2d0e <USART_Transmit_0>
//************************************** Опрос PINC-6
if (PINC & (1 << 6))
    2150:	9e 9b       	sbis	0x13, 6	; 19
    2152:	05 c0       	rjmp	.+10     	; 0x215e <Scan_USART_Transmit+0xf08>
{
	while ( !( UCSR0A & (1<<UDRE0)) );
    2154:	5d 9b       	sbis	0x0b, 5	; 11
    2156:	fe cf       	rjmp	.-4      	; 0x2154 <Scan_USART_Transmit+0xefe>
	UDR0 = '1';
    2158:	81 e3       	ldi	r24, 0x31	; 49
    215a:	8c b9       	out	0x0c, r24	; 12
    215c:	02 c0       	rjmp	.+4      	; 0x2162 <Scan_USART_Transmit+0xf0c>
}
else USART_Transmit_0();
    215e:	0e 94 87 16 	call	0x2d0e	; 0x2d0e <USART_Transmit_0>
//************************************** Опрос PINC-7
if (PINC & (1 << 7))
    2162:	9f 9b       	sbis	0x13, 7	; 19
    2164:	05 c0       	rjmp	.+10     	; 0x2170 <Scan_USART_Transmit+0xf1a>
{
	while ( !( UCSR0A & (1<<UDRE0)) );
    2166:	5d 9b       	sbis	0x0b, 5	; 11
    2168:	fe cf       	rjmp	.-4      	; 0x2166 <Scan_USART_Transmit+0xf10>
	UDR0 = '1';
    216a:	81 e3       	ldi	r24, 0x31	; 49
    216c:	8c b9       	out	0x0c, r24	; 12
    216e:	02 c0       	rjmp	.+4      	; 0x2174 <Scan_USART_Transmit+0xf1e>
}
else USART_Transmit_0();
    2170:	0e 94 87 16 	call	0x2d0e	; 0x2d0e <USART_Transmit_0>

pull_PINA();
    2174:	0e 94 e2 08 	call	0x11c4	; 0x11c4 <pull_PINA>

DDRC &= ~(1 << 3);			// Убираем 1 с пина
    2178:	a3 98       	cbi	0x14, 3	; 20
PORTC &= ~(1 << 3);
    217a:	ab 98       	cbi	0x15, 3	; 21
//*********************************************************************************************** Выставляем 1 на пин 4 порта C
	DDRC |=	1 << 4;
    217c:	a4 9a       	sbi	0x14, 4	; 20
	PORTC |= 1 << 4;
    217e:	ac 9a       	sbi	0x15, 4	; 21
    2180:	8f e3       	ldi	r24, 0x3F	; 63
    2182:	9c e9       	ldi	r25, 0x9C	; 156
    2184:	01 97       	sbiw	r24, 0x01	; 1
    2186:	f1 f7       	brne	.-4      	; 0x2184 <Scan_USART_Transmit+0xf2e>
    2188:	00 c0       	rjmp	.+0      	; 0x218a <Scan_USART_Transmit+0xf34>
    218a:	00 00       	nop
	_delay_ms(RC_DELAY);
//************************************** Ждём и начинаем опрос
pull_PINF();
    218c:	0e 94 cb 07 	call	0xf96	; 0xf96 <pull_PINF>
pull_PINE();
    2190:	0e 94 f0 07 	call	0xfe0	; 0xfe0 <pull_PINE>
pull_PINB();
    2194:	0e 94 27 08 	call	0x104e	; 0x104e <pull_PINB>
pull_PIND();
    2198:	0e 94 70 08 	call	0x10e0	; 0x10e0 <pull_PIND>
//************************************** Опрос PINC-0
if (PINC & (1 << 0))
    219c:	98 9b       	sbis	0x13, 0	; 19
    219e:	05 c0       	rjmp	.+10     	; 0x21aa <Scan_USART_Transmit+0xf54>
{
	while ( !( UCSR0A & (1<<UDRE0)) );
    21a0:	5d 9b       	sbis	0x0b, 5	; 11
    21a2:	fe cf       	rjmp	.-4      	; 0x21a0 <Scan_USART_Transmit+0xf4a>
	UDR0 = '1';
    21a4:	81 e3       	ldi	r24, 0x31	; 49
    21a6:	8c b9       	out	0x0c, r24	; 12
    21a8:	02 c0       	rjmp	.+4      	; 0x21ae <Scan_USART_Transmit+0xf58>
}
else USART_Transmit_0();
    21aa:	0e 94 87 16 	call	0x2d0e	; 0x2d0e <USART_Transmit_0>
//************************************** Опрос PINC-1
if (PINC & (1 << 1))
    21ae:	99 9b       	sbis	0x13, 1	; 19
    21b0:	05 c0       	rjmp	.+10     	; 0x21bc <Scan_USART_Transmit+0xf66>
{
	while ( !( UCSR0A & (1<<UDRE0)) );
    21b2:	5d 9b       	sbis	0x0b, 5	; 11
    21b4:	fe cf       	rjmp	.-4      	; 0x21b2 <Scan_USART_Transmit+0xf5c>
	UDR0 = '1';
    21b6:	81 e3       	ldi	r24, 0x31	; 49
    21b8:	8c b9       	out	0x0c, r24	; 12
    21ba:	02 c0       	rjmp	.+4      	; 0x21c0 <Scan_USART_Transmit+0xf6a>
}
else USART_Transmit_0();
    21bc:	0e 94 87 16 	call	0x2d0e	; 0x2d0e <USART_Transmit_0>
//************************************** Опрос PINC-2
if (PINC & (1 << 2))
    21c0:	9a 9b       	sbis	0x13, 2	; 19
    21c2:	05 c0       	rjmp	.+10     	; 0x21ce <Scan_USART_Transmit+0xf78>
{
	while ( !( UCSR0A & (1<<UDRE0)) );
    21c4:	5d 9b       	sbis	0x0b, 5	; 11
    21c6:	fe cf       	rjmp	.-4      	; 0x21c4 <Scan_USART_Transmit+0xf6e>
	UDR0 = '1';
    21c8:	81 e3       	ldi	r24, 0x31	; 49
    21ca:	8c b9       	out	0x0c, r24	; 12
    21cc:	02 c0       	rjmp	.+4      	; 0x21d2 <Scan_USART_Transmit+0xf7c>
}
else USART_Transmit_0();
    21ce:	0e 94 87 16 	call	0x2d0e	; 0x2d0e <USART_Transmit_0>
//************************************** Опрос PINC-3
if (PINC & (1 << 3))
    21d2:	9b 9b       	sbis	0x13, 3	; 19
    21d4:	05 c0       	rjmp	.+10     	; 0x21e0 <Scan_USART_Transmit+0xf8a>
{
	while ( !( UCSR0A & (1<<UDRE0)) );
    21d6:	5d 9b       	sbis	0x0b, 5	; 11
    21d8:	fe cf       	rjmp	.-4      	; 0x21d6 <Scan_USART_Transmit+0xf80>
	UDR0 = '1';
    21da:	81 e3       	ldi	r24, 0x31	; 49
    21dc:	8c b9       	out	0x0c, r24	; 12
    21de:	02 c0       	rjmp	.+4      	; 0x21e4 <Scan_USART_Transmit+0xf8e>
}
else USART_Transmit_0();
    21e0:	0e 94 87 16 	call	0x2d0e	; 0x2d0e <USART_Transmit_0>
//************************************** Посылем * при наступлении очереди передачи состояния пина с выставленной 1	
	while ( !( UCSR0A & (1<<UDRE0)) );
    21e4:	5d 9b       	sbis	0x0b, 5	; 11
    21e6:	fe cf       	rjmp	.-4      	; 0x21e4 <Scan_USART_Transmit+0xf8e>
		UDR0 = 'U';
    21e8:	85 e5       	ldi	r24, 0x55	; 85
    21ea:	8c b9       	out	0x0c, r24	; 12
//************************************** Опрос PINC-5
if (PINC & (1 << 5))
    21ec:	9d 9b       	sbis	0x13, 5	; 19
    21ee:	05 c0       	rjmp	.+10     	; 0x21fa <Scan_USART_Transmit+0xfa4>
{
	while ( !( UCSR0A & (1<<UDRE0)) );
    21f0:	5d 9b       	sbis	0x0b, 5	; 11
    21f2:	fe cf       	rjmp	.-4      	; 0x21f0 <Scan_USART_Transmit+0xf9a>
	UDR0 = '1';
    21f4:	81 e3       	ldi	r24, 0x31	; 49
    21f6:	8c b9       	out	0x0c, r24	; 12
    21f8:	02 c0       	rjmp	.+4      	; 0x21fe <Scan_USART_Transmit+0xfa8>
}
else USART_Transmit_0();
    21fa:	0e 94 87 16 	call	0x2d0e	; 0x2d0e <USART_Transmit_0>
//************************************** Опрос PINC-6
if (PINC & (1 << 6))
    21fe:	9e 9b       	sbis	0x13, 6	; 19
    2200:	05 c0       	rjmp	.+10     	; 0x220c <Scan_USART_Transmit+0xfb6>
{
	while ( !( UCSR0A & (1<<UDRE0)) );
    2202:	5d 9b       	sbis	0x0b, 5	; 11
    2204:	fe cf       	rjmp	.-4      	; 0x2202 <Scan_USART_Transmit+0xfac>
	UDR0 = '1';
    2206:	81 e3       	ldi	r24, 0x31	; 49
    2208:	8c b9       	out	0x0c, r24	; 12
    220a:	02 c0       	rjmp	.+4      	; 0x2210 <Scan_USART_Transmit+0xfba>
}
else USART_Transmit_0();
    220c:	0e 94 87 16 	call	0x2d0e	; 0x2d0e <USART_Transmit_0>
//************************************** Опрос PINC-7
if (PINC & (1 << 7))
    2210:	9f 9b       	sbis	0x13, 7	; 19
    2212:	05 c0       	rjmp	.+10     	; 0x221e <Scan_USART_Transmit+0xfc8>
{
	while ( !( UCSR0A & (1<<UDRE0)) );
    2214:	5d 9b       	sbis	0x0b, 5	; 11
    2216:	fe cf       	rjmp	.-4      	; 0x2214 <Scan_USART_Transmit+0xfbe>
	UDR0 = '1';
    2218:	81 e3       	ldi	r24, 0x31	; 49
    221a:	8c b9       	out	0x0c, r24	; 12
    221c:	02 c0       	rjmp	.+4      	; 0x2222 <Scan_USART_Transmit+0xfcc>
}
else USART_Transmit_0();
    221e:	0e 94 87 16 	call	0x2d0e	; 0x2d0e <USART_Transmit_0>

pull_PINA();
    2222:	0e 94 e2 08 	call	0x11c4	; 0x11c4 <pull_PINA>

DDRC &= ~(1 << 4);			// Убираем 1 с пина
    2226:	a4 98       	cbi	0x14, 4	; 20
PORTC &= ~(1 << 4);
    2228:	ac 98       	cbi	0x15, 4	; 21
//*********************************************************************************************** Выставляем 1 на пин 5 порта C
	DDRC |=	1 << 5;
    222a:	a5 9a       	sbi	0x14, 5	; 20
	PORTC |= 1 << 5;
    222c:	ad 9a       	sbi	0x15, 5	; 21
    222e:	8f e3       	ldi	r24, 0x3F	; 63
    2230:	9c e9       	ldi	r25, 0x9C	; 156
    2232:	01 97       	sbiw	r24, 0x01	; 1
    2234:	f1 f7       	brne	.-4      	; 0x2232 <Scan_USART_Transmit+0xfdc>
    2236:	00 c0       	rjmp	.+0      	; 0x2238 <Scan_USART_Transmit+0xfe2>
    2238:	00 00       	nop
	_delay_ms(RC_DELAY);
//************************************** Ждём и начинаем опрос
pull_PINF();
    223a:	0e 94 cb 07 	call	0xf96	; 0xf96 <pull_PINF>
pull_PINE();
    223e:	0e 94 f0 07 	call	0xfe0	; 0xfe0 <pull_PINE>
pull_PINB();
    2242:	0e 94 27 08 	call	0x104e	; 0x104e <pull_PINB>
pull_PIND();
    2246:	0e 94 70 08 	call	0x10e0	; 0x10e0 <pull_PIND>
//************************************** Опрос PINC-0
if (PINC & (1 << 0))
    224a:	98 9b       	sbis	0x13, 0	; 19
    224c:	05 c0       	rjmp	.+10     	; 0x2258 <Scan_USART_Transmit+0x1002>
{
	while ( !( UCSR0A & (1<<UDRE0)) );
    224e:	5d 9b       	sbis	0x0b, 5	; 11
    2250:	fe cf       	rjmp	.-4      	; 0x224e <Scan_USART_Transmit+0xff8>
	UDR0 = '1';
    2252:	81 e3       	ldi	r24, 0x31	; 49
    2254:	8c b9       	out	0x0c, r24	; 12
    2256:	02 c0       	rjmp	.+4      	; 0x225c <Scan_USART_Transmit+0x1006>
}
else USART_Transmit_0();
    2258:	0e 94 87 16 	call	0x2d0e	; 0x2d0e <USART_Transmit_0>
//************************************** Опрос PINC-1
if (PINC & (1 << 1))
    225c:	99 9b       	sbis	0x13, 1	; 19
    225e:	05 c0       	rjmp	.+10     	; 0x226a <Scan_USART_Transmit+0x1014>
{
	while ( !( UCSR0A & (1<<UDRE0)) );
    2260:	5d 9b       	sbis	0x0b, 5	; 11
    2262:	fe cf       	rjmp	.-4      	; 0x2260 <Scan_USART_Transmit+0x100a>
	UDR0 = '1';
    2264:	81 e3       	ldi	r24, 0x31	; 49
    2266:	8c b9       	out	0x0c, r24	; 12
    2268:	02 c0       	rjmp	.+4      	; 0x226e <Scan_USART_Transmit+0x1018>
}
else USART_Transmit_0();
    226a:	0e 94 87 16 	call	0x2d0e	; 0x2d0e <USART_Transmit_0>
//************************************** Опрос PINC-2
if (PINC & (1 << 2))
    226e:	9a 9b       	sbis	0x13, 2	; 19
    2270:	05 c0       	rjmp	.+10     	; 0x227c <Scan_USART_Transmit+0x1026>
{
	while ( !( UCSR0A & (1<<UDRE0)) );
    2272:	5d 9b       	sbis	0x0b, 5	; 11
    2274:	fe cf       	rjmp	.-4      	; 0x2272 <Scan_USART_Transmit+0x101c>
	UDR0 = '1';
    2276:	81 e3       	ldi	r24, 0x31	; 49
    2278:	8c b9       	out	0x0c, r24	; 12
    227a:	02 c0       	rjmp	.+4      	; 0x2280 <Scan_USART_Transmit+0x102a>
}
else USART_Transmit_0();
    227c:	0e 94 87 16 	call	0x2d0e	; 0x2d0e <USART_Transmit_0>
//************************************** Опрос PINC-3
if (PINC & (1 << 3))
    2280:	9b 9b       	sbis	0x13, 3	; 19
    2282:	05 c0       	rjmp	.+10     	; 0x228e <Scan_USART_Transmit+0x1038>
{
	while ( !( UCSR0A & (1<<UDRE0)) );
    2284:	5d 9b       	sbis	0x0b, 5	; 11
    2286:	fe cf       	rjmp	.-4      	; 0x2284 <Scan_USART_Transmit+0x102e>
	UDR0 = '1';
    2288:	81 e3       	ldi	r24, 0x31	; 49
    228a:	8c b9       	out	0x0c, r24	; 12
    228c:	02 c0       	rjmp	.+4      	; 0x2292 <Scan_USART_Transmit+0x103c>
}
else USART_Transmit_0();
    228e:	0e 94 87 16 	call	0x2d0e	; 0x2d0e <USART_Transmit_0>
//************************************** Опрос PINC-4
if (PINC & (1 << 4))
    2292:	9c 9b       	sbis	0x13, 4	; 19
    2294:	05 c0       	rjmp	.+10     	; 0x22a0 <Scan_USART_Transmit+0x104a>
{
	while ( !( UCSR0A & (1<<UDRE0)) );
    2296:	5d 9b       	sbis	0x0b, 5	; 11
    2298:	fe cf       	rjmp	.-4      	; 0x2296 <Scan_USART_Transmit+0x1040>
	UDR0 = '1';
    229a:	81 e3       	ldi	r24, 0x31	; 49
    229c:	8c b9       	out	0x0c, r24	; 12
    229e:	02 c0       	rjmp	.+4      	; 0x22a4 <Scan_USART_Transmit+0x104e>
}
else USART_Transmit_0();
    22a0:	0e 94 87 16 	call	0x2d0e	; 0x2d0e <USART_Transmit_0>
//************************************** Посылем * при наступлении очереди передачи состояния пина с выставленной 1	
	while ( !( UCSR0A & (1<<UDRE0)) );
    22a4:	5d 9b       	sbis	0x0b, 5	; 11
    22a6:	fe cf       	rjmp	.-4      	; 0x22a4 <Scan_USART_Transmit+0x104e>
		UDR0 = 'U';
    22a8:	85 e5       	ldi	r24, 0x55	; 85
    22aa:	8c b9       	out	0x0c, r24	; 12
//************************************** Опрос PINC-6
if (PINC & (1 << 6))
    22ac:	9e 9b       	sbis	0x13, 6	; 19
    22ae:	05 c0       	rjmp	.+10     	; 0x22ba <Scan_USART_Transmit+0x1064>
{
	while ( !( UCSR0A & (1<<UDRE0)) );
    22b0:	5d 9b       	sbis	0x0b, 5	; 11
    22b2:	fe cf       	rjmp	.-4      	; 0x22b0 <Scan_USART_Transmit+0x105a>
	UDR0 = '1';
    22b4:	81 e3       	ldi	r24, 0x31	; 49
    22b6:	8c b9       	out	0x0c, r24	; 12
    22b8:	02 c0       	rjmp	.+4      	; 0x22be <Scan_USART_Transmit+0x1068>
}
else USART_Transmit_0();
    22ba:	0e 94 87 16 	call	0x2d0e	; 0x2d0e <USART_Transmit_0>
//************************************** Опрос PINC-7
if (PINC & (1 << 7))
    22be:	9f 9b       	sbis	0x13, 7	; 19
    22c0:	05 c0       	rjmp	.+10     	; 0x22cc <Scan_USART_Transmit+0x1076>
{
	while ( !( UCSR0A & (1<<UDRE0)) );
    22c2:	5d 9b       	sbis	0x0b, 5	; 11
    22c4:	fe cf       	rjmp	.-4      	; 0x22c2 <Scan_USART_Transmit+0x106c>
	UDR0 = '1';
    22c6:	81 e3       	ldi	r24, 0x31	; 49
    22c8:	8c b9       	out	0x0c, r24	; 12
    22ca:	02 c0       	rjmp	.+4      	; 0x22d0 <Scan_USART_Transmit+0x107a>
}
else USART_Transmit_0();
    22cc:	0e 94 87 16 	call	0x2d0e	; 0x2d0e <USART_Transmit_0>

pull_PINA();
    22d0:	0e 94 e2 08 	call	0x11c4	; 0x11c4 <pull_PINA>

DDRC &= ~(1 << 5);			// Убираем 1 с пина
    22d4:	a5 98       	cbi	0x14, 5	; 20
PORTC &= ~(1 << 5);
    22d6:	ad 98       	cbi	0x15, 5	; 21
//*********************************************************************************************** Выставляем 1 на пин 6 порта C
	DDRC |=	1 << 6;
    22d8:	a6 9a       	sbi	0x14, 6	; 20
	PORTC |= 1 << 6;
    22da:	ae 9a       	sbi	0x15, 6	; 21
    22dc:	8f e3       	ldi	r24, 0x3F	; 63
    22de:	9c e9       	ldi	r25, 0x9C	; 156
    22e0:	01 97       	sbiw	r24, 0x01	; 1
    22e2:	f1 f7       	brne	.-4      	; 0x22e0 <Scan_USART_Transmit+0x108a>
    22e4:	00 c0       	rjmp	.+0      	; 0x22e6 <Scan_USART_Transmit+0x1090>
    22e6:	00 00       	nop
	_delay_ms(RC_DELAY);
//************************************** Ждём и начинаем опрос
pull_PINF();
    22e8:	0e 94 cb 07 	call	0xf96	; 0xf96 <pull_PINF>
pull_PINE();
    22ec:	0e 94 f0 07 	call	0xfe0	; 0xfe0 <pull_PINE>
pull_PINB();
    22f0:	0e 94 27 08 	call	0x104e	; 0x104e <pull_PINB>
pull_PIND();
    22f4:	0e 94 70 08 	call	0x10e0	; 0x10e0 <pull_PIND>
//************************************** Опрос PINC-0
if (PINC & (1 << 0))
    22f8:	98 9b       	sbis	0x13, 0	; 19
    22fa:	05 c0       	rjmp	.+10     	; 0x2306 <Scan_USART_Transmit+0x10b0>
{
	while ( !( UCSR0A & (1<<UDRE0)) );
    22fc:	5d 9b       	sbis	0x0b, 5	; 11
    22fe:	fe cf       	rjmp	.-4      	; 0x22fc <Scan_USART_Transmit+0x10a6>
	UDR0 = '1';
    2300:	81 e3       	ldi	r24, 0x31	; 49
    2302:	8c b9       	out	0x0c, r24	; 12
    2304:	02 c0       	rjmp	.+4      	; 0x230a <Scan_USART_Transmit+0x10b4>
}
else USART_Transmit_0();
    2306:	0e 94 87 16 	call	0x2d0e	; 0x2d0e <USART_Transmit_0>
//************************************** Опрос PINC-1
if (PINC & (1 << 1))
    230a:	99 9b       	sbis	0x13, 1	; 19
    230c:	05 c0       	rjmp	.+10     	; 0x2318 <Scan_USART_Transmit+0x10c2>
{
	while ( !( UCSR0A & (1<<UDRE0)) );
    230e:	5d 9b       	sbis	0x0b, 5	; 11
    2310:	fe cf       	rjmp	.-4      	; 0x230e <Scan_USART_Transmit+0x10b8>
	UDR0 = '1';
    2312:	81 e3       	ldi	r24, 0x31	; 49
    2314:	8c b9       	out	0x0c, r24	; 12
    2316:	02 c0       	rjmp	.+4      	; 0x231c <Scan_USART_Transmit+0x10c6>
}
else USART_Transmit_0();
    2318:	0e 94 87 16 	call	0x2d0e	; 0x2d0e <USART_Transmit_0>
//************************************** Опрос PINC-2
if (PINC & (1 << 2))
    231c:	9a 9b       	sbis	0x13, 2	; 19
    231e:	05 c0       	rjmp	.+10     	; 0x232a <Scan_USART_Transmit+0x10d4>
{
	while ( !( UCSR0A & (1<<UDRE0)) );
    2320:	5d 9b       	sbis	0x0b, 5	; 11
    2322:	fe cf       	rjmp	.-4      	; 0x2320 <Scan_USART_Transmit+0x10ca>
	UDR0 = '1';
    2324:	81 e3       	ldi	r24, 0x31	; 49
    2326:	8c b9       	out	0x0c, r24	; 12
    2328:	02 c0       	rjmp	.+4      	; 0x232e <Scan_USART_Transmit+0x10d8>
}
else USART_Transmit_0();
    232a:	0e 94 87 16 	call	0x2d0e	; 0x2d0e <USART_Transmit_0>
//************************************** Опрос PINC-3
if (PINC & (1 << 3))
    232e:	9b 9b       	sbis	0x13, 3	; 19
    2330:	05 c0       	rjmp	.+10     	; 0x233c <Scan_USART_Transmit+0x10e6>
{
	while ( !( UCSR0A & (1<<UDRE0)) );
    2332:	5d 9b       	sbis	0x0b, 5	; 11
    2334:	fe cf       	rjmp	.-4      	; 0x2332 <Scan_USART_Transmit+0x10dc>
	UDR0 = '1';
    2336:	81 e3       	ldi	r24, 0x31	; 49
    2338:	8c b9       	out	0x0c, r24	; 12
    233a:	02 c0       	rjmp	.+4      	; 0x2340 <Scan_USART_Transmit+0x10ea>
}
else USART_Transmit_0();
    233c:	0e 94 87 16 	call	0x2d0e	; 0x2d0e <USART_Transmit_0>
//************************************** Опрос PINC-4
if (PINC & (1 << 4))
    2340:	9c 9b       	sbis	0x13, 4	; 19
    2342:	05 c0       	rjmp	.+10     	; 0x234e <Scan_USART_Transmit+0x10f8>
{
	while ( !( UCSR0A & (1<<UDRE0)) );
    2344:	5d 9b       	sbis	0x0b, 5	; 11
    2346:	fe cf       	rjmp	.-4      	; 0x2344 <Scan_USART_Transmit+0x10ee>
	UDR0 = '1';
    2348:	81 e3       	ldi	r24, 0x31	; 49
    234a:	8c b9       	out	0x0c, r24	; 12
    234c:	02 c0       	rjmp	.+4      	; 0x2352 <Scan_USART_Transmit+0x10fc>
}
else USART_Transmit_0();
    234e:	0e 94 87 16 	call	0x2d0e	; 0x2d0e <USART_Transmit_0>
//************************************** Опрос PINC-5
if (PINC & (1 << 5))
    2352:	9d 9b       	sbis	0x13, 5	; 19
    2354:	05 c0       	rjmp	.+10     	; 0x2360 <Scan_USART_Transmit+0x110a>
{
	while ( !( UCSR0A & (1<<UDRE0)) );
    2356:	5d 9b       	sbis	0x0b, 5	; 11
    2358:	fe cf       	rjmp	.-4      	; 0x2356 <Scan_USART_Transmit+0x1100>
	UDR0 = '1';
    235a:	81 e3       	ldi	r24, 0x31	; 49
    235c:	8c b9       	out	0x0c, r24	; 12
    235e:	02 c0       	rjmp	.+4      	; 0x2364 <Scan_USART_Transmit+0x110e>
}
else USART_Transmit_0();
    2360:	0e 94 87 16 	call	0x2d0e	; 0x2d0e <USART_Transmit_0>
//************************************** Посылем * при наступлении очереди передачи состояния пина с выставленной 1	
	while ( !( UCSR0A & (1<<UDRE0)) );
    2364:	5d 9b       	sbis	0x0b, 5	; 11
    2366:	fe cf       	rjmp	.-4      	; 0x2364 <Scan_USART_Transmit+0x110e>
		UDR0 = 'U';
    2368:	85 e5       	ldi	r24, 0x55	; 85
    236a:	8c b9       	out	0x0c, r24	; 12
//************************************** Опрос PINC-7
if (PINC & (1 << 7))
    236c:	9f 9b       	sbis	0x13, 7	; 19
    236e:	05 c0       	rjmp	.+10     	; 0x237a <Scan_USART_Transmit+0x1124>
{
	while ( !( UCSR0A & (1<<UDRE0)) );
    2370:	5d 9b       	sbis	0x0b, 5	; 11
    2372:	fe cf       	rjmp	.-4      	; 0x2370 <Scan_USART_Transmit+0x111a>
	UDR0 = '1';
    2374:	81 e3       	ldi	r24, 0x31	; 49
    2376:	8c b9       	out	0x0c, r24	; 12
    2378:	02 c0       	rjmp	.+4      	; 0x237e <Scan_USART_Transmit+0x1128>
}
else USART_Transmit_0();
    237a:	0e 94 87 16 	call	0x2d0e	; 0x2d0e <USART_Transmit_0>

pull_PINA();
    237e:	0e 94 e2 08 	call	0x11c4	; 0x11c4 <pull_PINA>

DDRC &= ~(1 << 6);			// Убираем 1 с пина
    2382:	a6 98       	cbi	0x14, 6	; 20
PORTC &= ~(1 << 6);
    2384:	ae 98       	cbi	0x15, 6	; 21
//*********************************************************************************************** Выставляем 1 на пин 7 порта C
	DDRC |=	1 << 7;
    2386:	a7 9a       	sbi	0x14, 7	; 20
	PORTC |= 1 << 7;
    2388:	af 9a       	sbi	0x15, 7	; 21
    238a:	8f e3       	ldi	r24, 0x3F	; 63
    238c:	9c e9       	ldi	r25, 0x9C	; 156
    238e:	01 97       	sbiw	r24, 0x01	; 1
    2390:	f1 f7       	brne	.-4      	; 0x238e <Scan_USART_Transmit+0x1138>
    2392:	00 c0       	rjmp	.+0      	; 0x2394 <Scan_USART_Transmit+0x113e>
    2394:	00 00       	nop
	_delay_ms(RC_DELAY);
//************************************** Ждём и начинаем опрос
pull_PINF();
    2396:	0e 94 cb 07 	call	0xf96	; 0xf96 <pull_PINF>
pull_PINE();
    239a:	0e 94 f0 07 	call	0xfe0	; 0xfe0 <pull_PINE>
pull_PINB();
    239e:	0e 94 27 08 	call	0x104e	; 0x104e <pull_PINB>
pull_PIND();
    23a2:	0e 94 70 08 	call	0x10e0	; 0x10e0 <pull_PIND>
//************************************** Опрос PINC-0
if (PINC & (1 << 0))
    23a6:	98 9b       	sbis	0x13, 0	; 19
    23a8:	05 c0       	rjmp	.+10     	; 0x23b4 <Scan_USART_Transmit+0x115e>
{
	while ( !( UCSR0A & (1<<UDRE0)) );
    23aa:	5d 9b       	sbis	0x0b, 5	; 11
    23ac:	fe cf       	rjmp	.-4      	; 0x23aa <Scan_USART_Transmit+0x1154>
	UDR0 = '1';
    23ae:	81 e3       	ldi	r24, 0x31	; 49
    23b0:	8c b9       	out	0x0c, r24	; 12
    23b2:	02 c0       	rjmp	.+4      	; 0x23b8 <Scan_USART_Transmit+0x1162>
}
else USART_Transmit_0();
    23b4:	0e 94 87 16 	call	0x2d0e	; 0x2d0e <USART_Transmit_0>
//************************************** Опрос PINC-1
if (PINC & (1 << 1))
    23b8:	99 9b       	sbis	0x13, 1	; 19
    23ba:	05 c0       	rjmp	.+10     	; 0x23c6 <Scan_USART_Transmit+0x1170>
{
	while ( !( UCSR0A & (1<<UDRE0)) );
    23bc:	5d 9b       	sbis	0x0b, 5	; 11
    23be:	fe cf       	rjmp	.-4      	; 0x23bc <Scan_USART_Transmit+0x1166>
	UDR0 = '1';
    23c0:	81 e3       	ldi	r24, 0x31	; 49
    23c2:	8c b9       	out	0x0c, r24	; 12
    23c4:	02 c0       	rjmp	.+4      	; 0x23ca <Scan_USART_Transmit+0x1174>
}
else USART_Transmit_0();
    23c6:	0e 94 87 16 	call	0x2d0e	; 0x2d0e <USART_Transmit_0>
//************************************** Опрос PINC-2
if (PINC & (1 << 2))
    23ca:	9a 9b       	sbis	0x13, 2	; 19
    23cc:	05 c0       	rjmp	.+10     	; 0x23d8 <Scan_USART_Transmit+0x1182>
{
	while ( !( UCSR0A & (1<<UDRE0)) );
    23ce:	5d 9b       	sbis	0x0b, 5	; 11
    23d0:	fe cf       	rjmp	.-4      	; 0x23ce <Scan_USART_Transmit+0x1178>
	UDR0 = '1';
    23d2:	81 e3       	ldi	r24, 0x31	; 49
    23d4:	8c b9       	out	0x0c, r24	; 12
    23d6:	02 c0       	rjmp	.+4      	; 0x23dc <Scan_USART_Transmit+0x1186>
}
else USART_Transmit_0();
    23d8:	0e 94 87 16 	call	0x2d0e	; 0x2d0e <USART_Transmit_0>
//************************************** Опрос PINC-3
if (PINC & (1 << 3))
    23dc:	9b 9b       	sbis	0x13, 3	; 19
    23de:	05 c0       	rjmp	.+10     	; 0x23ea <Scan_USART_Transmit+0x1194>
{
	while ( !( UCSR0A & (1<<UDRE0)) );
    23e0:	5d 9b       	sbis	0x0b, 5	; 11
    23e2:	fe cf       	rjmp	.-4      	; 0x23e0 <Scan_USART_Transmit+0x118a>
	UDR0 = '1';
    23e4:	81 e3       	ldi	r24, 0x31	; 49
    23e6:	8c b9       	out	0x0c, r24	; 12
    23e8:	02 c0       	rjmp	.+4      	; 0x23ee <Scan_USART_Transmit+0x1198>
}
else USART_Transmit_0();
    23ea:	0e 94 87 16 	call	0x2d0e	; 0x2d0e <USART_Transmit_0>
//************************************** Опрос PINC-4
if (PINC & (1 << 4))
    23ee:	9c 9b       	sbis	0x13, 4	; 19
    23f0:	05 c0       	rjmp	.+10     	; 0x23fc <Scan_USART_Transmit+0x11a6>
{
	while ( !( UCSR0A & (1<<UDRE0)) );
    23f2:	5d 9b       	sbis	0x0b, 5	; 11
    23f4:	fe cf       	rjmp	.-4      	; 0x23f2 <Scan_USART_Transmit+0x119c>
	UDR0 = '1';
    23f6:	81 e3       	ldi	r24, 0x31	; 49
    23f8:	8c b9       	out	0x0c, r24	; 12
    23fa:	02 c0       	rjmp	.+4      	; 0x2400 <Scan_USART_Transmit+0x11aa>
}
else USART_Transmit_0();
    23fc:	0e 94 87 16 	call	0x2d0e	; 0x2d0e <USART_Transmit_0>
//************************************** Опрос PINC-5
if (PINC & (1 << 5))
    2400:	9d 9b       	sbis	0x13, 5	; 19
    2402:	05 c0       	rjmp	.+10     	; 0x240e <Scan_USART_Transmit+0x11b8>
{
	while ( !( UCSR0A & (1<<UDRE0)) );
    2404:	5d 9b       	sbis	0x0b, 5	; 11
    2406:	fe cf       	rjmp	.-4      	; 0x2404 <Scan_USART_Transmit+0x11ae>
	UDR0 = '1';
    2408:	81 e3       	ldi	r24, 0x31	; 49
    240a:	8c b9       	out	0x0c, r24	; 12
    240c:	02 c0       	rjmp	.+4      	; 0x2412 <Scan_USART_Transmit+0x11bc>
}
else USART_Transmit_0();
    240e:	0e 94 87 16 	call	0x2d0e	; 0x2d0e <USART_Transmit_0>
//************************************** Опрос PINC-7
if (PINC & (1 << 6))
    2412:	9e 9b       	sbis	0x13, 6	; 19
    2414:	05 c0       	rjmp	.+10     	; 0x2420 <Scan_USART_Transmit+0x11ca>
{
	while ( !( UCSR0A & (1<<UDRE0)) );
    2416:	5d 9b       	sbis	0x0b, 5	; 11
    2418:	fe cf       	rjmp	.-4      	; 0x2416 <Scan_USART_Transmit+0x11c0>
	UDR0 = '1';
    241a:	81 e3       	ldi	r24, 0x31	; 49
    241c:	8c b9       	out	0x0c, r24	; 12
    241e:	02 c0       	rjmp	.+4      	; 0x2424 <Scan_USART_Transmit+0x11ce>
}
else USART_Transmit_0();
    2420:	0e 94 87 16 	call	0x2d0e	; 0x2d0e <USART_Transmit_0>
//************************************** Посылем * при наступлении очереди передачи состояния пина с выставленной 1	
	while ( !( UCSR0A & (1<<UDRE0)) );
    2424:	5d 9b       	sbis	0x0b, 5	; 11
    2426:	fe cf       	rjmp	.-4      	; 0x2424 <Scan_USART_Transmit+0x11ce>
		UDR0 = 'U';
    2428:	85 e5       	ldi	r24, 0x55	; 85
    242a:	8c b9       	out	0x0c, r24	; 12

pull_PINA();
    242c:	0e 94 e2 08 	call	0x11c4	; 0x11c4 <pull_PINA>

DDRC &= ~(1 << 7);			// Убираем 1 с пина
    2430:	a7 98       	cbi	0x14, 7	; 20
PORTC &= ~(1 << 7);
    2432:	af 98       	cbi	0x15, 7	; 21
//*********************************************************************************************** Выставляем 1 на пин 7 порта A
	DDRA |=	1 << 7;
    2434:	d7 9a       	sbi	0x1a, 7	; 26
	PORTA |= 1 << 7;
    2436:	df 9a       	sbi	0x1b, 7	; 27
    2438:	8f e3       	ldi	r24, 0x3F	; 63
    243a:	9c e9       	ldi	r25, 0x9C	; 156
    243c:	01 97       	sbiw	r24, 0x01	; 1
    243e:	f1 f7       	brne	.-4      	; 0x243c <Scan_USART_Transmit+0x11e6>
    2440:	00 c0       	rjmp	.+0      	; 0x2442 <Scan_USART_Transmit+0x11ec>
    2442:	00 00       	nop
	_delay_ms(RC_DELAY);
//************************************** Ждём и начинаем опрос
pull_PINF();
    2444:	0e 94 cb 07 	call	0xf96	; 0xf96 <pull_PINF>
pull_PINE();
    2448:	0e 94 f0 07 	call	0xfe0	; 0xfe0 <pull_PINE>
pull_PINB();
    244c:	0e 94 27 08 	call	0x104e	; 0x104e <pull_PINB>
pull_PIND();
    2450:	0e 94 70 08 	call	0x10e0	; 0x10e0 <pull_PIND>
pull_PINC();
    2454:	0e 94 99 08 	call	0x1132	; 0x1132 <pull_PINC>
//************************************** Посылем * при наступлении очереди передачи состояния пина с выставленной 1	
	while ( !( UCSR0A & (1<<UDRE0)) );
    2458:	5d 9b       	sbis	0x0b, 5	; 11
    245a:	fe cf       	rjmp	.-4      	; 0x2458 <Scan_USART_Transmit+0x1202>
		UDR0 = 'U';
    245c:	85 e5       	ldi	r24, 0x55	; 85
    245e:	8c b9       	out	0x0c, r24	; 12
//************************************** Опрос PINA-6
if (PINA & (1 << 6))
    2460:	ce 9b       	sbis	0x19, 6	; 25
    2462:	05 c0       	rjmp	.+10     	; 0x246e <Scan_USART_Transmit+0x1218>
{
	while ( !( UCSR0A & (1<<UDRE0)) );
    2464:	5d 9b       	sbis	0x0b, 5	; 11
    2466:	fe cf       	rjmp	.-4      	; 0x2464 <Scan_USART_Transmit+0x120e>
	UDR0 = '1';
    2468:	81 e3       	ldi	r24, 0x31	; 49
    246a:	8c b9       	out	0x0c, r24	; 12
    246c:	02 c0       	rjmp	.+4      	; 0x2472 <Scan_USART_Transmit+0x121c>
}
else USART_Transmit_0();
    246e:	0e 94 87 16 	call	0x2d0e	; 0x2d0e <USART_Transmit_0>
//************************************** Опрос PINA-5
if (PINA & (1 << 5))
    2472:	cd 9b       	sbis	0x19, 5	; 25
    2474:	05 c0       	rjmp	.+10     	; 0x2480 <Scan_USART_Transmit+0x122a>
{
	while ( !( UCSR0A & (1<<UDRE0)) );
    2476:	5d 9b       	sbis	0x0b, 5	; 11
    2478:	fe cf       	rjmp	.-4      	; 0x2476 <Scan_USART_Transmit+0x1220>
	UDR0 = '1';
    247a:	81 e3       	ldi	r24, 0x31	; 49
    247c:	8c b9       	out	0x0c, r24	; 12
    247e:	02 c0       	rjmp	.+4      	; 0x2484 <Scan_USART_Transmit+0x122e>
}
else USART_Transmit_0();
    2480:	0e 94 87 16 	call	0x2d0e	; 0x2d0e <USART_Transmit_0>
//************************************** Опрос PINA-4
if (PINA & (1 << 4))
    2484:	cc 9b       	sbis	0x19, 4	; 25
    2486:	05 c0       	rjmp	.+10     	; 0x2492 <Scan_USART_Transmit+0x123c>
{
	while ( !( UCSR0A & (1<<UDRE0)) );
    2488:	5d 9b       	sbis	0x0b, 5	; 11
    248a:	fe cf       	rjmp	.-4      	; 0x2488 <Scan_USART_Transmit+0x1232>
	UDR0 = '1';
    248c:	81 e3       	ldi	r24, 0x31	; 49
    248e:	8c b9       	out	0x0c, r24	; 12
    2490:	02 c0       	rjmp	.+4      	; 0x2496 <Scan_USART_Transmit+0x1240>
}
else USART_Transmit_0();
    2492:	0e 94 87 16 	call	0x2d0e	; 0x2d0e <USART_Transmit_0>
//************************************** Опрос PINA-3
if (PINA & (1 << 3))
    2496:	cb 9b       	sbis	0x19, 3	; 25
    2498:	05 c0       	rjmp	.+10     	; 0x24a4 <Scan_USART_Transmit+0x124e>
{
	while ( !( UCSR0A & (1<<UDRE0)) );
    249a:	5d 9b       	sbis	0x0b, 5	; 11
    249c:	fe cf       	rjmp	.-4      	; 0x249a <Scan_USART_Transmit+0x1244>
	UDR0 = '1';
    249e:	81 e3       	ldi	r24, 0x31	; 49
    24a0:	8c b9       	out	0x0c, r24	; 12
    24a2:	02 c0       	rjmp	.+4      	; 0x24a8 <Scan_USART_Transmit+0x1252>
}
else USART_Transmit_0();
    24a4:	0e 94 87 16 	call	0x2d0e	; 0x2d0e <USART_Transmit_0>
//************************************** Опрос PINA-2
if (PINA & (1 << 2))
    24a8:	ca 9b       	sbis	0x19, 2	; 25
    24aa:	05 c0       	rjmp	.+10     	; 0x24b6 <Scan_USART_Transmit+0x1260>
{
	while ( !( UCSR0A & (1<<UDRE0)) );
    24ac:	5d 9b       	sbis	0x0b, 5	; 11
    24ae:	fe cf       	rjmp	.-4      	; 0x24ac <Scan_USART_Transmit+0x1256>
	UDR0 = '1';
    24b0:	81 e3       	ldi	r24, 0x31	; 49
    24b2:	8c b9       	out	0x0c, r24	; 12
    24b4:	02 c0       	rjmp	.+4      	; 0x24ba <Scan_USART_Transmit+0x1264>
}
else USART_Transmit_0();
    24b6:	0e 94 87 16 	call	0x2d0e	; 0x2d0e <USART_Transmit_0>
//************************************** Опрос PINA-1
if (PINA & (1 << 1))
    24ba:	c9 9b       	sbis	0x19, 1	; 25
    24bc:	05 c0       	rjmp	.+10     	; 0x24c8 <Scan_USART_Transmit+0x1272>
{
	while ( !( UCSR0A & (1<<UDRE0)) );
    24be:	5d 9b       	sbis	0x0b, 5	; 11
    24c0:	fe cf       	rjmp	.-4      	; 0x24be <Scan_USART_Transmit+0x1268>
	UDR0 = '1';
    24c2:	81 e3       	ldi	r24, 0x31	; 49
    24c4:	8c b9       	out	0x0c, r24	; 12
    24c6:	02 c0       	rjmp	.+4      	; 0x24cc <Scan_USART_Transmit+0x1276>
}
else USART_Transmit_0();
    24c8:	0e 94 87 16 	call	0x2d0e	; 0x2d0e <USART_Transmit_0>
//************************************** Опрос PINA-0
if (PINA & (1 << 0))
    24cc:	c8 9b       	sbis	0x19, 0	; 25
    24ce:	05 c0       	rjmp	.+10     	; 0x24da <Scan_USART_Transmit+0x1284>
{
	while ( !( UCSR0A & (1<<UDRE0)) );
    24d0:	5d 9b       	sbis	0x0b, 5	; 11
    24d2:	fe cf       	rjmp	.-4      	; 0x24d0 <Scan_USART_Transmit+0x127a>
	UDR0 = '1';
    24d4:	81 e3       	ldi	r24, 0x31	; 49
    24d6:	8c b9       	out	0x0c, r24	; 12
    24d8:	02 c0       	rjmp	.+4      	; 0x24de <Scan_USART_Transmit+0x1288>
}
else USART_Transmit_0();
    24da:	0e 94 87 16 	call	0x2d0e	; 0x2d0e <USART_Transmit_0>




DDRA &= ~(1 << 7);			// Убираем 1 с пина
    24de:	d7 98       	cbi	0x1a, 7	; 26
PORTA &= ~(1 << 7);
    24e0:	df 98       	cbi	0x1b, 7	; 27
//*********************************************************************************************** Выставляем 1 на пин 6 порта A
	DDRA |=	1 << 6;
    24e2:	d6 9a       	sbi	0x1a, 6	; 26
	PORTA |= 1 << 6;
    24e4:	de 9a       	sbi	0x1b, 6	; 27
    24e6:	8f e3       	ldi	r24, 0x3F	; 63
    24e8:	9c e9       	ldi	r25, 0x9C	; 156
    24ea:	01 97       	sbiw	r24, 0x01	; 1
    24ec:	f1 f7       	brne	.-4      	; 0x24ea <Scan_USART_Transmit+0x1294>
    24ee:	00 c0       	rjmp	.+0      	; 0x24f0 <Scan_USART_Transmit+0x129a>
    24f0:	00 00       	nop
	_delay_ms(RC_DELAY);
//************************************** Ждём и начинаем опрос
pull_PINF();
    24f2:	0e 94 cb 07 	call	0xf96	; 0xf96 <pull_PINF>
pull_PINE();
    24f6:	0e 94 f0 07 	call	0xfe0	; 0xfe0 <pull_PINE>
pull_PINB();
    24fa:	0e 94 27 08 	call	0x104e	; 0x104e <pull_PINB>
pull_PIND();
    24fe:	0e 94 70 08 	call	0x10e0	; 0x10e0 <pull_PIND>
pull_PINC();
    2502:	0e 94 99 08 	call	0x1132	; 0x1132 <pull_PINC>
//************************************** Опрос PINA-7
if (PINA & (1 << 7))
    2506:	cf 9b       	sbis	0x19, 7	; 25
    2508:	05 c0       	rjmp	.+10     	; 0x2514 <Scan_USART_Transmit+0x12be>
{
	while ( !( UCSR0A & (1<<UDRE0)) );
    250a:	5d 9b       	sbis	0x0b, 5	; 11
    250c:	fe cf       	rjmp	.-4      	; 0x250a <Scan_USART_Transmit+0x12b4>
	UDR0 = '1';
    250e:	81 e3       	ldi	r24, 0x31	; 49
    2510:	8c b9       	out	0x0c, r24	; 12
    2512:	02 c0       	rjmp	.+4      	; 0x2518 <Scan_USART_Transmit+0x12c2>
}
else USART_Transmit_0();
    2514:	0e 94 87 16 	call	0x2d0e	; 0x2d0e <USART_Transmit_0>
//************************************** Посылем * при наступлении очереди передачи состояния пина с выставленной 1	
	while ( !( UCSR0A & (1<<UDRE0)) );
    2518:	5d 9b       	sbis	0x0b, 5	; 11
    251a:	fe cf       	rjmp	.-4      	; 0x2518 <Scan_USART_Transmit+0x12c2>
		UDR0 = 'U';
    251c:	85 e5       	ldi	r24, 0x55	; 85
    251e:	8c b9       	out	0x0c, r24	; 12
//************************************** Опрос PINA-5
if (PINA & (1 << 5))
    2520:	cd 9b       	sbis	0x19, 5	; 25
    2522:	05 c0       	rjmp	.+10     	; 0x252e <Scan_USART_Transmit+0x12d8>
{
	while ( !( UCSR0A & (1<<UDRE0)) );
    2524:	5d 9b       	sbis	0x0b, 5	; 11
    2526:	fe cf       	rjmp	.-4      	; 0x2524 <Scan_USART_Transmit+0x12ce>
	UDR0 = '1';
    2528:	81 e3       	ldi	r24, 0x31	; 49
    252a:	8c b9       	out	0x0c, r24	; 12
    252c:	02 c0       	rjmp	.+4      	; 0x2532 <Scan_USART_Transmit+0x12dc>
}
else USART_Transmit_0();
    252e:	0e 94 87 16 	call	0x2d0e	; 0x2d0e <USART_Transmit_0>
//************************************** Опрос PINA-4
if (PINA & (1 << 4))
    2532:	cc 9b       	sbis	0x19, 4	; 25
    2534:	05 c0       	rjmp	.+10     	; 0x2540 <Scan_USART_Transmit+0x12ea>
{
	while ( !( UCSR0A & (1<<UDRE0)) );
    2536:	5d 9b       	sbis	0x0b, 5	; 11
    2538:	fe cf       	rjmp	.-4      	; 0x2536 <Scan_USART_Transmit+0x12e0>
	UDR0 = '1';
    253a:	81 e3       	ldi	r24, 0x31	; 49
    253c:	8c b9       	out	0x0c, r24	; 12
    253e:	02 c0       	rjmp	.+4      	; 0x2544 <Scan_USART_Transmit+0x12ee>
}
else USART_Transmit_0();
    2540:	0e 94 87 16 	call	0x2d0e	; 0x2d0e <USART_Transmit_0>
//************************************** Опрос PINA-3
if (PINA & (1 << 3))
    2544:	cb 9b       	sbis	0x19, 3	; 25
    2546:	05 c0       	rjmp	.+10     	; 0x2552 <Scan_USART_Transmit+0x12fc>
{
	while ( !( UCSR0A & (1<<UDRE0)) );
    2548:	5d 9b       	sbis	0x0b, 5	; 11
    254a:	fe cf       	rjmp	.-4      	; 0x2548 <Scan_USART_Transmit+0x12f2>
	UDR0 = '1';
    254c:	81 e3       	ldi	r24, 0x31	; 49
    254e:	8c b9       	out	0x0c, r24	; 12
    2550:	02 c0       	rjmp	.+4      	; 0x2556 <Scan_USART_Transmit+0x1300>
}
else USART_Transmit_0();
    2552:	0e 94 87 16 	call	0x2d0e	; 0x2d0e <USART_Transmit_0>
//************************************** Опрос PINA-2
if (PINA & (1 << 2))
    2556:	ca 9b       	sbis	0x19, 2	; 25
    2558:	05 c0       	rjmp	.+10     	; 0x2564 <Scan_USART_Transmit+0x130e>
{
	while ( !( UCSR0A & (1<<UDRE0)) );
    255a:	5d 9b       	sbis	0x0b, 5	; 11
    255c:	fe cf       	rjmp	.-4      	; 0x255a <Scan_USART_Transmit+0x1304>
	UDR0 = '1';
    255e:	81 e3       	ldi	r24, 0x31	; 49
    2560:	8c b9       	out	0x0c, r24	; 12
    2562:	02 c0       	rjmp	.+4      	; 0x2568 <Scan_USART_Transmit+0x1312>
}
else USART_Transmit_0();
    2564:	0e 94 87 16 	call	0x2d0e	; 0x2d0e <USART_Transmit_0>
//************************************** Опрос PINA-1
if (PINA & (1 << 1))
    2568:	c9 9b       	sbis	0x19, 1	; 25
    256a:	05 c0       	rjmp	.+10     	; 0x2576 <Scan_USART_Transmit+0x1320>
{
	while ( !( UCSR0A & (1<<UDRE0)) );
    256c:	5d 9b       	sbis	0x0b, 5	; 11
    256e:	fe cf       	rjmp	.-4      	; 0x256c <Scan_USART_Transmit+0x1316>
	UDR0 = '1';
    2570:	81 e3       	ldi	r24, 0x31	; 49
    2572:	8c b9       	out	0x0c, r24	; 12
    2574:	02 c0       	rjmp	.+4      	; 0x257a <Scan_USART_Transmit+0x1324>
}
else USART_Transmit_0();
    2576:	0e 94 87 16 	call	0x2d0e	; 0x2d0e <USART_Transmit_0>
//************************************** Опрос PINA-0
if (PINA & (1 << 0))
    257a:	c8 9b       	sbis	0x19, 0	; 25
    257c:	05 c0       	rjmp	.+10     	; 0x2588 <Scan_USART_Transmit+0x1332>
{
	while ( !( UCSR0A & (1<<UDRE0)) );
    257e:	5d 9b       	sbis	0x0b, 5	; 11
    2580:	fe cf       	rjmp	.-4      	; 0x257e <Scan_USART_Transmit+0x1328>
	UDR0 = '1';
    2582:	81 e3       	ldi	r24, 0x31	; 49
    2584:	8c b9       	out	0x0c, r24	; 12
    2586:	02 c0       	rjmp	.+4      	; 0x258c <Scan_USART_Transmit+0x1336>
}
else USART_Transmit_0();
    2588:	0e 94 87 16 	call	0x2d0e	; 0x2d0e <USART_Transmit_0>


DDRA &= ~(1 << 6);			// Убираем 1 с пина
    258c:	d6 98       	cbi	0x1a, 6	; 26
PORTA &= ~(1 << 6);
    258e:	de 98       	cbi	0x1b, 6	; 27
//*********************************************************************************************** Выставляем 1 на пин 5 порта A
	DDRA |=	1 << 5;
    2590:	d5 9a       	sbi	0x1a, 5	; 26
	PORTA |= 1 << 5;
    2592:	dd 9a       	sbi	0x1b, 5	; 27
    2594:	8f e3       	ldi	r24, 0x3F	; 63
    2596:	9c e9       	ldi	r25, 0x9C	; 156
    2598:	01 97       	sbiw	r24, 0x01	; 1
    259a:	f1 f7       	brne	.-4      	; 0x2598 <Scan_USART_Transmit+0x1342>
    259c:	00 c0       	rjmp	.+0      	; 0x259e <Scan_USART_Transmit+0x1348>
    259e:	00 00       	nop
	_delay_ms(RC_DELAY);
//************************************** Ждём и начинаем опрос
pull_PINF();
    25a0:	0e 94 cb 07 	call	0xf96	; 0xf96 <pull_PINF>
pull_PINE();
    25a4:	0e 94 f0 07 	call	0xfe0	; 0xfe0 <pull_PINE>
pull_PINB();
    25a8:	0e 94 27 08 	call	0x104e	; 0x104e <pull_PINB>
pull_PIND();
    25ac:	0e 94 70 08 	call	0x10e0	; 0x10e0 <pull_PIND>
pull_PINC();
    25b0:	0e 94 99 08 	call	0x1132	; 0x1132 <pull_PINC>
//************************************** Опрос PINA-7
if (PINA & (1 << 7))
    25b4:	cf 9b       	sbis	0x19, 7	; 25
    25b6:	05 c0       	rjmp	.+10     	; 0x25c2 <Scan_USART_Transmit+0x136c>
{
	while ( !( UCSR0A & (1<<UDRE0)) );
    25b8:	5d 9b       	sbis	0x0b, 5	; 11
    25ba:	fe cf       	rjmp	.-4      	; 0x25b8 <Scan_USART_Transmit+0x1362>
	UDR0 = '1';
    25bc:	81 e3       	ldi	r24, 0x31	; 49
    25be:	8c b9       	out	0x0c, r24	; 12
    25c0:	02 c0       	rjmp	.+4      	; 0x25c6 <Scan_USART_Transmit+0x1370>
}
else USART_Transmit_0();
    25c2:	0e 94 87 16 	call	0x2d0e	; 0x2d0e <USART_Transmit_0>
//************************************** Опрос PINA-6
if (PINA & (1 << 6))
    25c6:	ce 9b       	sbis	0x19, 6	; 25
    25c8:	05 c0       	rjmp	.+10     	; 0x25d4 <Scan_USART_Transmit+0x137e>
{
	while ( !( UCSR0A & (1<<UDRE0)) );
    25ca:	5d 9b       	sbis	0x0b, 5	; 11
    25cc:	fe cf       	rjmp	.-4      	; 0x25ca <Scan_USART_Transmit+0x1374>
	UDR0 = '1';
    25ce:	81 e3       	ldi	r24, 0x31	; 49
    25d0:	8c b9       	out	0x0c, r24	; 12
    25d2:	02 c0       	rjmp	.+4      	; 0x25d8 <Scan_USART_Transmit+0x1382>
}
else USART_Transmit_0();
    25d4:	0e 94 87 16 	call	0x2d0e	; 0x2d0e <USART_Transmit_0>
//************************************** Посылем * при наступлении очереди передачи состояния пина с выставленной 1	
	while ( !( UCSR0A & (1<<UDRE0)) );
    25d8:	5d 9b       	sbis	0x0b, 5	; 11
    25da:	fe cf       	rjmp	.-4      	; 0x25d8 <Scan_USART_Transmit+0x1382>
		UDR0 = 'U';
    25dc:	85 e5       	ldi	r24, 0x55	; 85
    25de:	8c b9       	out	0x0c, r24	; 12
//************************************** Опрос PINA-4
if (PINA & (1 << 4))
    25e0:	cc 9b       	sbis	0x19, 4	; 25
    25e2:	05 c0       	rjmp	.+10     	; 0x25ee <Scan_USART_Transmit+0x1398>
{
	while ( !( UCSR0A & (1<<UDRE0)) );
    25e4:	5d 9b       	sbis	0x0b, 5	; 11
    25e6:	fe cf       	rjmp	.-4      	; 0x25e4 <Scan_USART_Transmit+0x138e>
	UDR0 = '1';
    25e8:	81 e3       	ldi	r24, 0x31	; 49
    25ea:	8c b9       	out	0x0c, r24	; 12
    25ec:	02 c0       	rjmp	.+4      	; 0x25f2 <Scan_USART_Transmit+0x139c>
}
else USART_Transmit_0();
    25ee:	0e 94 87 16 	call	0x2d0e	; 0x2d0e <USART_Transmit_0>
//************************************** Опрос PINA-3
if (PINA & (1 << 3))
    25f2:	cb 9b       	sbis	0x19, 3	; 25
    25f4:	05 c0       	rjmp	.+10     	; 0x2600 <Scan_USART_Transmit+0x13aa>
{
	while ( !( UCSR0A & (1<<UDRE0)) );
    25f6:	5d 9b       	sbis	0x0b, 5	; 11
    25f8:	fe cf       	rjmp	.-4      	; 0x25f6 <Scan_USART_Transmit+0x13a0>
	UDR0 = '1';
    25fa:	81 e3       	ldi	r24, 0x31	; 49
    25fc:	8c b9       	out	0x0c, r24	; 12
    25fe:	02 c0       	rjmp	.+4      	; 0x2604 <Scan_USART_Transmit+0x13ae>
}
else USART_Transmit_0();
    2600:	0e 94 87 16 	call	0x2d0e	; 0x2d0e <USART_Transmit_0>
//************************************** Опрос PINA-2
if (PINA & (1 << 2))
    2604:	ca 9b       	sbis	0x19, 2	; 25
    2606:	05 c0       	rjmp	.+10     	; 0x2612 <Scan_USART_Transmit+0x13bc>
{
	while ( !( UCSR0A & (1<<UDRE0)) );
    2608:	5d 9b       	sbis	0x0b, 5	; 11
    260a:	fe cf       	rjmp	.-4      	; 0x2608 <Scan_USART_Transmit+0x13b2>
	UDR0 = '1';
    260c:	81 e3       	ldi	r24, 0x31	; 49
    260e:	8c b9       	out	0x0c, r24	; 12
    2610:	02 c0       	rjmp	.+4      	; 0x2616 <Scan_USART_Transmit+0x13c0>
}
else USART_Transmit_0();
    2612:	0e 94 87 16 	call	0x2d0e	; 0x2d0e <USART_Transmit_0>
//************************************** Опрос PINA-1
if (PINA & (1 << 1))
    2616:	c9 9b       	sbis	0x19, 1	; 25
    2618:	05 c0       	rjmp	.+10     	; 0x2624 <Scan_USART_Transmit+0x13ce>
{
	while ( !( UCSR0A & (1<<UDRE0)) );
    261a:	5d 9b       	sbis	0x0b, 5	; 11
    261c:	fe cf       	rjmp	.-4      	; 0x261a <Scan_USART_Transmit+0x13c4>
	UDR0 = '1';
    261e:	81 e3       	ldi	r24, 0x31	; 49
    2620:	8c b9       	out	0x0c, r24	; 12
    2622:	02 c0       	rjmp	.+4      	; 0x2628 <Scan_USART_Transmit+0x13d2>
}
else USART_Transmit_0();
    2624:	0e 94 87 16 	call	0x2d0e	; 0x2d0e <USART_Transmit_0>
//************************************** Опрос PINA-0
if (PINA & (1 << 0))
    2628:	c8 9b       	sbis	0x19, 0	; 25
    262a:	05 c0       	rjmp	.+10     	; 0x2636 <Scan_USART_Transmit+0x13e0>
{
	while ( !( UCSR0A & (1<<UDRE0)) );
    262c:	5d 9b       	sbis	0x0b, 5	; 11
    262e:	fe cf       	rjmp	.-4      	; 0x262c <Scan_USART_Transmit+0x13d6>
	UDR0 = '1';
    2630:	81 e3       	ldi	r24, 0x31	; 49
    2632:	8c b9       	out	0x0c, r24	; 12
    2634:	02 c0       	rjmp	.+4      	; 0x263a <Scan_USART_Transmit+0x13e4>
}
else USART_Transmit_0();
    2636:	0e 94 87 16 	call	0x2d0e	; 0x2d0e <USART_Transmit_0>


DDRA &= ~(1 << 5);			// Убираем 1 с пина
    263a:	d5 98       	cbi	0x1a, 5	; 26
PORTA &= ~(1 << 5);
    263c:	dd 98       	cbi	0x1b, 5	; 27
//*********************************************************************************************** Выставляем 1 на пин 4 порта A
	DDRA |=	1 << 4;
    263e:	d4 9a       	sbi	0x1a, 4	; 26
	PORTA |= 1 << 4;
    2640:	dc 9a       	sbi	0x1b, 4	; 27
    2642:	8f e3       	ldi	r24, 0x3F	; 63
    2644:	9c e9       	ldi	r25, 0x9C	; 156
    2646:	01 97       	sbiw	r24, 0x01	; 1
    2648:	f1 f7       	brne	.-4      	; 0x2646 <Scan_USART_Transmit+0x13f0>
    264a:	00 c0       	rjmp	.+0      	; 0x264c <Scan_USART_Transmit+0x13f6>
    264c:	00 00       	nop
	_delay_ms(RC_DELAY);
//************************************** Ждём и начинаем опрос
pull_PINF();
    264e:	0e 94 cb 07 	call	0xf96	; 0xf96 <pull_PINF>
pull_PINE();
    2652:	0e 94 f0 07 	call	0xfe0	; 0xfe0 <pull_PINE>
pull_PINB();
    2656:	0e 94 27 08 	call	0x104e	; 0x104e <pull_PINB>
pull_PIND();
    265a:	0e 94 70 08 	call	0x10e0	; 0x10e0 <pull_PIND>
pull_PINC();
    265e:	0e 94 99 08 	call	0x1132	; 0x1132 <pull_PINC>
//************************************** Опрос PINA-7
if (PINA & (1 << 7))
    2662:	cf 9b       	sbis	0x19, 7	; 25
    2664:	05 c0       	rjmp	.+10     	; 0x2670 <Scan_USART_Transmit+0x141a>
{
	while ( !( UCSR0A & (1<<UDRE0)) );
    2666:	5d 9b       	sbis	0x0b, 5	; 11
    2668:	fe cf       	rjmp	.-4      	; 0x2666 <Scan_USART_Transmit+0x1410>
	UDR0 = '1';
    266a:	81 e3       	ldi	r24, 0x31	; 49
    266c:	8c b9       	out	0x0c, r24	; 12
    266e:	02 c0       	rjmp	.+4      	; 0x2674 <Scan_USART_Transmit+0x141e>
}
else USART_Transmit_0();
    2670:	0e 94 87 16 	call	0x2d0e	; 0x2d0e <USART_Transmit_0>
//************************************** Опрос PINA-6
if (PINA & (1 << 6))
    2674:	ce 9b       	sbis	0x19, 6	; 25
    2676:	05 c0       	rjmp	.+10     	; 0x2682 <Scan_USART_Transmit+0x142c>
{
	while ( !( UCSR0A & (1<<UDRE0)) );
    2678:	5d 9b       	sbis	0x0b, 5	; 11
    267a:	fe cf       	rjmp	.-4      	; 0x2678 <Scan_USART_Transmit+0x1422>
	UDR0 = '1';
    267c:	81 e3       	ldi	r24, 0x31	; 49
    267e:	8c b9       	out	0x0c, r24	; 12
    2680:	02 c0       	rjmp	.+4      	; 0x2686 <Scan_USART_Transmit+0x1430>
}
else USART_Transmit_0();
    2682:	0e 94 87 16 	call	0x2d0e	; 0x2d0e <USART_Transmit_0>
//************************************** Опрос PINA-5
if (PINA & (1 << 5))
    2686:	cd 9b       	sbis	0x19, 5	; 25
    2688:	05 c0       	rjmp	.+10     	; 0x2694 <Scan_USART_Transmit+0x143e>
{
	while ( !( UCSR0A & (1<<UDRE0)) );
    268a:	5d 9b       	sbis	0x0b, 5	; 11
    268c:	fe cf       	rjmp	.-4      	; 0x268a <Scan_USART_Transmit+0x1434>
	UDR0 = '1';
    268e:	81 e3       	ldi	r24, 0x31	; 49
    2690:	8c b9       	out	0x0c, r24	; 12
    2692:	02 c0       	rjmp	.+4      	; 0x2698 <Scan_USART_Transmit+0x1442>
}
else USART_Transmit_0();
    2694:	0e 94 87 16 	call	0x2d0e	; 0x2d0e <USART_Transmit_0>
//************************************** Посылем * при наступлении очереди передачи состояния пина с выставленной 1	
	while ( !( UCSR0A & (1<<UDRE0)) );
    2698:	5d 9b       	sbis	0x0b, 5	; 11
    269a:	fe cf       	rjmp	.-4      	; 0x2698 <Scan_USART_Transmit+0x1442>
		UDR0 = 'U';
    269c:	85 e5       	ldi	r24, 0x55	; 85
    269e:	8c b9       	out	0x0c, r24	; 12
//************************************** Опрос PINA-3
if (PINA & (1 << 3))
    26a0:	cb 9b       	sbis	0x19, 3	; 25
    26a2:	05 c0       	rjmp	.+10     	; 0x26ae <Scan_USART_Transmit+0x1458>
{
	while ( !( UCSR0A & (1<<UDRE0)) );
    26a4:	5d 9b       	sbis	0x0b, 5	; 11
    26a6:	fe cf       	rjmp	.-4      	; 0x26a4 <Scan_USART_Transmit+0x144e>
	UDR0 = '1';
    26a8:	81 e3       	ldi	r24, 0x31	; 49
    26aa:	8c b9       	out	0x0c, r24	; 12
    26ac:	02 c0       	rjmp	.+4      	; 0x26b2 <Scan_USART_Transmit+0x145c>
}
else USART_Transmit_0();
    26ae:	0e 94 87 16 	call	0x2d0e	; 0x2d0e <USART_Transmit_0>
//************************************** Опрос PINA-2
if (PINA & (1 << 2))
    26b2:	ca 9b       	sbis	0x19, 2	; 25
    26b4:	05 c0       	rjmp	.+10     	; 0x26c0 <Scan_USART_Transmit+0x146a>
{
	while ( !( UCSR0A & (1<<UDRE0)) );
    26b6:	5d 9b       	sbis	0x0b, 5	; 11
    26b8:	fe cf       	rjmp	.-4      	; 0x26b6 <Scan_USART_Transmit+0x1460>
	UDR0 = '1';
    26ba:	81 e3       	ldi	r24, 0x31	; 49
    26bc:	8c b9       	out	0x0c, r24	; 12
    26be:	02 c0       	rjmp	.+4      	; 0x26c4 <Scan_USART_Transmit+0x146e>
}
else USART_Transmit_0();
    26c0:	0e 94 87 16 	call	0x2d0e	; 0x2d0e <USART_Transmit_0>
//************************************** Опрос PINA-1
if (PINA & (1 << 1))
    26c4:	c9 9b       	sbis	0x19, 1	; 25
    26c6:	05 c0       	rjmp	.+10     	; 0x26d2 <Scan_USART_Transmit+0x147c>
{
	while ( !( UCSR0A & (1<<UDRE0)) );
    26c8:	5d 9b       	sbis	0x0b, 5	; 11
    26ca:	fe cf       	rjmp	.-4      	; 0x26c8 <Scan_USART_Transmit+0x1472>
	UDR0 = '1';
    26cc:	81 e3       	ldi	r24, 0x31	; 49
    26ce:	8c b9       	out	0x0c, r24	; 12
    26d0:	02 c0       	rjmp	.+4      	; 0x26d6 <Scan_USART_Transmit+0x1480>
}
else USART_Transmit_0();
    26d2:	0e 94 87 16 	call	0x2d0e	; 0x2d0e <USART_Transmit_0>
//************************************** Опрос PINA-0
if (PINA & (1 << 0))
    26d6:	c8 9b       	sbis	0x19, 0	; 25
    26d8:	05 c0       	rjmp	.+10     	; 0x26e4 <Scan_USART_Transmit+0x148e>
{
	while ( !( UCSR0A & (1<<UDRE0)) );
    26da:	5d 9b       	sbis	0x0b, 5	; 11
    26dc:	fe cf       	rjmp	.-4      	; 0x26da <Scan_USART_Transmit+0x1484>
	UDR0 = '1';
    26de:	81 e3       	ldi	r24, 0x31	; 49
    26e0:	8c b9       	out	0x0c, r24	; 12
    26e2:	02 c0       	rjmp	.+4      	; 0x26e8 <Scan_USART_Transmit+0x1492>
}
else USART_Transmit_0();
    26e4:	0e 94 87 16 	call	0x2d0e	; 0x2d0e <USART_Transmit_0>


DDRA &= ~(1 << 4);			// Убираем 1 с пина
    26e8:	d4 98       	cbi	0x1a, 4	; 26
PORTA &= ~(1 << 4);
    26ea:	dc 98       	cbi	0x1b, 4	; 27
//*********************************************************************************************** Выставляем 1 на пин 3 порта A
	DDRA |=	1 << 3;
    26ec:	d3 9a       	sbi	0x1a, 3	; 26
	PORTA |= 1 << 3;
    26ee:	db 9a       	sbi	0x1b, 3	; 27
    26f0:	8f e3       	ldi	r24, 0x3F	; 63
    26f2:	9c e9       	ldi	r25, 0x9C	; 156
    26f4:	01 97       	sbiw	r24, 0x01	; 1
    26f6:	f1 f7       	brne	.-4      	; 0x26f4 <Scan_USART_Transmit+0x149e>
    26f8:	00 c0       	rjmp	.+0      	; 0x26fa <Scan_USART_Transmit+0x14a4>
    26fa:	00 00       	nop
	_delay_ms(RC_DELAY);
//************************************** Ждём и начинаем опрос
pull_PINF();
    26fc:	0e 94 cb 07 	call	0xf96	; 0xf96 <pull_PINF>
pull_PINE();
    2700:	0e 94 f0 07 	call	0xfe0	; 0xfe0 <pull_PINE>
pull_PINB();
    2704:	0e 94 27 08 	call	0x104e	; 0x104e <pull_PINB>
pull_PIND();
    2708:	0e 94 70 08 	call	0x10e0	; 0x10e0 <pull_PIND>
pull_PINC();
    270c:	0e 94 99 08 	call	0x1132	; 0x1132 <pull_PINC>
//************************************** Опрос PINA-7
if (PINA & (1 << 7))
    2710:	cf 9b       	sbis	0x19, 7	; 25
    2712:	05 c0       	rjmp	.+10     	; 0x271e <Scan_USART_Transmit+0x14c8>
{
	while ( !( UCSR0A & (1<<UDRE0)) );
    2714:	5d 9b       	sbis	0x0b, 5	; 11
    2716:	fe cf       	rjmp	.-4      	; 0x2714 <Scan_USART_Transmit+0x14be>
	UDR0 = '1';
    2718:	81 e3       	ldi	r24, 0x31	; 49
    271a:	8c b9       	out	0x0c, r24	; 12
    271c:	02 c0       	rjmp	.+4      	; 0x2722 <Scan_USART_Transmit+0x14cc>
}
else USART_Transmit_0();
    271e:	0e 94 87 16 	call	0x2d0e	; 0x2d0e <USART_Transmit_0>
//************************************** Опрос PINA-6
if (PINA & (1 << 6))
    2722:	ce 9b       	sbis	0x19, 6	; 25
    2724:	05 c0       	rjmp	.+10     	; 0x2730 <Scan_USART_Transmit+0x14da>
{
	while ( !( UCSR0A & (1<<UDRE0)) );
    2726:	5d 9b       	sbis	0x0b, 5	; 11
    2728:	fe cf       	rjmp	.-4      	; 0x2726 <Scan_USART_Transmit+0x14d0>
	UDR0 = '1';
    272a:	81 e3       	ldi	r24, 0x31	; 49
    272c:	8c b9       	out	0x0c, r24	; 12
    272e:	02 c0       	rjmp	.+4      	; 0x2734 <Scan_USART_Transmit+0x14de>
}
else USART_Transmit_0();
    2730:	0e 94 87 16 	call	0x2d0e	; 0x2d0e <USART_Transmit_0>
//************************************** Опрос PINA-5
if (PINA & (1 << 5))
    2734:	cd 9b       	sbis	0x19, 5	; 25
    2736:	05 c0       	rjmp	.+10     	; 0x2742 <Scan_USART_Transmit+0x14ec>
{
	while ( !( UCSR0A & (1<<UDRE0)) );
    2738:	5d 9b       	sbis	0x0b, 5	; 11
    273a:	fe cf       	rjmp	.-4      	; 0x2738 <Scan_USART_Transmit+0x14e2>
	UDR0 = '1';
    273c:	81 e3       	ldi	r24, 0x31	; 49
    273e:	8c b9       	out	0x0c, r24	; 12
    2740:	02 c0       	rjmp	.+4      	; 0x2746 <Scan_USART_Transmit+0x14f0>
}
else USART_Transmit_0();
    2742:	0e 94 87 16 	call	0x2d0e	; 0x2d0e <USART_Transmit_0>
//************************************** Опрос PINA-4
if (PINA & (1 << 4))
    2746:	cc 9b       	sbis	0x19, 4	; 25
    2748:	05 c0       	rjmp	.+10     	; 0x2754 <Scan_USART_Transmit+0x14fe>
{
	while ( !( UCSR0A & (1<<UDRE0)) );
    274a:	5d 9b       	sbis	0x0b, 5	; 11
    274c:	fe cf       	rjmp	.-4      	; 0x274a <Scan_USART_Transmit+0x14f4>
	UDR0 = '1';
    274e:	81 e3       	ldi	r24, 0x31	; 49
    2750:	8c b9       	out	0x0c, r24	; 12
    2752:	02 c0       	rjmp	.+4      	; 0x2758 <Scan_USART_Transmit+0x1502>
}
else USART_Transmit_0();
    2754:	0e 94 87 16 	call	0x2d0e	; 0x2d0e <USART_Transmit_0>
//************************************** Посылем * при наступлении очереди передачи состояния пина с выставленной 1	
	while ( !( UCSR0A & (1<<UDRE0)) );
    2758:	5d 9b       	sbis	0x0b, 5	; 11
    275a:	fe cf       	rjmp	.-4      	; 0x2758 <Scan_USART_Transmit+0x1502>
		UDR0 = 'U';
    275c:	85 e5       	ldi	r24, 0x55	; 85
    275e:	8c b9       	out	0x0c, r24	; 12
//************************************** Опрос PINA-2
if (PINA & (1 << 2))
    2760:	ca 9b       	sbis	0x19, 2	; 25
    2762:	05 c0       	rjmp	.+10     	; 0x276e <Scan_USART_Transmit+0x1518>
{
	while ( !( UCSR0A & (1<<UDRE0)) );
    2764:	5d 9b       	sbis	0x0b, 5	; 11
    2766:	fe cf       	rjmp	.-4      	; 0x2764 <Scan_USART_Transmit+0x150e>
	UDR0 = '1';
    2768:	81 e3       	ldi	r24, 0x31	; 49
    276a:	8c b9       	out	0x0c, r24	; 12
    276c:	02 c0       	rjmp	.+4      	; 0x2772 <Scan_USART_Transmit+0x151c>
}
else USART_Transmit_0();
    276e:	0e 94 87 16 	call	0x2d0e	; 0x2d0e <USART_Transmit_0>
//************************************** Опрос PINA-1
if (PINA & (1 << 1))
    2772:	c9 9b       	sbis	0x19, 1	; 25
    2774:	05 c0       	rjmp	.+10     	; 0x2780 <Scan_USART_Transmit+0x152a>
{
	while ( !( UCSR0A & (1<<UDRE0)) );
    2776:	5d 9b       	sbis	0x0b, 5	; 11
    2778:	fe cf       	rjmp	.-4      	; 0x2776 <Scan_USART_Transmit+0x1520>
	UDR0 = '1';
    277a:	81 e3       	ldi	r24, 0x31	; 49
    277c:	8c b9       	out	0x0c, r24	; 12
    277e:	02 c0       	rjmp	.+4      	; 0x2784 <Scan_USART_Transmit+0x152e>
}
else USART_Transmit_0();
    2780:	0e 94 87 16 	call	0x2d0e	; 0x2d0e <USART_Transmit_0>
//************************************** Опрос PINA-0
if (PINA & (1 << 0))
    2784:	c8 9b       	sbis	0x19, 0	; 25
    2786:	05 c0       	rjmp	.+10     	; 0x2792 <Scan_USART_Transmit+0x153c>
{
	while ( !( UCSR0A & (1<<UDRE0)) );
    2788:	5d 9b       	sbis	0x0b, 5	; 11
    278a:	fe cf       	rjmp	.-4      	; 0x2788 <Scan_USART_Transmit+0x1532>
	UDR0 = '1';
    278c:	81 e3       	ldi	r24, 0x31	; 49
    278e:	8c b9       	out	0x0c, r24	; 12
    2790:	02 c0       	rjmp	.+4      	; 0x2796 <Scan_USART_Transmit+0x1540>
}
else USART_Transmit_0();
    2792:	0e 94 87 16 	call	0x2d0e	; 0x2d0e <USART_Transmit_0>


DDRA &= ~(1 << 3);			// Убираем 1 с пина
    2796:	d3 98       	cbi	0x1a, 3	; 26
PORTA &= ~(1 << 3);
    2798:	db 98       	cbi	0x1b, 3	; 27

//*********************************************************************************************** Выставляем 1 на пин 2 порта A
	DDRA |=	1 << 2;
    279a:	d2 9a       	sbi	0x1a, 2	; 26
	PORTA |= 1 << 2;
    279c:	da 9a       	sbi	0x1b, 2	; 27
    279e:	8f e3       	ldi	r24, 0x3F	; 63
    27a0:	9c e9       	ldi	r25, 0x9C	; 156
    27a2:	01 97       	sbiw	r24, 0x01	; 1
    27a4:	f1 f7       	brne	.-4      	; 0x27a2 <Scan_USART_Transmit+0x154c>
    27a6:	00 c0       	rjmp	.+0      	; 0x27a8 <Scan_USART_Transmit+0x1552>
    27a8:	00 00       	nop
	_delay_ms(RC_DELAY);
//************************************** Ждём и начинаем опрос
pull_PINF();
    27aa:	0e 94 cb 07 	call	0xf96	; 0xf96 <pull_PINF>
pull_PINE();
    27ae:	0e 94 f0 07 	call	0xfe0	; 0xfe0 <pull_PINE>
pull_PINB();
    27b2:	0e 94 27 08 	call	0x104e	; 0x104e <pull_PINB>
pull_PIND();
    27b6:	0e 94 70 08 	call	0x10e0	; 0x10e0 <pull_PIND>
pull_PINC();
    27ba:	0e 94 99 08 	call	0x1132	; 0x1132 <pull_PINC>
//************************************** Опрос PINA-7
if (PINA & (1 << 7))
    27be:	cf 9b       	sbis	0x19, 7	; 25
    27c0:	05 c0       	rjmp	.+10     	; 0x27cc <Scan_USART_Transmit+0x1576>
{
	while ( !( UCSR0A & (1<<UDRE0)) );
    27c2:	5d 9b       	sbis	0x0b, 5	; 11
    27c4:	fe cf       	rjmp	.-4      	; 0x27c2 <Scan_USART_Transmit+0x156c>
	UDR0 = '1';
    27c6:	81 e3       	ldi	r24, 0x31	; 49
    27c8:	8c b9       	out	0x0c, r24	; 12
    27ca:	02 c0       	rjmp	.+4      	; 0x27d0 <Scan_USART_Transmit+0x157a>
}
else USART_Transmit_0();
    27cc:	0e 94 87 16 	call	0x2d0e	; 0x2d0e <USART_Transmit_0>
//************************************** Опрос PINA-6
if (PINA & (1 << 6))
    27d0:	ce 9b       	sbis	0x19, 6	; 25
    27d2:	05 c0       	rjmp	.+10     	; 0x27de <Scan_USART_Transmit+0x1588>
{
	while ( !( UCSR0A & (1<<UDRE0)) );
    27d4:	5d 9b       	sbis	0x0b, 5	; 11
    27d6:	fe cf       	rjmp	.-4      	; 0x27d4 <Scan_USART_Transmit+0x157e>
	UDR0 = '1';
    27d8:	81 e3       	ldi	r24, 0x31	; 49
    27da:	8c b9       	out	0x0c, r24	; 12
    27dc:	02 c0       	rjmp	.+4      	; 0x27e2 <Scan_USART_Transmit+0x158c>
}
else USART_Transmit_0();
    27de:	0e 94 87 16 	call	0x2d0e	; 0x2d0e <USART_Transmit_0>
//************************************** Опрос PINA-5
if (PINA & (1 << 5))
    27e2:	cd 9b       	sbis	0x19, 5	; 25
    27e4:	05 c0       	rjmp	.+10     	; 0x27f0 <Scan_USART_Transmit+0x159a>
{
	while ( !( UCSR0A & (1<<UDRE0)) );
    27e6:	5d 9b       	sbis	0x0b, 5	; 11
    27e8:	fe cf       	rjmp	.-4      	; 0x27e6 <Scan_USART_Transmit+0x1590>
	UDR0 = '1';
    27ea:	81 e3       	ldi	r24, 0x31	; 49
    27ec:	8c b9       	out	0x0c, r24	; 12
    27ee:	02 c0       	rjmp	.+4      	; 0x27f4 <Scan_USART_Transmit+0x159e>
}
else USART_Transmit_0();
    27f0:	0e 94 87 16 	call	0x2d0e	; 0x2d0e <USART_Transmit_0>
//************************************** Опрос PINA-4
if (PINA & (1 << 4))
    27f4:	cc 9b       	sbis	0x19, 4	; 25
    27f6:	05 c0       	rjmp	.+10     	; 0x2802 <Scan_USART_Transmit+0x15ac>
{
	while ( !( UCSR0A & (1<<UDRE0)) );
    27f8:	5d 9b       	sbis	0x0b, 5	; 11
    27fa:	fe cf       	rjmp	.-4      	; 0x27f8 <Scan_USART_Transmit+0x15a2>
	UDR0 = '1';
    27fc:	81 e3       	ldi	r24, 0x31	; 49
    27fe:	8c b9       	out	0x0c, r24	; 12
    2800:	02 c0       	rjmp	.+4      	; 0x2806 <Scan_USART_Transmit+0x15b0>
}
else USART_Transmit_0();
    2802:	0e 94 87 16 	call	0x2d0e	; 0x2d0e <USART_Transmit_0>
//************************************** Опрос PINA-3
if (PINA & (1 << 3))
    2806:	cb 9b       	sbis	0x19, 3	; 25
    2808:	05 c0       	rjmp	.+10     	; 0x2814 <Scan_USART_Transmit+0x15be>
{
	while ( !( UCSR0A & (1<<UDRE0)) );
    280a:	5d 9b       	sbis	0x0b, 5	; 11
    280c:	fe cf       	rjmp	.-4      	; 0x280a <Scan_USART_Transmit+0x15b4>
	UDR0 = '1';
    280e:	81 e3       	ldi	r24, 0x31	; 49
    2810:	8c b9       	out	0x0c, r24	; 12
    2812:	02 c0       	rjmp	.+4      	; 0x2818 <Scan_USART_Transmit+0x15c2>
}
else USART_Transmit_0();
    2814:	0e 94 87 16 	call	0x2d0e	; 0x2d0e <USART_Transmit_0>
//************************************** Посылем * при наступлении очереди передачи состояния пина с выставленной 1	
	while ( !( UCSR0A & (1<<UDRE0)) );
    2818:	5d 9b       	sbis	0x0b, 5	; 11
    281a:	fe cf       	rjmp	.-4      	; 0x2818 <Scan_USART_Transmit+0x15c2>
		UDR0 = 'U';
    281c:	85 e5       	ldi	r24, 0x55	; 85
    281e:	8c b9       	out	0x0c, r24	; 12
//************************************** Опрос PINA-1
if (PINA & (1 << 1))
    2820:	c9 9b       	sbis	0x19, 1	; 25
    2822:	05 c0       	rjmp	.+10     	; 0x282e <Scan_USART_Transmit+0x15d8>
{
	while ( !( UCSR0A & (1<<UDRE0)) );
    2824:	5d 9b       	sbis	0x0b, 5	; 11
    2826:	fe cf       	rjmp	.-4      	; 0x2824 <Scan_USART_Transmit+0x15ce>
	UDR0 = '1';
    2828:	81 e3       	ldi	r24, 0x31	; 49
    282a:	8c b9       	out	0x0c, r24	; 12
    282c:	02 c0       	rjmp	.+4      	; 0x2832 <Scan_USART_Transmit+0x15dc>
}
else USART_Transmit_0();
    282e:	0e 94 87 16 	call	0x2d0e	; 0x2d0e <USART_Transmit_0>
//************************************** Опрос PINA-0
if (PINA & (1 << 0))
    2832:	c8 9b       	sbis	0x19, 0	; 25
    2834:	05 c0       	rjmp	.+10     	; 0x2840 <Scan_USART_Transmit+0x15ea>
{
	while ( !( UCSR0A & (1<<UDRE0)) );
    2836:	5d 9b       	sbis	0x0b, 5	; 11
    2838:	fe cf       	rjmp	.-4      	; 0x2836 <Scan_USART_Transmit+0x15e0>
	UDR0 = '1';
    283a:	81 e3       	ldi	r24, 0x31	; 49
    283c:	8c b9       	out	0x0c, r24	; 12
    283e:	02 c0       	rjmp	.+4      	; 0x2844 <Scan_USART_Transmit+0x15ee>
}
else USART_Transmit_0();
    2840:	0e 94 87 16 	call	0x2d0e	; 0x2d0e <USART_Transmit_0>


DDRA &= ~(1 << 2);			// Убираем 1 с пина
    2844:	d2 98       	cbi	0x1a, 2	; 26
PORTA &= ~(1 << 2);
    2846:	da 98       	cbi	0x1b, 2	; 27
//*********************************************************************************************** Выставляем 1 на пин 1 порта A
	DDRA |=	1 << 1;
    2848:	d1 9a       	sbi	0x1a, 1	; 26
	PORTA |= 1 << 1;
    284a:	d9 9a       	sbi	0x1b, 1	; 27
    284c:	8f e3       	ldi	r24, 0x3F	; 63
    284e:	9c e9       	ldi	r25, 0x9C	; 156
    2850:	01 97       	sbiw	r24, 0x01	; 1
    2852:	f1 f7       	brne	.-4      	; 0x2850 <Scan_USART_Transmit+0x15fa>
    2854:	00 c0       	rjmp	.+0      	; 0x2856 <Scan_USART_Transmit+0x1600>
    2856:	00 00       	nop
	_delay_ms(RC_DELAY);
//************************************** Ждём и начинаем опрос
pull_PINF();
    2858:	0e 94 cb 07 	call	0xf96	; 0xf96 <pull_PINF>
pull_PINE();
    285c:	0e 94 f0 07 	call	0xfe0	; 0xfe0 <pull_PINE>
pull_PINB();
    2860:	0e 94 27 08 	call	0x104e	; 0x104e <pull_PINB>
pull_PIND();
    2864:	0e 94 70 08 	call	0x10e0	; 0x10e0 <pull_PIND>
pull_PINC();
    2868:	0e 94 99 08 	call	0x1132	; 0x1132 <pull_PINC>
//************************************** Опрос PINA-7
if (PINA & (1 << 7))
    286c:	cf 9b       	sbis	0x19, 7	; 25
    286e:	05 c0       	rjmp	.+10     	; 0x287a <Scan_USART_Transmit+0x1624>
{
	while ( !( UCSR0A & (1<<UDRE0)) );
    2870:	5d 9b       	sbis	0x0b, 5	; 11
    2872:	fe cf       	rjmp	.-4      	; 0x2870 <Scan_USART_Transmit+0x161a>
	UDR0 = '1';
    2874:	81 e3       	ldi	r24, 0x31	; 49
    2876:	8c b9       	out	0x0c, r24	; 12
    2878:	02 c0       	rjmp	.+4      	; 0x287e <Scan_USART_Transmit+0x1628>
}
else USART_Transmit_0();
    287a:	0e 94 87 16 	call	0x2d0e	; 0x2d0e <USART_Transmit_0>
//************************************** Опрос PINA-6
if (PINA & (1 << 6))
    287e:	ce 9b       	sbis	0x19, 6	; 25
    2880:	05 c0       	rjmp	.+10     	; 0x288c <Scan_USART_Transmit+0x1636>
{
	while ( !( UCSR0A & (1<<UDRE0)) );
    2882:	5d 9b       	sbis	0x0b, 5	; 11
    2884:	fe cf       	rjmp	.-4      	; 0x2882 <Scan_USART_Transmit+0x162c>
	UDR0 = '1';
    2886:	81 e3       	ldi	r24, 0x31	; 49
    2888:	8c b9       	out	0x0c, r24	; 12
    288a:	02 c0       	rjmp	.+4      	; 0x2890 <Scan_USART_Transmit+0x163a>
}
else USART_Transmit_0();
    288c:	0e 94 87 16 	call	0x2d0e	; 0x2d0e <USART_Transmit_0>
//************************************** Опрос PINA-5
if (PINA & (1 << 5))
    2890:	cd 9b       	sbis	0x19, 5	; 25
    2892:	05 c0       	rjmp	.+10     	; 0x289e <Scan_USART_Transmit+0x1648>
{
	while ( !( UCSR0A & (1<<UDRE0)) );
    2894:	5d 9b       	sbis	0x0b, 5	; 11
    2896:	fe cf       	rjmp	.-4      	; 0x2894 <Scan_USART_Transmit+0x163e>
	UDR0 = '1';
    2898:	81 e3       	ldi	r24, 0x31	; 49
    289a:	8c b9       	out	0x0c, r24	; 12
    289c:	02 c0       	rjmp	.+4      	; 0x28a2 <Scan_USART_Transmit+0x164c>
}
else USART_Transmit_0();
    289e:	0e 94 87 16 	call	0x2d0e	; 0x2d0e <USART_Transmit_0>
//************************************** Опрос PINA-4
if (PINA & (1 << 4))
    28a2:	cc 9b       	sbis	0x19, 4	; 25
    28a4:	05 c0       	rjmp	.+10     	; 0x28b0 <Scan_USART_Transmit+0x165a>
{
	while ( !( UCSR0A & (1<<UDRE0)) );
    28a6:	5d 9b       	sbis	0x0b, 5	; 11
    28a8:	fe cf       	rjmp	.-4      	; 0x28a6 <Scan_USART_Transmit+0x1650>
	UDR0 = '1';
    28aa:	81 e3       	ldi	r24, 0x31	; 49
    28ac:	8c b9       	out	0x0c, r24	; 12
    28ae:	02 c0       	rjmp	.+4      	; 0x28b4 <Scan_USART_Transmit+0x165e>
}
else USART_Transmit_0();
    28b0:	0e 94 87 16 	call	0x2d0e	; 0x2d0e <USART_Transmit_0>
//************************************** Опрос PINA-3
if (PINA & (1 << 3))
    28b4:	cb 9b       	sbis	0x19, 3	; 25
    28b6:	05 c0       	rjmp	.+10     	; 0x28c2 <Scan_USART_Transmit+0x166c>
{
	while ( !( UCSR0A & (1<<UDRE0)) );
    28b8:	5d 9b       	sbis	0x0b, 5	; 11
    28ba:	fe cf       	rjmp	.-4      	; 0x28b8 <Scan_USART_Transmit+0x1662>
	UDR0 = '1';
    28bc:	81 e3       	ldi	r24, 0x31	; 49
    28be:	8c b9       	out	0x0c, r24	; 12
    28c0:	02 c0       	rjmp	.+4      	; 0x28c6 <Scan_USART_Transmit+0x1670>
}
else USART_Transmit_0();
    28c2:	0e 94 87 16 	call	0x2d0e	; 0x2d0e <USART_Transmit_0>
//************************************** Опрос PINA-2
if (PINA & (1 << 2))
    28c6:	ca 9b       	sbis	0x19, 2	; 25
    28c8:	05 c0       	rjmp	.+10     	; 0x28d4 <Scan_USART_Transmit+0x167e>
{
	while ( !( UCSR0A & (1<<UDRE0)) );
    28ca:	5d 9b       	sbis	0x0b, 5	; 11
    28cc:	fe cf       	rjmp	.-4      	; 0x28ca <Scan_USART_Transmit+0x1674>
	UDR0 = '1';
    28ce:	81 e3       	ldi	r24, 0x31	; 49
    28d0:	8c b9       	out	0x0c, r24	; 12
    28d2:	02 c0       	rjmp	.+4      	; 0x28d8 <Scan_USART_Transmit+0x1682>
}
else USART_Transmit_0();
    28d4:	0e 94 87 16 	call	0x2d0e	; 0x2d0e <USART_Transmit_0>
//************************************** Посылем * при наступлении очереди передачи состояния пина с выставленной 1	
	while ( !( UCSR0A & (1<<UDRE0)) );
    28d8:	5d 9b       	sbis	0x0b, 5	; 11
    28da:	fe cf       	rjmp	.-4      	; 0x28d8 <Scan_USART_Transmit+0x1682>
		UDR0 = 'U';
    28dc:	85 e5       	ldi	r24, 0x55	; 85
    28de:	8c b9       	out	0x0c, r24	; 12
//************************************** Опрос PINA-0
if (PINA & (1 << 0))
    28e0:	c8 9b       	sbis	0x19, 0	; 25
    28e2:	05 c0       	rjmp	.+10     	; 0x28ee <Scan_USART_Transmit+0x1698>
{
	while ( !( UCSR0A & (1<<UDRE0)) );
    28e4:	5d 9b       	sbis	0x0b, 5	; 11
    28e6:	fe cf       	rjmp	.-4      	; 0x28e4 <Scan_USART_Transmit+0x168e>
	UDR0 = '1';
    28e8:	81 e3       	ldi	r24, 0x31	; 49
    28ea:	8c b9       	out	0x0c, r24	; 12
    28ec:	02 c0       	rjmp	.+4      	; 0x28f2 <Scan_USART_Transmit+0x169c>
}
else USART_Transmit_0();
    28ee:	0e 94 87 16 	call	0x2d0e	; 0x2d0e <USART_Transmit_0>


DDRA &= ~(1 << 1);			// Убираем 1 с пина
    28f2:	d1 98       	cbi	0x1a, 1	; 26
PORTA &= ~(1 << 1);
    28f4:	d9 98       	cbi	0x1b, 1	; 27
//*********************************************************************************************** Выставляем 1 на пин 0 порта A
	DDRA |=	1 << 0;
    28f6:	d0 9a       	sbi	0x1a, 0	; 26
	PORTA |= 1 << 0;
    28f8:	d8 9a       	sbi	0x1b, 0	; 27
    28fa:	8f e3       	ldi	r24, 0x3F	; 63
    28fc:	9c e9       	ldi	r25, 0x9C	; 156
    28fe:	01 97       	sbiw	r24, 0x01	; 1
    2900:	f1 f7       	brne	.-4      	; 0x28fe <Scan_USART_Transmit+0x16a8>
    2902:	00 c0       	rjmp	.+0      	; 0x2904 <Scan_USART_Transmit+0x16ae>
    2904:	00 00       	nop
	_delay_ms(RC_DELAY);
//************************************** Ждём и начинаем опрос
pull_PINF();
    2906:	0e 94 cb 07 	call	0xf96	; 0xf96 <pull_PINF>
pull_PINE();
    290a:	0e 94 f0 07 	call	0xfe0	; 0xfe0 <pull_PINE>
pull_PINB();
    290e:	0e 94 27 08 	call	0x104e	; 0x104e <pull_PINB>
pull_PIND();
    2912:	0e 94 70 08 	call	0x10e0	; 0x10e0 <pull_PIND>
pull_PINC();
    2916:	0e 94 99 08 	call	0x1132	; 0x1132 <pull_PINC>
//************************************** Опрос PINA-7
if (PINA & (1 << 7))
    291a:	cf 9b       	sbis	0x19, 7	; 25
    291c:	05 c0       	rjmp	.+10     	; 0x2928 <Scan_USART_Transmit+0x16d2>
{
	while ( !( UCSR0A & (1<<UDRE0)) );
    291e:	5d 9b       	sbis	0x0b, 5	; 11
    2920:	fe cf       	rjmp	.-4      	; 0x291e <Scan_USART_Transmit+0x16c8>
	UDR0 = '1';
    2922:	81 e3       	ldi	r24, 0x31	; 49
    2924:	8c b9       	out	0x0c, r24	; 12
    2926:	02 c0       	rjmp	.+4      	; 0x292c <Scan_USART_Transmit+0x16d6>
}
else USART_Transmit_0();
    2928:	0e 94 87 16 	call	0x2d0e	; 0x2d0e <USART_Transmit_0>
//************************************** Опрос PINA-6
if (PINA & (1 << 6))
    292c:	ce 9b       	sbis	0x19, 6	; 25
    292e:	05 c0       	rjmp	.+10     	; 0x293a <Scan_USART_Transmit+0x16e4>
{
	while ( !( UCSR0A & (1<<UDRE0)) );
    2930:	5d 9b       	sbis	0x0b, 5	; 11
    2932:	fe cf       	rjmp	.-4      	; 0x2930 <Scan_USART_Transmit+0x16da>
	UDR0 = '1';
    2934:	81 e3       	ldi	r24, 0x31	; 49
    2936:	8c b9       	out	0x0c, r24	; 12
    2938:	02 c0       	rjmp	.+4      	; 0x293e <Scan_USART_Transmit+0x16e8>
}
else USART_Transmit_0();
    293a:	0e 94 87 16 	call	0x2d0e	; 0x2d0e <USART_Transmit_0>
//************************************** Опрос PINA-5
if (PINA & (1 << 5))
    293e:	cd 9b       	sbis	0x19, 5	; 25
    2940:	05 c0       	rjmp	.+10     	; 0x294c <Scan_USART_Transmit+0x16f6>
{
	while ( !( UCSR0A & (1<<UDRE0)) );
    2942:	5d 9b       	sbis	0x0b, 5	; 11
    2944:	fe cf       	rjmp	.-4      	; 0x2942 <Scan_USART_Transmit+0x16ec>
	UDR0 = '1';
    2946:	81 e3       	ldi	r24, 0x31	; 49
    2948:	8c b9       	out	0x0c, r24	; 12
    294a:	02 c0       	rjmp	.+4      	; 0x2950 <Scan_USART_Transmit+0x16fa>
}
else USART_Transmit_0();
    294c:	0e 94 87 16 	call	0x2d0e	; 0x2d0e <USART_Transmit_0>
//************************************** Опрос PINA-4
if (PINA & (1 << 4))
    2950:	cc 9b       	sbis	0x19, 4	; 25
    2952:	05 c0       	rjmp	.+10     	; 0x295e <Scan_USART_Transmit+0x1708>
{
	while ( !( UCSR0A & (1<<UDRE0)) );
    2954:	5d 9b       	sbis	0x0b, 5	; 11
    2956:	fe cf       	rjmp	.-4      	; 0x2954 <Scan_USART_Transmit+0x16fe>
	UDR0 = '1';
    2958:	81 e3       	ldi	r24, 0x31	; 49
    295a:	8c b9       	out	0x0c, r24	; 12
    295c:	02 c0       	rjmp	.+4      	; 0x2962 <Scan_USART_Transmit+0x170c>
}
else USART_Transmit_0();
    295e:	0e 94 87 16 	call	0x2d0e	; 0x2d0e <USART_Transmit_0>
//************************************** Опрос PINA-3
if (PINA & (1 << 3))
    2962:	cb 9b       	sbis	0x19, 3	; 25
    2964:	05 c0       	rjmp	.+10     	; 0x2970 <Scan_USART_Transmit+0x171a>
{
	while ( !( UCSR0A & (1<<UDRE0)) );
    2966:	5d 9b       	sbis	0x0b, 5	; 11
    2968:	fe cf       	rjmp	.-4      	; 0x2966 <Scan_USART_Transmit+0x1710>
	UDR0 = '1';
    296a:	81 e3       	ldi	r24, 0x31	; 49
    296c:	8c b9       	out	0x0c, r24	; 12
    296e:	02 c0       	rjmp	.+4      	; 0x2974 <Scan_USART_Transmit+0x171e>
}
else USART_Transmit_0();
    2970:	0e 94 87 16 	call	0x2d0e	; 0x2d0e <USART_Transmit_0>
//************************************** Опрос PINA-2
if (PINA & (1 << 2))
    2974:	ca 9b       	sbis	0x19, 2	; 25
    2976:	05 c0       	rjmp	.+10     	; 0x2982 <Scan_USART_Transmit+0x172c>
{
	while ( !( UCSR0A & (1<<UDRE0)) );
    2978:	5d 9b       	sbis	0x0b, 5	; 11
    297a:	fe cf       	rjmp	.-4      	; 0x2978 <Scan_USART_Transmit+0x1722>
	UDR0 = '1';
    297c:	81 e3       	ldi	r24, 0x31	; 49
    297e:	8c b9       	out	0x0c, r24	; 12
    2980:	02 c0       	rjmp	.+4      	; 0x2986 <Scan_USART_Transmit+0x1730>
}
else USART_Transmit_0();
    2982:	0e 94 87 16 	call	0x2d0e	; 0x2d0e <USART_Transmit_0>
//************************************** Опрос PINA-1
if (PINA & (1 << 1))
    2986:	c9 9b       	sbis	0x19, 1	; 25
    2988:	05 c0       	rjmp	.+10     	; 0x2994 <Scan_USART_Transmit+0x173e>
{
	while ( !( UCSR0A & (1<<UDRE0)) );
    298a:	5d 9b       	sbis	0x0b, 5	; 11
    298c:	fe cf       	rjmp	.-4      	; 0x298a <Scan_USART_Transmit+0x1734>
	UDR0 = '1';
    298e:	81 e3       	ldi	r24, 0x31	; 49
    2990:	8c b9       	out	0x0c, r24	; 12
    2992:	02 c0       	rjmp	.+4      	; 0x2998 <Scan_USART_Transmit+0x1742>
}
else USART_Transmit_0();
    2994:	0e 94 87 16 	call	0x2d0e	; 0x2d0e <USART_Transmit_0>
//************************************** Посылем * при наступлении очереди передачи состояния пина с выставленной 1	
	while ( !( UCSR0A & (1<<UDRE0)) );
    2998:	5d 9b       	sbis	0x0b, 5	; 11
    299a:	fe cf       	rjmp	.-4      	; 0x2998 <Scan_USART_Transmit+0x1742>
		UDR0 = 'U';
    299c:	85 e5       	ldi	r24, 0x55	; 85
    299e:	8c b9       	out	0x0c, r24	; 12


DDRA &= ~(1 << 0);			// Убираем 1 с пина
    29a0:	d0 98       	cbi	0x1a, 0	; 26
PORTA &= ~(1 << 0);
    29a2:	d8 98       	cbi	0x1b, 0	; 27

			
while ( !( UCSR0A & (1<<UDRE0)) );
    29a4:	5d 9b       	sbis	0x0b, 5	; 11
    29a6:	fe cf       	rjmp	.-4      	; 0x29a4 <Scan_USART_Transmit+0x174e>
		UDR0 = '\n';
    29a8:	8a e0       	ldi	r24, 0x0A	; 10
    29aa:	8c b9       	out	0x0c, r24	; 12
		
	BLUE_LED_OFF;
    29ac:	e5 e6       	ldi	r30, 0x65	; 101
    29ae:	f0 e0       	ldi	r31, 0x00	; 0
    29b0:	80 81       	ld	r24, Z
    29b2:	8b 7f       	andi	r24, 0xFB	; 251
    29b4:	80 83       	st	Z, r24
    29b6:	08 95       	ret

000029b8 <fromEeprom_toLongString>:
}

void fromEeprom_toLongString()
{    							   
    29b8:	cf 93       	push	r28
    29ba:	df 93       	push	r29
	Eeprom_addres_process = cell_addres;  	               
    29bc:	80 91 0c 01 	lds	r24, 0x010C	; 0x80010c <cell_addres>
    29c0:	90 91 0d 01 	lds	r25, 0x010D	; 0x80010d <cell_addres+0x1>
    29c4:	90 93 0b 01 	sts	0x010B, r25	; 0x80010b <Eeprom_addres_process+0x1>
    29c8:	80 93 0a 01 	sts	0x010A, r24	; 0x80010a <Eeprom_addres_process>
    29cc:	d6 e2       	ldi	r29, 0x26	; 38
	uint8_t recive_byte = 0;
	
	for(uint8_t i = Pass; i != 0 ; i--)
	{
		Toogle_blue_LED();
    29ce:	0e 94 c0 06 	call	0xd80	; 0xd80 <Toogle_blue_LED>
		//******************************************************** Port F
		recive_byte = EEPROM_read(Eeprom_addres_process);
    29d2:	80 91 0a 01 	lds	r24, 0x010A	; 0x80010a <Eeprom_addres_process>
    29d6:	90 91 0b 01 	lds	r25, 0x010B	; 0x80010b <Eeprom_addres_process+0x1>
    29da:	0e 94 6a 00 	call	0xd4	; 0xd4 <EEPROM_read>
    29de:	c8 2f       	mov	r28, r24
	
		if (recive_byte & (1 << 3)) USART_Transmit_1();
    29e0:	83 ff       	sbrs	r24, 3
    29e2:	03 c0       	rjmp	.+6      	; 0x29ea <fromEeprom_toLongString+0x32>
    29e4:	0e 94 8c 16 	call	0x2d18	; 0x2d18 <USART_Transmit_1>
    29e8:	02 c0       	rjmp	.+4      	; 0x29ee <fromEeprom_toLongString+0x36>
		else USART_Transmit_0();
    29ea:	0e 94 87 16 	call	0x2d0e	; 0x2d0e <USART_Transmit_0>
		if (recive_byte & (1 << 2)) USART_Transmit_1();
    29ee:	c2 ff       	sbrs	r28, 2
    29f0:	03 c0       	rjmp	.+6      	; 0x29f8 <fromEeprom_toLongString+0x40>
    29f2:	0e 94 8c 16 	call	0x2d18	; 0x2d18 <USART_Transmit_1>
    29f6:	02 c0       	rjmp	.+4      	; 0x29fc <fromEeprom_toLongString+0x44>
		else USART_Transmit_0();
    29f8:	0e 94 87 16 	call	0x2d0e	; 0x2d0e <USART_Transmit_0>
		if (recive_byte & (1 << 1)) USART_Transmit_1();
    29fc:	c1 ff       	sbrs	r28, 1
    29fe:	03 c0       	rjmp	.+6      	; 0x2a06 <fromEeprom_toLongString+0x4e>
    2a00:	0e 94 8c 16 	call	0x2d18	; 0x2d18 <USART_Transmit_1>
    2a04:	02 c0       	rjmp	.+4      	; 0x2a0a <fromEeprom_toLongString+0x52>
		else USART_Transmit_0();
    2a06:	0e 94 87 16 	call	0x2d0e	; 0x2d0e <USART_Transmit_0>
		if (recive_byte & (1 << 0)) USART_Transmit_1();
    2a0a:	c0 ff       	sbrs	r28, 0
    2a0c:	03 c0       	rjmp	.+6      	; 0x2a14 <fromEeprom_toLongString+0x5c>
    2a0e:	0e 94 8c 16 	call	0x2d18	; 0x2d18 <USART_Transmit_1>
    2a12:	02 c0       	rjmp	.+4      	; 0x2a18 <fromEeprom_toLongString+0x60>
		else USART_Transmit_0();
    2a14:	0e 94 87 16 	call	0x2d0e	; 0x2d0e <USART_Transmit_0>
		Eeprom_addres_process++;
    2a18:	80 91 0a 01 	lds	r24, 0x010A	; 0x80010a <Eeprom_addres_process>
    2a1c:	90 91 0b 01 	lds	r25, 0x010B	; 0x80010b <Eeprom_addres_process+0x1>
    2a20:	01 96       	adiw	r24, 0x01	; 1
    2a22:	90 93 0b 01 	sts	0x010B, r25	; 0x80010b <Eeprom_addres_process+0x1>
    2a26:	80 93 0a 01 	sts	0x010A, r24	; 0x80010a <Eeprom_addres_process>
	
		//******************************************************** Port E
		recive_byte = EEPROM_read(Eeprom_addres_process);
    2a2a:	0e 94 6a 00 	call	0xd4	; 0xd4 <EEPROM_read>
    2a2e:	c8 2f       	mov	r28, r24
	
		if (recive_byte & (1 << 2)) USART_Transmit_1();
    2a30:	82 ff       	sbrs	r24, 2
    2a32:	03 c0       	rjmp	.+6      	; 0x2a3a <fromEeprom_toLongString+0x82>
    2a34:	0e 94 8c 16 	call	0x2d18	; 0x2d18 <USART_Transmit_1>
    2a38:	02 c0       	rjmp	.+4      	; 0x2a3e <fromEeprom_toLongString+0x86>
		else USART_Transmit_0();
    2a3a:	0e 94 87 16 	call	0x2d0e	; 0x2d0e <USART_Transmit_0>
		if (recive_byte & (1 << 3)) USART_Transmit_1();
    2a3e:	c3 ff       	sbrs	r28, 3
    2a40:	03 c0       	rjmp	.+6      	; 0x2a48 <fromEeprom_toLongString+0x90>
    2a42:	0e 94 8c 16 	call	0x2d18	; 0x2d18 <USART_Transmit_1>
    2a46:	02 c0       	rjmp	.+4      	; 0x2a4c <fromEeprom_toLongString+0x94>
		else USART_Transmit_0();
    2a48:	0e 94 87 16 	call	0x2d0e	; 0x2d0e <USART_Transmit_0>
		if (recive_byte & (1 << 4)) USART_Transmit_1();
    2a4c:	c4 ff       	sbrs	r28, 4
    2a4e:	03 c0       	rjmp	.+6      	; 0x2a56 <fromEeprom_toLongString+0x9e>
    2a50:	0e 94 8c 16 	call	0x2d18	; 0x2d18 <USART_Transmit_1>
    2a54:	02 c0       	rjmp	.+4      	; 0x2a5a <fromEeprom_toLongString+0xa2>
		else USART_Transmit_0();
    2a56:	0e 94 87 16 	call	0x2d0e	; 0x2d0e <USART_Transmit_0>
		if (recive_byte & (1 << 5)) USART_Transmit_1();
    2a5a:	c5 ff       	sbrs	r28, 5
    2a5c:	03 c0       	rjmp	.+6      	; 0x2a64 <fromEeprom_toLongString+0xac>
    2a5e:	0e 94 8c 16 	call	0x2d18	; 0x2d18 <USART_Transmit_1>
    2a62:	02 c0       	rjmp	.+4      	; 0x2a68 <fromEeprom_toLongString+0xb0>
		else USART_Transmit_0();
    2a64:	0e 94 87 16 	call	0x2d0e	; 0x2d0e <USART_Transmit_0>
		if (recive_byte & (1 << 6)) USART_Transmit_1();
    2a68:	c6 ff       	sbrs	r28, 6
    2a6a:	03 c0       	rjmp	.+6      	; 0x2a72 <fromEeprom_toLongString+0xba>
    2a6c:	0e 94 8c 16 	call	0x2d18	; 0x2d18 <USART_Transmit_1>
    2a70:	02 c0       	rjmp	.+4      	; 0x2a76 <fromEeprom_toLongString+0xbe>
		else USART_Transmit_0();
    2a72:	0e 94 87 16 	call	0x2d0e	; 0x2d0e <USART_Transmit_0>
		if (recive_byte & (1 << 7)) USART_Transmit_1();
    2a76:	cc 23       	and	r28, r28
    2a78:	1c f4       	brge	.+6      	; 0x2a80 <fromEeprom_toLongString+0xc8>
    2a7a:	0e 94 8c 16 	call	0x2d18	; 0x2d18 <USART_Transmit_1>
    2a7e:	02 c0       	rjmp	.+4      	; 0x2a84 <fromEeprom_toLongString+0xcc>
		else USART_Transmit_0();	
    2a80:	0e 94 87 16 	call	0x2d0e	; 0x2d0e <USART_Transmit_0>
		Eeprom_addres_process++;	   
    2a84:	80 91 0a 01 	lds	r24, 0x010A	; 0x80010a <Eeprom_addres_process>
    2a88:	90 91 0b 01 	lds	r25, 0x010B	; 0x80010b <Eeprom_addres_process+0x1>
    2a8c:	01 96       	adiw	r24, 0x01	; 1
    2a8e:	90 93 0b 01 	sts	0x010B, r25	; 0x80010b <Eeprom_addres_process+0x1>
    2a92:	80 93 0a 01 	sts	0x010A, r24	; 0x80010a <Eeprom_addres_process>
	
		//******************************************************** Port B
		recive_byte = EEPROM_read(Eeprom_addres_process);
    2a96:	0e 94 6a 00 	call	0xd4	; 0xd4 <EEPROM_read>
    2a9a:	c8 2f       	mov	r28, r24
	
		if (recive_byte & (1 << 0)) USART_Transmit_1();
    2a9c:	80 ff       	sbrs	r24, 0
    2a9e:	03 c0       	rjmp	.+6      	; 0x2aa6 <fromEeprom_toLongString+0xee>
    2aa0:	0e 94 8c 16 	call	0x2d18	; 0x2d18 <USART_Transmit_1>
    2aa4:	02 c0       	rjmp	.+4      	; 0x2aaa <fromEeprom_toLongString+0xf2>
		else USART_Transmit_0();
    2aa6:	0e 94 87 16 	call	0x2d0e	; 0x2d0e <USART_Transmit_0>
		if (recive_byte & (1 << 1)) USART_Transmit_1();
    2aaa:	c1 ff       	sbrs	r28, 1
    2aac:	03 c0       	rjmp	.+6      	; 0x2ab4 <fromEeprom_toLongString+0xfc>
    2aae:	0e 94 8c 16 	call	0x2d18	; 0x2d18 <USART_Transmit_1>
    2ab2:	02 c0       	rjmp	.+4      	; 0x2ab8 <fromEeprom_toLongString+0x100>
		else USART_Transmit_0();
    2ab4:	0e 94 87 16 	call	0x2d0e	; 0x2d0e <USART_Transmit_0>
		if (recive_byte & (1 << 2)) USART_Transmit_1();
    2ab8:	c2 ff       	sbrs	r28, 2
    2aba:	03 c0       	rjmp	.+6      	; 0x2ac2 <fromEeprom_toLongString+0x10a>
    2abc:	0e 94 8c 16 	call	0x2d18	; 0x2d18 <USART_Transmit_1>
    2ac0:	02 c0       	rjmp	.+4      	; 0x2ac6 <fromEeprom_toLongString+0x10e>
		else USART_Transmit_0();
    2ac2:	0e 94 87 16 	call	0x2d0e	; 0x2d0e <USART_Transmit_0>
		if (recive_byte & (1 << 3)) USART_Transmit_1();
    2ac6:	c3 ff       	sbrs	r28, 3
    2ac8:	03 c0       	rjmp	.+6      	; 0x2ad0 <fromEeprom_toLongString+0x118>
    2aca:	0e 94 8c 16 	call	0x2d18	; 0x2d18 <USART_Transmit_1>
    2ace:	02 c0       	rjmp	.+4      	; 0x2ad4 <fromEeprom_toLongString+0x11c>
		else USART_Transmit_0();
    2ad0:	0e 94 87 16 	call	0x2d0e	; 0x2d0e <USART_Transmit_0>
		if (recive_byte & (1 << 4)) USART_Transmit_1();
    2ad4:	c4 ff       	sbrs	r28, 4
    2ad6:	03 c0       	rjmp	.+6      	; 0x2ade <fromEeprom_toLongString+0x126>
    2ad8:	0e 94 8c 16 	call	0x2d18	; 0x2d18 <USART_Transmit_1>
    2adc:	02 c0       	rjmp	.+4      	; 0x2ae2 <fromEeprom_toLongString+0x12a>
		else USART_Transmit_0();
    2ade:	0e 94 87 16 	call	0x2d0e	; 0x2d0e <USART_Transmit_0>
		if (recive_byte & (1 << 5)) USART_Transmit_1();
    2ae2:	c5 ff       	sbrs	r28, 5
    2ae4:	03 c0       	rjmp	.+6      	; 0x2aec <fromEeprom_toLongString+0x134>
    2ae6:	0e 94 8c 16 	call	0x2d18	; 0x2d18 <USART_Transmit_1>
    2aea:	02 c0       	rjmp	.+4      	; 0x2af0 <fromEeprom_toLongString+0x138>
		else USART_Transmit_0();
    2aec:	0e 94 87 16 	call	0x2d0e	; 0x2d0e <USART_Transmit_0>
		if (recive_byte & (1 << 6)) USART_Transmit_1();
    2af0:	c6 ff       	sbrs	r28, 6
    2af2:	03 c0       	rjmp	.+6      	; 0x2afa <fromEeprom_toLongString+0x142>
    2af4:	0e 94 8c 16 	call	0x2d18	; 0x2d18 <USART_Transmit_1>
    2af8:	02 c0       	rjmp	.+4      	; 0x2afe <fromEeprom_toLongString+0x146>
		else USART_Transmit_0();
    2afa:	0e 94 87 16 	call	0x2d0e	; 0x2d0e <USART_Transmit_0>
		if (recive_byte & (1 << 7)) USART_Transmit_1();
    2afe:	cc 23       	and	r28, r28
    2b00:	1c f4       	brge	.+6      	; 0x2b08 <fromEeprom_toLongString+0x150>
    2b02:	0e 94 8c 16 	call	0x2d18	; 0x2d18 <USART_Transmit_1>
    2b06:	02 c0       	rjmp	.+4      	; 0x2b0c <fromEeprom_toLongString+0x154>
		else USART_Transmit_0();
    2b08:	0e 94 87 16 	call	0x2d0e	; 0x2d0e <USART_Transmit_0>
		Eeprom_addres_process++;  
    2b0c:	80 91 0a 01 	lds	r24, 0x010A	; 0x80010a <Eeprom_addres_process>
    2b10:	90 91 0b 01 	lds	r25, 0x010B	; 0x80010b <Eeprom_addres_process+0x1>
    2b14:	01 96       	adiw	r24, 0x01	; 1
    2b16:	90 93 0b 01 	sts	0x010B, r25	; 0x80010b <Eeprom_addres_process+0x1>
    2b1a:	80 93 0a 01 	sts	0x010A, r24	; 0x80010a <Eeprom_addres_process>
	
		//******************************************************** Port D
		recive_byte = EEPROM_read(Eeprom_addres_process); 
    2b1e:	0e 94 6a 00 	call	0xd4	; 0xd4 <EEPROM_read>
    2b22:	c8 2f       	mov	r28, r24
	
		if (recive_byte & (1 << 0)) USART_Transmit_1();
    2b24:	80 ff       	sbrs	r24, 0
    2b26:	03 c0       	rjmp	.+6      	; 0x2b2e <fromEeprom_toLongString+0x176>
    2b28:	0e 94 8c 16 	call	0x2d18	; 0x2d18 <USART_Transmit_1>
    2b2c:	02 c0       	rjmp	.+4      	; 0x2b32 <fromEeprom_toLongString+0x17a>
		else USART_Transmit_0();
    2b2e:	0e 94 87 16 	call	0x2d0e	; 0x2d0e <USART_Transmit_0>
	
		USART_Transmit_space();
    2b32:	0e 94 91 16 	call	0x2d22	; 0x2d22 <USART_Transmit_space>
	
		if (recive_byte & (1 << 5)) USART_Transmit_1();
    2b36:	c5 ff       	sbrs	r28, 5
    2b38:	03 c0       	rjmp	.+6      	; 0x2b40 <fromEeprom_toLongString+0x188>
    2b3a:	0e 94 8c 16 	call	0x2d18	; 0x2d18 <USART_Transmit_1>
    2b3e:	02 c0       	rjmp	.+4      	; 0x2b44 <fromEeprom_toLongString+0x18c>
		else USART_Transmit_0();
    2b40:	0e 94 87 16 	call	0x2d0e	; 0x2d0e <USART_Transmit_0>
		if (recive_byte & (1 << 6)) USART_Transmit_1();
    2b44:	c6 ff       	sbrs	r28, 6
    2b46:	03 c0       	rjmp	.+6      	; 0x2b4e <fromEeprom_toLongString+0x196>
    2b48:	0e 94 8c 16 	call	0x2d18	; 0x2d18 <USART_Transmit_1>
    2b4c:	02 c0       	rjmp	.+4      	; 0x2b52 <fromEeprom_toLongString+0x19a>
		else USART_Transmit_0();
    2b4e:	0e 94 87 16 	call	0x2d0e	; 0x2d0e <USART_Transmit_0>
		if (recive_byte & (1 << 7)) USART_Transmit_1();
    2b52:	cc 23       	and	r28, r28
    2b54:	1c f4       	brge	.+6      	; 0x2b5c <fromEeprom_toLongString+0x1a4>
    2b56:	0e 94 8c 16 	call	0x2d18	; 0x2d18 <USART_Transmit_1>
    2b5a:	02 c0       	rjmp	.+4      	; 0x2b60 <fromEeprom_toLongString+0x1a8>
		else USART_Transmit_0();
    2b5c:	0e 94 87 16 	call	0x2d0e	; 0x2d0e <USART_Transmit_0>
		Eeprom_addres_process++;
    2b60:	80 91 0a 01 	lds	r24, 0x010A	; 0x80010a <Eeprom_addres_process>
    2b64:	90 91 0b 01 	lds	r25, 0x010B	; 0x80010b <Eeprom_addres_process+0x1>
    2b68:	01 96       	adiw	r24, 0x01	; 1
    2b6a:	90 93 0b 01 	sts	0x010B, r25	; 0x80010b <Eeprom_addres_process+0x1>
    2b6e:	80 93 0a 01 	sts	0x010A, r24	; 0x80010a <Eeprom_addres_process>
	
		//******************************************************** Port C
		recive_byte = EEPROM_read(Eeprom_addres_process);
    2b72:	0e 94 6a 00 	call	0xd4	; 0xd4 <EEPROM_read>
    2b76:	c8 2f       	mov	r28, r24

		if (recive_byte & (1 << 0)) USART_Transmit_1();
    2b78:	80 ff       	sbrs	r24, 0
    2b7a:	03 c0       	rjmp	.+6      	; 0x2b82 <fromEeprom_toLongString+0x1ca>
    2b7c:	0e 94 8c 16 	call	0x2d18	; 0x2d18 <USART_Transmit_1>
    2b80:	02 c0       	rjmp	.+4      	; 0x2b86 <fromEeprom_toLongString+0x1ce>
		else USART_Transmit_0();
    2b82:	0e 94 87 16 	call	0x2d0e	; 0x2d0e <USART_Transmit_0>
		if (recive_byte & (1 << 1)) USART_Transmit_1();
    2b86:	c1 ff       	sbrs	r28, 1
    2b88:	03 c0       	rjmp	.+6      	; 0x2b90 <fromEeprom_toLongString+0x1d8>
    2b8a:	0e 94 8c 16 	call	0x2d18	; 0x2d18 <USART_Transmit_1>
    2b8e:	02 c0       	rjmp	.+4      	; 0x2b94 <fromEeprom_toLongString+0x1dc>
		else USART_Transmit_0();
    2b90:	0e 94 87 16 	call	0x2d0e	; 0x2d0e <USART_Transmit_0>
		if (recive_byte & (1 << 2)) USART_Transmit_1();
    2b94:	c2 ff       	sbrs	r28, 2
    2b96:	03 c0       	rjmp	.+6      	; 0x2b9e <fromEeprom_toLongString+0x1e6>
    2b98:	0e 94 8c 16 	call	0x2d18	; 0x2d18 <USART_Transmit_1>
    2b9c:	02 c0       	rjmp	.+4      	; 0x2ba2 <fromEeprom_toLongString+0x1ea>
		else USART_Transmit_0();
    2b9e:	0e 94 87 16 	call	0x2d0e	; 0x2d0e <USART_Transmit_0>
		if (recive_byte & (1 << 3)) USART_Transmit_1();
    2ba2:	c3 ff       	sbrs	r28, 3
    2ba4:	03 c0       	rjmp	.+6      	; 0x2bac <fromEeprom_toLongString+0x1f4>
    2ba6:	0e 94 8c 16 	call	0x2d18	; 0x2d18 <USART_Transmit_1>
    2baa:	02 c0       	rjmp	.+4      	; 0x2bb0 <fromEeprom_toLongString+0x1f8>
		else USART_Transmit_0();
    2bac:	0e 94 87 16 	call	0x2d0e	; 0x2d0e <USART_Transmit_0>
		if (recive_byte & (1 << 4)) USART_Transmit_1();
    2bb0:	c4 ff       	sbrs	r28, 4
    2bb2:	03 c0       	rjmp	.+6      	; 0x2bba <fromEeprom_toLongString+0x202>
    2bb4:	0e 94 8c 16 	call	0x2d18	; 0x2d18 <USART_Transmit_1>
    2bb8:	02 c0       	rjmp	.+4      	; 0x2bbe <fromEeprom_toLongString+0x206>
		else USART_Transmit_0();
    2bba:	0e 94 87 16 	call	0x2d0e	; 0x2d0e <USART_Transmit_0>
		if (recive_byte & (1 << 5)) USART_Transmit_1();
    2bbe:	c5 ff       	sbrs	r28, 5
    2bc0:	03 c0       	rjmp	.+6      	; 0x2bc8 <fromEeprom_toLongString+0x210>
    2bc2:	0e 94 8c 16 	call	0x2d18	; 0x2d18 <USART_Transmit_1>
    2bc6:	02 c0       	rjmp	.+4      	; 0x2bcc <fromEeprom_toLongString+0x214>
		else USART_Transmit_0();
    2bc8:	0e 94 87 16 	call	0x2d0e	; 0x2d0e <USART_Transmit_0>
		if (recive_byte & (1 << 6)) USART_Transmit_1();
    2bcc:	c6 ff       	sbrs	r28, 6
    2bce:	03 c0       	rjmp	.+6      	; 0x2bd6 <fromEeprom_toLongString+0x21e>
    2bd0:	0e 94 8c 16 	call	0x2d18	; 0x2d18 <USART_Transmit_1>
    2bd4:	02 c0       	rjmp	.+4      	; 0x2bda <fromEeprom_toLongString+0x222>
		else USART_Transmit_0();
    2bd6:	0e 94 87 16 	call	0x2d0e	; 0x2d0e <USART_Transmit_0>
		if (recive_byte & (1 << 7)) USART_Transmit_1();
    2bda:	cc 23       	and	r28, r28
    2bdc:	1c f4       	brge	.+6      	; 0x2be4 <fromEeprom_toLongString+0x22c>
    2bde:	0e 94 8c 16 	call	0x2d18	; 0x2d18 <USART_Transmit_1>
    2be2:	02 c0       	rjmp	.+4      	; 0x2be8 <fromEeprom_toLongString+0x230>
		else USART_Transmit_0();
    2be4:	0e 94 87 16 	call	0x2d0e	; 0x2d0e <USART_Transmit_0>
		Eeprom_addres_process++;		           
    2be8:	80 91 0a 01 	lds	r24, 0x010A	; 0x80010a <Eeprom_addres_process>
    2bec:	90 91 0b 01 	lds	r25, 0x010B	; 0x80010b <Eeprom_addres_process+0x1>
    2bf0:	01 96       	adiw	r24, 0x01	; 1
    2bf2:	90 93 0b 01 	sts	0x010B, r25	; 0x80010b <Eeprom_addres_process+0x1>
    2bf6:	80 93 0a 01 	sts	0x010A, r24	; 0x80010a <Eeprom_addres_process>
	
		//******************************************************** Port A
		recive_byte = EEPROM_read(Eeprom_addres_process);
    2bfa:	0e 94 6a 00 	call	0xd4	; 0xd4 <EEPROM_read>
    2bfe:	c8 2f       	mov	r28, r24

		if (recive_byte & (1 << 7)) USART_Transmit_1();
    2c00:	88 23       	and	r24, r24
    2c02:	1c f4       	brge	.+6      	; 0x2c0a <fromEeprom_toLongString+0x252>
    2c04:	0e 94 8c 16 	call	0x2d18	; 0x2d18 <USART_Transmit_1>
    2c08:	02 c0       	rjmp	.+4      	; 0x2c0e <fromEeprom_toLongString+0x256>
		else USART_Transmit_0();
    2c0a:	0e 94 87 16 	call	0x2d0e	; 0x2d0e <USART_Transmit_0>
		if (recive_byte & (1 << 6)) USART_Transmit_1();
    2c0e:	c6 ff       	sbrs	r28, 6
    2c10:	03 c0       	rjmp	.+6      	; 0x2c18 <fromEeprom_toLongString+0x260>
    2c12:	0e 94 8c 16 	call	0x2d18	; 0x2d18 <USART_Transmit_1>
    2c16:	02 c0       	rjmp	.+4      	; 0x2c1c <fromEeprom_toLongString+0x264>
		else USART_Transmit_0();
    2c18:	0e 94 87 16 	call	0x2d0e	; 0x2d0e <USART_Transmit_0>
		if (recive_byte & (1 << 5)) USART_Transmit_1();
    2c1c:	c5 ff       	sbrs	r28, 5
    2c1e:	03 c0       	rjmp	.+6      	; 0x2c26 <fromEeprom_toLongString+0x26e>
    2c20:	0e 94 8c 16 	call	0x2d18	; 0x2d18 <USART_Transmit_1>
    2c24:	02 c0       	rjmp	.+4      	; 0x2c2a <fromEeprom_toLongString+0x272>
		else USART_Transmit_0();
    2c26:	0e 94 87 16 	call	0x2d0e	; 0x2d0e <USART_Transmit_0>
		if (recive_byte & (1 << 4)) USART_Transmit_1();
    2c2a:	c4 ff       	sbrs	r28, 4
    2c2c:	03 c0       	rjmp	.+6      	; 0x2c34 <fromEeprom_toLongString+0x27c>
    2c2e:	0e 94 8c 16 	call	0x2d18	; 0x2d18 <USART_Transmit_1>
    2c32:	02 c0       	rjmp	.+4      	; 0x2c38 <fromEeprom_toLongString+0x280>
		else USART_Transmit_0();
    2c34:	0e 94 87 16 	call	0x2d0e	; 0x2d0e <USART_Transmit_0>
		if (recive_byte & (1 << 3)) USART_Transmit_1();
    2c38:	c3 ff       	sbrs	r28, 3
    2c3a:	03 c0       	rjmp	.+6      	; 0x2c42 <fromEeprom_toLongString+0x28a>
    2c3c:	0e 94 8c 16 	call	0x2d18	; 0x2d18 <USART_Transmit_1>
    2c40:	02 c0       	rjmp	.+4      	; 0x2c46 <fromEeprom_toLongString+0x28e>
		else USART_Transmit_0();
    2c42:	0e 94 87 16 	call	0x2d0e	; 0x2d0e <USART_Transmit_0>
		if (recive_byte & (1 << 2)) USART_Transmit_1();
    2c46:	c2 ff       	sbrs	r28, 2
    2c48:	03 c0       	rjmp	.+6      	; 0x2c50 <fromEeprom_toLongString+0x298>
    2c4a:	0e 94 8c 16 	call	0x2d18	; 0x2d18 <USART_Transmit_1>
    2c4e:	02 c0       	rjmp	.+4      	; 0x2c54 <fromEeprom_toLongString+0x29c>
		else USART_Transmit_0();
    2c50:	0e 94 87 16 	call	0x2d0e	; 0x2d0e <USART_Transmit_0>
		if (recive_byte & (1 << 1)) USART_Transmit_1();
    2c54:	c1 ff       	sbrs	r28, 1
    2c56:	03 c0       	rjmp	.+6      	; 0x2c5e <fromEeprom_toLongString+0x2a6>
    2c58:	0e 94 8c 16 	call	0x2d18	; 0x2d18 <USART_Transmit_1>
    2c5c:	02 c0       	rjmp	.+4      	; 0x2c62 <fromEeprom_toLongString+0x2aa>
		else USART_Transmit_0();
    2c5e:	0e 94 87 16 	call	0x2d0e	; 0x2d0e <USART_Transmit_0>
		if (recive_byte & (1 << 0)) USART_Transmit_1();
    2c62:	c0 ff       	sbrs	r28, 0
    2c64:	03 c0       	rjmp	.+6      	; 0x2c6c <fromEeprom_toLongString+0x2b4>
    2c66:	0e 94 8c 16 	call	0x2d18	; 0x2d18 <USART_Transmit_1>
    2c6a:	02 c0       	rjmp	.+4      	; 0x2c70 <fromEeprom_toLongString+0x2b8>
		else USART_Transmit_0();
    2c6c:	0e 94 87 16 	call	0x2d0e	; 0x2d0e <USART_Transmit_0>
		Eeprom_addres_process++;	
    2c70:	80 91 0a 01 	lds	r24, 0x010A	; 0x80010a <Eeprom_addres_process>
    2c74:	90 91 0b 01 	lds	r25, 0x010B	; 0x80010b <Eeprom_addres_process+0x1>
    2c78:	01 96       	adiw	r24, 0x01	; 1
    2c7a:	90 93 0b 01 	sts	0x010B, r25	; 0x80010b <Eeprom_addres_process+0x1>
    2c7e:	80 93 0a 01 	sts	0x010A, r24	; 0x80010a <Eeprom_addres_process>
    2c82:	d1 50       	subi	r29, 0x01	; 1
void fromEeprom_toLongString()
{    							   
	Eeprom_addres_process = cell_addres;  	               
	uint8_t recive_byte = 0;
	
	for(uint8_t i = Pass; i != 0 ; i--)
    2c84:	09 f0       	breq	.+2      	; 0x2c88 <fromEeprom_toLongString+0x2d0>
    2c86:	a3 ce       	rjmp	.-698    	; 0x29ce <fromEeprom_toLongString+0x16>
		else USART_Transmit_0();
		if (recive_byte & (1 << 0)) USART_Transmit_1();
		else USART_Transmit_0();
		Eeprom_addres_process++;	
	}
	while ( !( UCSR0A & (1<<UDRE0)) );
    2c88:	5d 9b       	sbis	0x0b, 5	; 11
    2c8a:	fe cf       	rjmp	.-4      	; 0x2c88 <fromEeprom_toLongString+0x2d0>
	UDR0 = '\n';
    2c8c:	8a e0       	ldi	r24, 0x0A	; 10
    2c8e:	8c b9       	out	0x0c, r24	; 12
	BLUE_LED_OFF;
    2c90:	e5 e6       	ldi	r30, 0x65	; 101
    2c92:	f0 e0       	ldi	r31, 0x00	; 0
    2c94:	80 81       	ld	r24, Z
    2c96:	8b 7f       	andi	r24, 0xFB	; 251
    2c98:	80 83       	st	Z, r24
}
    2c9a:	df 91       	pop	r29
    2c9c:	cf 91       	pop	r28
    2c9e:	08 95       	ret

00002ca0 <Timer_1_int_LONG>:

#include "Timer_1.h"

void Timer_1_int_LONG(void)
{
	TIFR = 1 << TOV1;
    2ca0:	84 e0       	ldi	r24, 0x04	; 4
    2ca2:	86 bf       	out	0x36, r24	; 54
	TCCR1B |= (1 << CS12) | (1 << CS10);
    2ca4:	8e b5       	in	r24, 0x2e	; 46
    2ca6:	85 60       	ori	r24, 0x05	; 5
    2ca8:	8e bd       	out	0x2e, r24	; 46
	TIMSK |= (1 << TOIE1);
    2caa:	87 b7       	in	r24, 0x37	; 55
    2cac:	84 60       	ori	r24, 0x04	; 4
    2cae:	87 bf       	out	0x37, r24	; 55
	TCNT1 = 0;
    2cb0:	1d bc       	out	0x2d, r1	; 45
    2cb2:	1c bc       	out	0x2c, r1	; 44
    2cb4:	08 95       	ret

00002cb6 <Timer_1_int_SHORT>:
}

void Timer_1_int_SHORT(void)
{
	TIFR = 1 << TOV1;
    2cb6:	84 e0       	ldi	r24, 0x04	; 4
    2cb8:	86 bf       	out	0x36, r24	; 54
	TCCR1B |= (1 << CS12);
    2cba:	8e b5       	in	r24, 0x2e	; 46
    2cbc:	84 60       	ori	r24, 0x04	; 4
    2cbe:	8e bd       	out	0x2e, r24	; 46
	TIMSK |= (1 << TOIE1);
    2cc0:	87 b7       	in	r24, 0x37	; 55
    2cc2:	84 60       	ori	r24, 0x04	; 4
    2cc4:	87 bf       	out	0x37, r24	; 55
	TCNT1 = 0;
    2cc6:	1d bc       	out	0x2d, r1	; 45
    2cc8:	1c bc       	out	0x2c, r1	; 44
    2cca:	08 95       	ret

00002ccc <Timer_1_int_DISABLE>:
}

void Timer_1_int_DISABLE(void)
{
	TIFR = 1 << TOV1;
    2ccc:	84 e0       	ldi	r24, 0x04	; 4
    2cce:	86 bf       	out	0x36, r24	; 54
	TCCR1B = 0;
    2cd0:	1e bc       	out	0x2e, r1	; 46
	TIMSK = 0;
    2cd2:	17 be       	out	0x37, r1	; 55
    2cd4:	08 95       	ret

00002cd6 <USART_Init>:

void USART_Transmit(uint8_t data)
{	
	while ( !( UCSR0A & (1<<UDRE0)) )													 // Wait for empty transmit buffer
	;
	UDR0 = data;																		 // Put data into buffer, sends the data
    2cd6:	90 93 90 00 	sts	0x0090, r25	; 0x800090 <__TEXT_REGION_LENGTH__+0x7e0090>
    2cda:	89 b9       	out	0x09, r24	; 9
    2cdc:	88 e9       	ldi	r24, 0x98	; 152
    2cde:	8a b9       	out	0x0a, r24	; 10
    2ce0:	86 e0       	ldi	r24, 0x06	; 6
    2ce2:	80 93 95 00 	sts	0x0095, r24	; 0x800095 <__TEXT_REGION_LENGTH__+0x7e0095>
    2ce6:	08 95       	ret

00002ce8 <USART_Receive>:
}

uint8_t USART_Receive(void)
{	
	while ( !(UCSR0A & (1<<RXC0)) )														 // Wait for data to be received
    2ce8:	5f 9b       	sbis	0x0b, 7	; 11
    2cea:	fe cf       	rjmp	.-4      	; 0x2ce8 <USART_Receive>
	;	
	return UDR0;																		 // Get and return received data from buffer
    2cec:	8c b1       	in	r24, 0x0c	; 12
}
    2cee:	08 95       	ret

00002cf0 <USART_Flush>:

void USART_Flush(void)
{
    2cf0:	cf 93       	push	r28
    2cf2:	df 93       	push	r29
    2cf4:	1f 92       	push	r1
    2cf6:	cd b7       	in	r28, 0x3d	; 61
    2cf8:	de b7       	in	r29, 0x3e	; 62
	volatile uint8_t dummy;
	while ( UCSR0A & (1<<RXC0) ) dummy = UDR0;
    2cfa:	5f 9b       	sbis	0x0b, 7	; 11
    2cfc:	04 c0       	rjmp	.+8      	; 0x2d06 <USART_Flush+0x16>
    2cfe:	8c b1       	in	r24, 0x0c	; 12
    2d00:	89 83       	std	Y+1, r24	; 0x01
    2d02:	5f 99       	sbic	0x0b, 7	; 11
    2d04:	fc cf       	rjmp	.-8      	; 0x2cfe <USART_Flush+0xe>
}
    2d06:	0f 90       	pop	r0
    2d08:	df 91       	pop	r29
    2d0a:	cf 91       	pop	r28
    2d0c:	08 95       	ret

00002d0e <USART_Transmit_0>:

void USART_Transmit_0(void)
{																						 // Transmit '0' to USART
	while ( !( UCSR0A & (1<<UDRE0)) );
    2d0e:	5d 9b       	sbis	0x0b, 5	; 11
    2d10:	fe cf       	rjmp	.-4      	; 0x2d0e <USART_Transmit_0>
	UDR0 = '0';
    2d12:	80 e3       	ldi	r24, 0x30	; 48
    2d14:	8c b9       	out	0x0c, r24	; 12
    2d16:	08 95       	ret

00002d18 <USART_Transmit_1>:
}

void USART_Transmit_1(void)
{																						 // Transmit '0' to USART
	while ( !( UCSR0A & (1<<UDRE0)) );
    2d18:	5d 9b       	sbis	0x0b, 5	; 11
    2d1a:	fe cf       	rjmp	.-4      	; 0x2d18 <USART_Transmit_1>
	UDR0 = '1';
    2d1c:	81 e3       	ldi	r24, 0x31	; 49
    2d1e:	8c b9       	out	0x0c, r24	; 12
    2d20:	08 95       	ret

00002d22 <USART_Transmit_space>:
}

void USART_Transmit_space(void)
{
	while ( !( UCSR0A & (1<<UDRE0)) );
    2d22:	5d 9b       	sbis	0x0b, 5	; 11
    2d24:	fe cf       	rjmp	.-4      	; 0x2d22 <USART_Transmit_space>
	UDR0 = ' ';
    2d26:	80 e2       	ldi	r24, 0x20	; 32
    2d28:	8c b9       	out	0x0c, r24	; 12
    2d2a:	08 95       	ret

00002d2c <Processing_RecivedByte>:
}

void Processing_RecivedByte(uint8_t data)
{
    2d2c:	cf 93       	push	r28
	if (data == STNDART_PC_MODE)														 // Standart Comparing
    2d2e:	81 30       	cpi	r24, 0x01	; 1
    2d30:	39 f4       	brne	.+14     	; 0x2d40 <Processing_RecivedByte+0x14>
	{
		Mode = STNDART_PC_MODE;
    2d32:	80 93 0e 01 	sts	0x010E, r24	; 0x80010e <Mode>
		Led_Indicator_OFF();
    2d36:	0e 94 d4 06 	call	0xda8	; 0xda8 <Led_Indicator_OFF>
		Scan_USART_Transmit();
    2d3a:	0e 94 2b 09 	call	0x1256	; 0x1256 <Scan_USART_Transmit>
    2d3e:	30 c0       	rjmp	.+96     	; 0x2da0 <Processing_RecivedByte+0x74>
	}
	else if (data == STANDBY)
    2d40:	81 11       	cpse	r24, r1
    2d42:	06 c0       	rjmp	.+12     	; 0x2d50 <Processing_RecivedByte+0x24>
	{
		Mode = STNDART_PC_MODE;
    2d44:	81 e0       	ldi	r24, 0x01	; 1
    2d46:	80 93 0e 01 	sts	0x010E, r24	; 0x80010e <Mode>
		Led_Indicator_OFF();
    2d4a:	0e 94 d4 06 	call	0xda8	; 0xda8 <Led_Indicator_OFF>
    2d4e:	28 c0       	rjmp	.+80     	; 0x2da0 <Processing_RecivedByte+0x74>
	}
	else
	{
		uint8_t number, mode;
		number = mode = data;
		mode &= 0b00001111;
    2d50:	c8 2f       	mov	r28, r24
    2d52:	cf 70       	andi	r28, 0x0F	; 15
		number = number >> 4;
		LED_INDICATOR_CELL_ADDRES(number);
    2d54:	82 95       	swap	r24
    2d56:	8f 70       	andi	r24, 0x0F	; 15
    2d58:	0e 94 ef 06 	call	0xdde	; 0xdde <LED_INDICATOR_CELL_ADDRES>
		if (mode == EEPROM_READ_MODE)
    2d5c:	c2 30       	cpi	r28, 0x02	; 2
    2d5e:	19 f4       	brne	.+6      	; 0x2d66 <Processing_RecivedByte+0x3a>
		{
			fromEeprom_toLongString();
    2d60:	0e 94 dc 14 	call	0x29b8	; 0x29b8 <fromEeprom_toLongString>
    2d64:	1d c0       	rjmp	.+58     	; 0x2da0 <Processing_RecivedByte+0x74>
		}
						
		else if(mode == EEPROM_WRITE_FROM_PC_MODE)
    2d66:	c4 30       	cpi	r28, 0x04	; 4
    2d68:	d9 f4       	brne	.+54     	; 0x2da0 <Processing_RecivedByte+0x74>
		{
			Timer_1_int_SHORT();
    2d6a:	0e 94 5b 16 	call	0x2cb6	; 0x2cb6 <Timer_1_int_SHORT>
			Mode = EEPROM_WRITE_FROM_PC_MODE;
    2d6e:	84 e0       	ldi	r24, 0x04	; 4
    2d70:	80 93 0e 01 	sts	0x010E, r24	; 0x80010e <Mode>
			Buttons_ints_DISABLE();
    2d74:	0e 94 6b 05 	call	0xad6	; 0xad6 <Buttons_ints_DISABLE>
			ToEepromFromPC_cell_addres = cell_addres;
    2d78:	80 91 0c 01 	lds	r24, 0x010C	; 0x80010c <cell_addres>
    2d7c:	90 91 0d 01 	lds	r25, 0x010D	; 0x80010d <cell_addres+0x1>
    2d80:	90 93 10 01 	sts	0x0110, r25	; 0x800110 <ToEepromFromPC_cell_addres+0x1>
    2d84:	80 93 0f 01 	sts	0x010F, r24	; 0x80010f <ToEepromFromPC_cell_addres>
			while ( !( UCSR0A & (1<<UDRE0)) );
    2d88:	5d 9b       	sbis	0x0b, 5	; 11
    2d8a:	fe cf       	rjmp	.-4      	; 0x2d88 <Processing_RecivedByte+0x5c>
			UDR0 = 'r';
    2d8c:	82 e7       	ldi	r24, 0x72	; 114
    2d8e:	8c b9       	out	0x0c, r24	; 12
			while ( !( UCSR0A & (1<<UDRE0)) );
    2d90:	5d 9b       	sbis	0x0b, 5	; 11
    2d92:	fe cf       	rjmp	.-4      	; 0x2d90 <Processing_RecivedByte+0x64>
			UDR0 = 'r';
    2d94:	82 e7       	ldi	r24, 0x72	; 114
    2d96:	8c b9       	out	0x0c, r24	; 12
			while ( !( UCSR0A & (1<<UDRE0)) );
    2d98:	5d 9b       	sbis	0x0b, 5	; 11
    2d9a:	fe cf       	rjmp	.-4      	; 0x2d98 <Processing_RecivedByte+0x6c>
			UDR0 = '\n';
    2d9c:	8a e0       	ldi	r24, 0x0A	; 10
    2d9e:	8c b9       	out	0x0c, r24	; 12
		}
	}
}
    2da0:	cf 91       	pop	r28
    2da2:	08 95       	ret

00002da4 <UART_RX_int_DISABLE>:

void UART_RX_int_DISABLE(void)
{
	UCSR0B &= ~(1 << RXCIE0);
    2da4:	57 98       	cbi	0x0a, 7	; 10
    2da6:	08 95       	ret

00002da8 <UART_RX_int_ENABLE>:
}

void UART_RX_int_ENABLE(void)
{
	USART_Flush();
    2da8:	0e 94 78 16 	call	0x2cf0	; 0x2cf0 <USART_Flush>
	UCSR0B |= (1 << RXCIE0);
    2dac:	57 9a       	sbi	0x0a, 7	; 10
    2dae:	08 95       	ret

00002db0 <__tablejump2__>:
    2db0:	ee 0f       	add	r30, r30
    2db2:	ff 1f       	adc	r31, r31
    2db4:	05 90       	lpm	r0, Z+
    2db6:	f4 91       	lpm	r31, Z
    2db8:	e0 2d       	mov	r30, r0
    2dba:	09 94       	ijmp

00002dbc <_exit>:
    2dbc:	f8 94       	cli

00002dbe <__stop_program>:
    2dbe:	ff cf       	rjmp	.-2      	; 0x2dbe <__stop_program>
